ARM GAS  /tmp/ccjBgtoi.s 			page 1


   1              		.cpu cortex-m4
   2              		.arch armv7e-m
   3              		.fpu fpv4-sp-d16
   4              		.eabi_attribute 27, 1
   5              		.eabi_attribute 28, 1
   6              		.eabi_attribute 20, 1
   7              		.eabi_attribute 21, 1
   8              		.eabi_attribute 23, 3
   9              		.eabi_attribute 24, 1
  10              		.eabi_attribute 25, 1
  11              		.eabi_attribute 26, 1
  12              		.eabi_attribute 30, 1
  13              		.eabi_attribute 34, 1
  14              		.eabi_attribute 18, 4
  15              		.file	"main_unique.c"
  16              		.text
  17              	.Ltext0:
  18              		.cfi_sections	.debug_frame
  19              		.file 1 "Core/Src/main_unique.c"
  20              		.section	.text.adc_dir,"ax",%progbits
  21              		.align	1
  22              		.syntax unified
  23              		.thumb
  24              		.thumb_func
  26              	adc_dir:
  27              	.LVL0:
  28              	.LFB290:
   1:Core/Src/main_unique.c **** /*
   2:Core/Src/main_unique.c ****  * main_unique.c
   3:Core/Src/main_unique.c ****  * VERSION MONOLITICA del proyecto: contiene TODAS las funciones propias del
   4:Core/Src/main_unique.c ****  * firmware en un unico archivo, sin depender de ningun otro .c ni de las
   5:Core/Src/main_unique.c ****  * cabeceras de Core/Inc.
   6:Core/Src/main_unique.c ****  *
   7:Core/Src/main_unique.c ****  * PARCIAL TALLER V 2026-1 - DANIEL VARGAS - UNAL
   8:Core/Src/main_unique.c ****  * Plataforma: STM32 Nucleo-F411RE (STM32F411RET6)
   9:Core/Src/main_unique.c ****  *
  10:Core/Src/main_unique.c ****  * Que incluye este archivo (equivalente a la suma de los modulos separados):
  11:Core/Src/main_unique.c ****  *   system_clock  : arbol de relojes a 100 MHz, LSE y salida MCO1 (PA8)
  12:Core/Src/main_unique.c ****  *   gpio          : LED en PH1 y pulsador del joystick en PB5
  13:Core/Src/main_unique.c ****  *   timer         : TIM3 (250 ms, LED) y TIM4 (100 ms, base del sistema)
  14:Core/Src/main_unique.c ****  *   uart          : USART2 a 115200 por interrupciones, con buffer circular
  15:Core/Src/main_unique.c ****  *   adc_joystick  : ADC1 sobre PA0/PA1 por interrupciones
  16:Core/Src/main_unique.c ****  *   rtc           : RTC con LSE y despertador de 1 s
  17:Core/Src/main_unique.c ****  *   i2c_lcd       : LCD HD44780 via PCF8574 sobre I2C1
  18:Core/Src/main_unique.c ****  *   fsm           : maquina de estados y logica de presentacion
  19:Core/Src/main_unique.c ****  *   hal_msp       : configuracion fisica de pines de cada periferico
  20:Core/Src/main_unique.c ****  *   stm32f4xx_it  : rutinas de servicio de interrupcion
  21:Core/Src/main_unique.c ****  *   syscalls      : stubs minimos que exige newlib
  22:Core/Src/main_unique.c ****  *   main          : arranque y bucle principal
  23:Core/Src/main_unique.c ****  *
  24:Core/Src/main_unique.c ****  * Lo unico que queda fuera son las bibliotecas de terceros que el proyecto
  25:Core/Src/main_unique.c ****  * usa tal cual: los drivers HAL de ST, el CMSIS y el startup en ensamblador.
  26:Core/Src/main_unique.c ****  *
  27:Core/Src/main_unique.c ****  * COMPILACION
  28:Core/Src/main_unique.c ****  *   Este archivo es ALTERNATIVO a los modulos separados: define los mismos
  29:Core/Src/main_unique.c ****  *   simbolos, de modo que NO puede enlazarse junto a ellos (habria duplicados).
  30:Core/Src/main_unique.c ****  *   El Makefile lo contempla con la variable UNIQUE:
ARM GAS  /tmp/ccjBgtoi.s 			page 2


  31:Core/Src/main_unique.c ****  *
  32:Core/Src/main_unique.c ****  *       make            -> compila la version modular (por defecto)
  33:Core/Src/main_unique.c ****  *       make UNIQUE=1   -> compila unicamente este archivo
  34:Core/Src/main_unique.c ****  *
  35:Core/Src/main_unique.c ****  *   O de forma manual, sustituyendo los .c de Core/Src (salvo este) por
  36:Core/Src/main_unique.c ****  *   Core/Src/main_unique.c en la lista C_SOURCES.
  37:Core/Src/main_unique.c ****  */
  38:Core/Src/main_unique.c **** 
  39:Core/Src/main_unique.c **** /* ==========================================================================
  40:Core/Src/main_unique.c ****  * 0. Inclusiones: solo bibliotecas externas, ninguna cabecera del proyecto
  41:Core/Src/main_unique.c ****  * ========================================================================== */
  42:Core/Src/main_unique.c **** #include "stm32f4xx_hal.h"   /* API de la libreria HAL para la familia F4   */
  43:Core/Src/main_unique.c **** #include <stdint.h>          /* tipos enteros de ancho fijo: uint8_t, etc.  */
  44:Core/Src/main_unique.c **** #include <string.h>          /* memcpy, strlen, strncmp                     */
  45:Core/Src/main_unique.c **** #include <stdio.h>           /* snprintf para formatear cadenas             */
  46:Core/Src/main_unique.c **** #include <sys/stat.h>        /* struct stat, requerida por _fstat           */
  47:Core/Src/main_unique.c **** #include <errno.h>           /* EINVAL, requerido por _kill                 */
  48:Core/Src/main_unique.c **** 
  49:Core/Src/main_unique.c **** /* ==========================================================================
  50:Core/Src/main_unique.c ****  * 1. Constantes de configuracion (antes repartidas por Core/Inc)
  51:Core/Src/main_unique.c ****  * ========================================================================== */
  52:Core/Src/main_unique.c **** 
  53:Core/Src/main_unique.c **** /* --- GPIO: LED de actividad ---------------------------------------------- */
  54:Core/Src/main_unique.c **** #define LED_GPIO_PORT      GPIOH          /* puerto del LED                 */
  55:Core/Src/main_unique.c **** #define LED_PIN            GPIO_PIN_1     /* PH1, impuesto por el enunciado */
  56:Core/Src/main_unique.c **** 
  57:Core/Src/main_unique.c **** /* --- GPIO: pulsador integrado del joystick ------------------------------- */
  58:Core/Src/main_unique.c **** #define JOY_SW_GPIO_PORT   GPIOB          /* puerto del pulsador            */
  59:Core/Src/main_unique.c **** #define JOY_SW_PIN         GPIO_PIN_5     /* PB5 = D4 en el conector Arduino */
  60:Core/Src/main_unique.c **** #define JOY_SW_EXTI_IRQn   EXTI9_5_IRQn   /* las lineas EXTI5..9 comparten IRQ */
  61:Core/Src/main_unique.c **** 
  62:Core/Src/main_unique.c **** /* --- UART ----------------------------------------------------------------- */
  63:Core/Src/main_unique.c **** #define UART_TX_BUF_SIZE   512U           /* potencia de 2: modulo barato    */
  64:Core/Src/main_unique.c **** 
  65:Core/Src/main_unique.c **** /* --- ADC / joystick ------------------------------------------------------- */
  66:Core/Src/main_unique.c **** /* Umbrales sobre la escala de 12 bits (0..4095) del ADC. El centro mecanico
  67:Core/Src/main_unique.c ****    queda proximo a 2048; la banda muerta evita que el ruido genere movimiento. */
  68:Core/Src/main_unique.c **** #define JOY_CENTER         2048U
  69:Core/Src/main_unique.c **** #define JOY_DEADZONE        600U          /* +-600 cuentas alrededor del centro */
  70:Core/Src/main_unique.c **** 
  71:Core/Src/main_unique.c **** /* --- RTC ------------------------------------------------------------------ */
  72:Core/Src/main_unique.c **** /* Firma escrita en el registro de respaldo tras la primera inicializacion:
  73:Core/Src/main_unique.c ****    permite saber si el RTC ya estaba en hora y no reescribirla en cada arranque. */
  74:Core/Src/main_unique.c **** #define RTC_BACKUP_SIGNATURE   0x32F2A5C3U
  75:Core/Src/main_unique.c **** 
  76:Core/Src/main_unique.c **** /* --- LCD ------------------------------------------------------------------ */
  77:Core/Src/main_unique.c **** #define LCD_COLS           20U
  78:Core/Src/main_unique.c **** #define LCD_ROWS            4U
  79:Core/Src/main_unique.c **** 
  80:Core/Src/main_unique.c **** /* ==========================================================================
  81:Core/Src/main_unique.c ****  * 2. Tipos propios del proyecto
  82:Core/Src/main_unique.c ****  * ========================================================================== */
  83:Core/Src/main_unique.c **** 
  84:Core/Src/main_unique.c **** /*
  85:Core/Src/main_unique.c ****  * mco_src_t: fuentes seleccionables para la salida MCO1 (PA8).
  86:Core/Src/main_unique.c ****  */
  87:Core/Src/main_unique.c **** typedef enum {
ARM GAS  /tmp/ccjBgtoi.s 			page 3


  88:Core/Src/main_unique.c ****     MCO_SRC_HSI = 0,   /* oscilador interno de alta velocidad, 16 MHz     */
  89:Core/Src/main_unique.c ****     MCO_SRC_LSE,       /* cristal externo de baja velocidad, 32.768 kHz   */
  90:Core/Src/main_unique.c ****     MCO_SRC_PLL,       /* salida del PLL principal, 100 MHz               */
  91:Core/Src/main_unique.c ****     MCO_SRC_COUNT      /* numero de fuentes (util para validar indices)   */
  92:Core/Src/main_unique.c **** } mco_src_t;
  93:Core/Src/main_unique.c **** 
  94:Core/Src/main_unique.c **** /*
  95:Core/Src/main_unique.c ****  * Estados de la maquina de estados.
  96:Core/Src/main_unique.c ****  *   ST_INIT    : arranque; mensaje de bienvenida.
  97:Core/Src/main_unique.c ****  *   ST_IDLE    : sin modo seleccionado; la linea 2 muestra el texto movil.
  98:Core/Src/main_unique.c ****  *   ST_MODE_X  : modo X activo.       ST_MODE_Y : modo Y activo.
  99:Core/Src/main_unique.c ****  *   ST_MESSAGE : mensaje temporal; al expirar se vuelve al estado guardado.
 100:Core/Src/main_unique.c ****  *   ST_ERROR   : fallo irrecuperable de un periferico.
 101:Core/Src/main_unique.c ****  */
 102:Core/Src/main_unique.c **** typedef enum {
 103:Core/Src/main_unique.c ****     ST_INIT = 0,
 104:Core/Src/main_unique.c ****     ST_IDLE,
 105:Core/Src/main_unique.c ****     ST_MODE_X,
 106:Core/Src/main_unique.c ****     ST_MODE_Y,
 107:Core/Src/main_unique.c ****     ST_MESSAGE,
 108:Core/Src/main_unique.c ****     ST_ERROR,
 109:Core/Src/main_unique.c ****     ST_COUNT
 110:Core/Src/main_unique.c **** } fsm_state_t;
 111:Core/Src/main_unique.c **** 
 112:Core/Src/main_unique.c **** /* Eventos que consume la maquina de estados */
 113:Core/Src/main_unique.c **** typedef enum {
 114:Core/Src/main_unique.c ****     EV_NONE = 0,
 115:Core/Src/main_unique.c ****     EV_CMD_CLEAR,      /* 'c' recibido por UART                      */
 116:Core/Src/main_unique.c ****     EV_CMD_MODE_X,     /* 'x' recibido por UART                      */
 117:Core/Src/main_unique.c ****     EV_CMD_MODE_Y,     /* 'y' recibido por UART                      */
 118:Core/Src/main_unique.c ****     EV_CMD_INC,        /* '+' recibido por UART                      */
 119:Core/Src/main_unique.c ****     EV_CMD_DEC,        /* '-' recibido por UART                      */
 120:Core/Src/main_unique.c ****     EV_CMD_MCO_HSI,    /* 'h' recibido por UART                      */
 121:Core/Src/main_unique.c ****     EV_CMD_MCO_LSE,    /* 'l' recibido por UART                      */
 122:Core/Src/main_unique.c ****     EV_CMD_MCO_PLL,    /* 'p' recibido por UART                      */
 123:Core/Src/main_unique.c ****     EV_CMD_HELP,       /* '?' recibido por UART                      */
 124:Core/Src/main_unique.c ****     EV_CMD_DIAG,       /* 'd': informe de estado de los perifericos  */
 125:Core/Src/main_unique.c ****     EV_CMD_SCAN,       /* 's': sondeo completo del bus I2C           */
 126:Core/Src/main_unique.c ****     EV_BUTTON,         /* pulsador del joystick (EXTI)               */
 127:Core/Src/main_unique.c ****     EV_TICK_100MS,     /* desbordamiento de TIM4                     */
 128:Core/Src/main_unique.c ****     EV_SECOND,         /* despertador del RTC, una vez por segundo   */
 129:Core/Src/main_unique.c ****     EV_COUNT
 130:Core/Src/main_unique.c **** } fsm_event_t;
 131:Core/Src/main_unique.c **** 
 132:Core/Src/main_unique.c **** /* ==========================================================================
 133:Core/Src/main_unique.c ****  * 3. Manejadores globales de periferico
 134:Core/Src/main_unique.c ****  *    Son globales porque las ISR y varios modulos necesitan alcanzarlos.
 135:Core/Src/main_unique.c ****  * ========================================================================== */
 136:Core/Src/main_unique.c **** UART_HandleTypeDef huart2;
 137:Core/Src/main_unique.c **** ADC_HandleTypeDef  hadc1;
 138:Core/Src/main_unique.c **** I2C_HandleTypeDef  hi2c1;
 139:Core/Src/main_unique.c **** RTC_HandleTypeDef  hrtc;
 140:Core/Src/main_unique.c **** TIM_HandleTypeDef  htim3;   /* base de 250 ms para el LED */
 141:Core/Src/main_unique.c **** TIM_HandleTypeDef  htim4;   /* base de 100 ms del sistema */
 142:Core/Src/main_unique.c **** 
 143:Core/Src/main_unique.c **** /* ==========================================================================
 144:Core/Src/main_unique.c ****  * 4. Prototipos
ARM GAS  /tmp/ccjBgtoi.s 			page 4


 145:Core/Src/main_unique.c ****  *    Al no haber cabeceras, se declaran aqui todas las funciones para que el
 146:Core/Src/main_unique.c ****  *    orden de definicion dentro del archivo no imponga restricciones.
 147:Core/Src/main_unique.c ****  * ========================================================================== */
 148:Core/Src/main_unique.c **** 
 149:Core/Src/main_unique.c **** /* --- comun --------------------------------------------------------------- */
 150:Core/Src/main_unique.c **** void        Error_Handler(void);
 151:Core/Src/main_unique.c **** 
 152:Core/Src/main_unique.c **** /* --- system_clock -------------------------------------------------------- */
 153:Core/Src/main_unique.c **** void        system_clock_init(void);
 154:Core/Src/main_unique.c **** void        system_clock_mco_set(mco_src_t src);
 155:Core/Src/main_unique.c **** mco_src_t   system_clock_mco_get(void);
 156:Core/Src/main_unique.c **** const char *system_clock_mco_label(void);
 157:Core/Src/main_unique.c **** uint32_t    system_clock_mco_freq(void);
 158:Core/Src/main_unique.c **** uint8_t     system_clock_lse_ok(void);
 159:Core/Src/main_unique.c **** 
 160:Core/Src/main_unique.c **** /* --- gpio ---------------------------------------------------------------- */
 161:Core/Src/main_unique.c **** void        gpio_init(void);
 162:Core/Src/main_unique.c **** void        gpio_led_toggle(void);
 163:Core/Src/main_unique.c **** void        gpio_led_write(uint8_t on);
 164:Core/Src/main_unique.c **** 
 165:Core/Src/main_unique.c **** /* --- uart ---------------------------------------------------------------- */
 166:Core/Src/main_unique.c **** void        uart_init(void);
 167:Core/Src/main_unique.c **** void        uart_send(const char *s);
 168:Core/Src/main_unique.c **** void        uart_send_line(const char *s);
 169:Core/Src/main_unique.c **** 
 170:Core/Src/main_unique.c **** /* --- adc_joystick -------------------------------------------------------- */
 171:Core/Src/main_unique.c **** void        adc_joystick_init(void);
 172:Core/Src/main_unique.c **** void        adc_joystick_start(void);
 173:Core/Src/main_unique.c **** uint16_t    adc_joystick_raw_x(void);
 174:Core/Src/main_unique.c **** uint16_t    adc_joystick_raw_y(void);
 175:Core/Src/main_unique.c **** int8_t      adc_joystick_dir_x(void);
 176:Core/Src/main_unique.c **** int8_t      adc_joystick_dir_y(void);
 177:Core/Src/main_unique.c **** 
 178:Core/Src/main_unique.c **** /* --- rtc ----------------------------------------------------------------- */
 179:Core/Src/main_unique.c **** void        rtc_init(void);
 180:Core/Src/main_unique.c **** void        rtc_get_time(RTC_TimeTypeDef *t, RTC_DateTypeDef *d);
 181:Core/Src/main_unique.c **** void        rtc_format_line(char *dst, uint8_t len);
 182:Core/Src/main_unique.c **** 
 183:Core/Src/main_unique.c **** /* --- i2c_lcd ------------------------------------------------------------- */
 184:Core/Src/main_unique.c **** void        lcd_init(void);
 185:Core/Src/main_unique.c **** void        lcd_clear(void);
 186:Core/Src/main_unique.c **** void        lcd_set_cursor(uint8_t row, uint8_t col);
 187:Core/Src/main_unique.c **** void        lcd_print(const char *s);
 188:Core/Src/main_unique.c **** void        lcd_print_line(uint8_t row, const char *s);
 189:Core/Src/main_unique.c **** uint8_t     lcd_is_present(void);
 190:Core/Src/main_unique.c **** uint8_t     lcd_address(void);
 191:Core/Src/main_unique.c **** uint32_t    lcd_error_count(void);
 192:Core/Src/main_unique.c **** void        lcd_bus_scan_report(void);
 193:Core/Src/main_unique.c **** 
 194:Core/Src/main_unique.c **** /* --- timer --------------------------------------------------------------- */
 195:Core/Src/main_unique.c **** void        timer_init(void);
 196:Core/Src/main_unique.c **** 
 197:Core/Src/main_unique.c **** /* --- fsm ----------------------------------------------------------------- */
 198:Core/Src/main_unique.c **** void        fsm_init(void);
 199:Core/Src/main_unique.c **** void        fsm_post_event(fsm_event_t ev);
 200:Core/Src/main_unique.c **** void        fsm_run(void);
 201:Core/Src/main_unique.c **** fsm_state_t fsm_get_state(void);
ARM GAS  /tmp/ccjBgtoi.s 			page 5


 202:Core/Src/main_unique.c **** 
 203:Core/Src/main_unique.c **** /* --- rutinas de servicio de interrupcion (nombres fijados por el startup) - */
 204:Core/Src/main_unique.c **** /*
 205:Core/Src/main_unique.c **** void NMI_Handler(void);
 206:Core/Src/main_unique.c **** void HardFault_Handler(void);
 207:Core/Src/main_unique.c **** void MemManage_Handler(void);
 208:Core/Src/main_unique.c **** void BusFault_Handler(void);
 209:Core/Src/main_unique.c **** void UsageFault_Handler(void);
 210:Core/Src/main_unique.c **** void SVC_Handler(void);
 211:Core/Src/main_unique.c **** void DebugMon_Handler(void);
 212:Core/Src/main_unique.c **** void PendSV_Handler(void);
 213:Core/Src/main_unique.c **** */
 214:Core/Src/main_unique.c **** void SysTick_Handler(void);
 215:Core/Src/main_unique.c **** void USART2_IRQHandler(void);
 216:Core/Src/main_unique.c **** void ADC_IRQHandler(void);
 217:Core/Src/main_unique.c **** void TIM3_IRQHandler(void);
 218:Core/Src/main_unique.c **** void TIM4_IRQHandler(void);
 219:Core/Src/main_unique.c **** void EXTI9_5_IRQHandler(void);
 220:Core/Src/main_unique.c **** void RTC_WKUP_IRQHandler(void);
 221:Core/Src/main_unique.c **** 
 222:Core/Src/main_unique.c **** /* ==========================================================================
 223:Core/Src/main_unique.c ****  * 5. MODULO system_clock
 224:Core/Src/main_unique.c ****  *
 225:Core/Src/main_unique.c ****  * Cadena de reloj implementada:
 226:Core/Src/main_unique.c ****  *
 227:Core/Src/main_unique.c ****  *   HSI (16 MHz) --> /PLLM=8 --> 2 MHz --> xPLLN=100 --> VCO 200 MHz
 228:Core/Src/main_unique.c ****  *                                                  --> /PLLP=2 --> 100 MHz = SYSCLK
 229:Core/Src/main_unique.c ****  *
 230:Core/Src/main_unique.c ****  *   AHB  = SYSCLK / 1 = 100 MHz   (limite del F411: 100 MHz)
 231:Core/Src/main_unique.c ****  *   APB1 = SYSCLK / 2 =  50 MHz   (limite del F411:  50 MHz)
 232:Core/Src/main_unique.c ****  *   APB2 = SYSCLK / 1 = 100 MHz   (limite del F411: 100 MHz)
 233:Core/Src/main_unique.c ****  *
 234:Core/Src/main_unique.c ****  * Se elige HSI y no HSE como fuente del PLL por dos razones:
 235:Core/Src/main_unique.c ****  *   1. El LED exigido esta en PH1, que es el pin OSC_OUT del HSE. Usando HSI
 236:Core/Src/main_unique.c ****  *      el puerto GPIOH queda completamente libre.
 237:Core/Src/main_unique.c ****  *   2. En la Nucleo-F411RE el HSE proviene del MCO del ST-LINK (8 MHz) y
 238:Core/Src/main_unique.c ****  *      depende de la configuracion de los puentes SB54/SB55.
 239:Core/Src/main_unique.c ****  * ========================================================================== */
 240:Core/Src/main_unique.c **** 
 241:Core/Src/main_unique.c **** /* Fuente actualmente enrutada a MCO1 */
 242:Core/Src/main_unique.c **** static mco_src_t s_mco_src  = MCO_SRC_PLL;
 243:Core/Src/main_unique.c **** 
 244:Core/Src/main_unique.c **** /* Frecuencia real medida en PA8 tras aplicar el prescaler, en hercios */
 245:Core/Src/main_unique.c **** static uint32_t  s_mco_freq = 20000000U;
 246:Core/Src/main_unique.c **** 
 247:Core/Src/main_unique.c **** /* 1 si el cristal LSE arranco correctamente; 0 si no esta montado o no oscila */
 248:Core/Src/main_unique.c **** static uint8_t   s_lse_ok   = 0;
 249:Core/Src/main_unique.c **** 
 250:Core/Src/main_unique.c **** /*
 251:Core/Src/main_unique.c ****  * system_clock_init
 252:Core/Src/main_unique.c ****  * Configura la alimentacion, la latencia de FLASH, los osciladores y los buses.
 253:Core/Src/main_unique.c ****  * Debe llamarse inmediatamente despues de HAL_Init() y antes de cualquier
 254:Core/Src/main_unique.c ****  * inicializacion de periferico.
 255:Core/Src/main_unique.c ****  */
 256:Core/Src/main_unique.c **** void system_clock_init(void)
 257:Core/Src/main_unique.c **** {
 258:Core/Src/main_unique.c ****     RCC_OscInitTypeDef osc = {0};   /* configuracion de osciladores */
ARM GAS  /tmp/ccjBgtoi.s 			page 6


 259:Core/Src/main_unique.c ****     RCC_ClkInitTypeDef clk = {0};   /* configuracion de buses       */
 260:Core/Src/main_unique.c **** 
 261:Core/Src/main_unique.c ****     /* --- 1. Alimentacion del regulador interno -------------------------- */
 262:Core/Src/main_unique.c ****     /* Habilita el reloj del bloque PWR: sin el no se puede escribir en PWR->CR */
 263:Core/Src/main_unique.c ****     __HAL_RCC_PWR_CLK_ENABLE();
 264:Core/Src/main_unique.c **** 
 265:Core/Src/main_unique.c ****     /* Escala de voltaje 1: unica que admite 100 MHz en el F411.
 266:Core/Src/main_unique.c ****        Alternativas: SCALE2 (hasta 84 MHz) y SCALE3 (hasta 64 MHz), que
 267:Core/Src/main_unique.c ****        consumen menos corriente pero limitan la frecuencia maxima. */
 268:Core/Src/main_unique.c ****     __HAL_PWR_VOLTAGESCALING_CONFIG(PWR_REGULATOR_VOLTAGE_SCALE1);
 269:Core/Src/main_unique.c **** 
 270:Core/Src/main_unique.c ****     /* Permite escribir en el dominio de respaldo (Backup Domain), necesario
 271:Core/Src/main_unique.c ****        para arrancar el LSE y para configurar el RTC. */
 272:Core/Src/main_unique.c ****     HAL_PWR_EnableBkUpAccess();
 273:Core/Src/main_unique.c **** 
 274:Core/Src/main_unique.c ****     /* --- 2. Oscilador HSI y PLL (critico) ------------------------------- */
 275:Core/Src/main_unique.c ****     /* El LSE se configura APARTE, mas abajo. Motivo: muchas placas
 276:Core/Src/main_unique.c ****        NUCLEO-F411RE se sirven sin el cristal X2 de 32.768 kHz montado. Si el
 277:Core/Src/main_unique.c ****        LSE se configurase en la misma llamada, su fallo abortaria tambien la
 278:Core/Src/main_unique.c ****        configuracion del PLL y el sistema entero quedaria detenido en
 279:Core/Src/main_unique.c ****        Error_Handler, sin LCD, sin UART y sin LED de 250 ms. */
 280:Core/Src/main_unique.c ****     osc.OscillatorType      = RCC_OSCILLATORTYPE_HSI;
 281:Core/Src/main_unique.c ****     osc.HSIState            = RCC_HSI_ON;                 /* enciende el HSI  */
 282:Core/Src/main_unique.c ****     osc.HSICalibrationValue = RCC_HSICALIBRATION_DEFAULT; /* trim de fabrica  */
 283:Core/Src/main_unique.c **** 
 284:Core/Src/main_unique.c ****     osc.PLL.PLLState  = RCC_PLL_ON;              /* activa el PLL       */
 285:Core/Src/main_unique.c ****     osc.PLL.PLLSource = RCC_PLLSOURCE_HSI;       /* entrada del PLL     */
 286:Core/Src/main_unique.c ****     osc.PLL.PLLM      = 8U;    /* divisor de entrada: 16 MHz / 8 = 2 MHz.
 287:Core/Src/main_unique.c ****                                   La entrada al VCO debe quedar entre
 288:Core/Src/main_unique.c ****                                   1 y 2 MHz; 2 MHz minimiza el jitter */
 289:Core/Src/main_unique.c ****     osc.PLL.PLLN      = 100U;  /* multiplicador: 2 MHz * 100 = 200 MHz.
 290:Core/Src/main_unique.c ****                                   El VCO debe quedar entre 100 y 432 MHz */
 291:Core/Src/main_unique.c ****     osc.PLL.PLLP      = RCC_PLLP_DIV2; /* 200 MHz / 2 = 100 MHz = SYSCLK.
 292:Core/Src/main_unique.c ****                                   Valores posibles: DIV2, DIV4, DIV6, DIV8 */
 293:Core/Src/main_unique.c ****     osc.PLL.PLLQ      = 4U;    /* rama para USB/SDIO: 200 MHz / 4 = 50 MHz.
 294:Core/Src/main_unique.c ****                                   No se usa en este proyecto, pero la HAL
 295:Core/Src/main_unique.c ****                                   exige un valor valido (2..15) */
 296:Core/Src/main_unique.c **** 
 297:Core/Src/main_unique.c ****     if (HAL_RCC_OscConfig(&osc) != HAL_OK) {
 298:Core/Src/main_unique.c ****         Error_Handler();       /* fallo del PLL: este si es irrecuperable */
 299:Core/Src/main_unique.c ****     }
 300:Core/Src/main_unique.c **** 
 301:Core/Src/main_unique.c ****     /* --- 3. Buses del sistema ------------------------------------------- */
 302:Core/Src/main_unique.c ****     /* Se indican los cuatro relojes que se van a modificar */
 303:Core/Src/main_unique.c ****     clk.ClockType      = RCC_CLOCKTYPE_HCLK  | RCC_CLOCKTYPE_SYSCLK |
 304:Core/Src/main_unique.c ****                          RCC_CLOCKTYPE_PCLK1 | RCC_CLOCKTYPE_PCLK2;
 305:Core/Src/main_unique.c ****     clk.SYSCLKSource   = RCC_SYSCLKSOURCE_PLLCLK; /* el PLL alimenta el sistema */
 306:Core/Src/main_unique.c ****     clk.AHBCLKDivider  = RCC_SYSCLK_DIV1;         /* HCLK  = 100 MHz            */
 307:Core/Src/main_unique.c ****     clk.APB1CLKDivider = RCC_HCLK_DIV2;           /* PCLK1 =  50 MHz (maximo)   */
 308:Core/Src/main_unique.c ****     clk.APB2CLKDivider = RCC_HCLK_DIV1;           /* PCLK2 = 100 MHz            */
 309:Core/Src/main_unique.c **** 
 310:Core/Src/main_unique.c ****     /* FLASH_LATENCY_3 = 3 estados de espera.
 311:Core/Src/main_unique.c ****        A 3.3 V la FLASH admite 30 MHz por estado de espera:
 312:Core/Src/main_unique.c ****          0 WS <= 30 MHz, 1 WS <= 60 MHz, 2 WS <= 90 MHz, 3 WS <= 100 MHz.
 313:Core/Src/main_unique.c ****        Un valor menor al necesario provoca lecturas erroneas de instrucciones. */
 314:Core/Src/main_unique.c ****     if (HAL_RCC_ClockConfig(&clk, FLASH_LATENCY_3) != HAL_OK) {
 315:Core/Src/main_unique.c ****         Error_Handler();
ARM GAS  /tmp/ccjBgtoi.s 			page 7


 316:Core/Src/main_unique.c ****     }
 317:Core/Src/main_unique.c **** 
 318:Core/Src/main_unique.c ****     /* Actualiza la variable global SystemCoreClock y reprograma el SysTick
 319:Core/Src/main_unique.c ****        para que siga generando interrupciones cada 1 ms con el nuevo HCLK. */
 320:Core/Src/main_unique.c ****     SystemCoreClockUpdate();
 321:Core/Src/main_unique.c ****     HAL_InitTick(TICK_INT_PRIORITY);
 322:Core/Src/main_unique.c **** 
 323:Core/Src/main_unique.c ****     /* --- 4. Cristal LSE de 32.768 kHz (NO critico) ----------------------- */
 324:Core/Src/main_unique.c ****     /* Se intenta arrancar por separado. Si el cristal no esta montado o no
 325:Core/Src/main_unique.c ****        oscila, la llamada agota LSE_STARTUP_TIMEOUT (5 s por defecto) y
 326:Core/Src/main_unique.c ****        devuelve error, pero el sistema CONTINUA: el RTC recurrira al LSI y el
 327:Core/Src/main_unique.c ****        resto de funciones queda intacto. El diagnostico se emite por UART. */
 328:Core/Src/main_unique.c ****     osc.OscillatorType = RCC_OSCILLATORTYPE_LSE;
 329:Core/Src/main_unique.c ****     osc.PLL.PLLState   = RCC_PLL_NONE;   /* no volver a tocar el PLL ya activo */
 330:Core/Src/main_unique.c ****     osc.LSEState       = RCC_LSE_ON;
 331:Core/Src/main_unique.c ****     /* Alternativa: RCC_LSE_BYPASS si se inyecta un reloj externo ya generado */
 332:Core/Src/main_unique.c **** 
 333:Core/Src/main_unique.c ****     s_lse_ok = (HAL_RCC_OscConfig(&osc) == HAL_OK) ? 1U : 0U;
 334:Core/Src/main_unique.c **** 
 335:Core/Src/main_unique.c ****     if (!s_lse_ok) {
 336:Core/Src/main_unique.c ****         /* Reserva: oscilador interno de baja velocidad. Permite que el RTC
 337:Core/Src/main_unique.c ****            siga contando y que el equipo sea diagnosticable, pero NO cumple el
 338:Core/Src/main_unique.c ****            enunciado: el LSI se detiene al desaparecer VDD, de modo que la
 339:Core/Src/main_unique.c ****            hora no sobrevive a la perdida de alimentacion. La causa debe
 340:Core/Src/main_unique.c ****            corregirse en el hardware (cristal X2 y puentes SB48/SB49). */
 341:Core/Src/main_unique.c ****         osc.OscillatorType = RCC_OSCILLATORTYPE_LSI;
 342:Core/Src/main_unique.c ****         osc.PLL.PLLState   = RCC_PLL_NONE;
 343:Core/Src/main_unique.c ****         osc.LSIState       = RCC_LSI_ON;
 344:Core/Src/main_unique.c ****         HAL_RCC_OscConfig(&osc);
 345:Core/Src/main_unique.c ****     }
 346:Core/Src/main_unique.c **** 
 347:Core/Src/main_unique.c ****     /* --- 5. Salida MCO1 por defecto ------------------------------------- */
 348:Core/Src/main_unique.c ****     system_clock_mco_set(MCO_SRC_PLL);
 349:Core/Src/main_unique.c **** }
 350:Core/Src/main_unique.c **** 
 351:Core/Src/main_unique.c **** /*
 352:Core/Src/main_unique.c ****  * system_clock_mco_set
 353:Core/Src/main_unique.c ****  * Enruta la fuente indicada al pin PA8 (MCO1) con el mejor prescaler posible.
 354:Core/Src/main_unique.c ****  *
 355:Core/Src/main_unique.c ****  * Criterio de "mejor prescaler": la menor division que mantenga la senal
 356:Core/Src/main_unique.c ****  * medible con un osciloscopio o analizador logico corriente.
 357:Core/Src/main_unique.c ****  *   - HSI 16 MHz     -> /1 = 16 MHz     (sin division, se observa integra)
 358:Core/Src/main_unique.c ****  *   - LSE 32.768 kHz -> /1 = 32.768 kHz (dividirla la haria irreconocible)
 359:Core/Src/main_unique.c ****  *   - PLL 100 MHz    -> /5 = 20 MHz     (/5 es la maxima division disponible;
 360:Core/Src/main_unique.c ****  *                                        reduce el slew rate exigido al pin y
 361:Core/Src/main_unique.c ****  *                                        evita el deterioro del flanco que
 362:Core/Src/main_unique.c ****  *                                        presenta la salida directa a 100 MHz)
 363:Core/Src/main_unique.c ****  *
 364:Core/Src/main_unique.c ****  * HAL_RCC_MCOConfig se encarga internamente de habilitar el reloj de GPIOA y
 365:Core/Src/main_unique.c ****  * de configurar PA8 como funcion alternativa AF0 a muy alta velocidad.
 366:Core/Src/main_unique.c ****  */
 367:Core/Src/main_unique.c **** void system_clock_mco_set(mco_src_t src)
 368:Core/Src/main_unique.c **** {
 369:Core/Src/main_unique.c ****     switch (src) {
 370:Core/Src/main_unique.c **** 
 371:Core/Src/main_unique.c ****     case MCO_SRC_HSI:
 372:Core/Src/main_unique.c ****         HAL_RCC_MCOConfig(RCC_MCO1, RCC_MCO1SOURCE_HSI, RCC_MCODIV_1);
ARM GAS  /tmp/ccjBgtoi.s 			page 8


 373:Core/Src/main_unique.c ****         s_mco_freq = HSI_VALUE;              /* 16 000 000 Hz */
 374:Core/Src/main_unique.c ****         break;
 375:Core/Src/main_unique.c **** 
 376:Core/Src/main_unique.c ****     case MCO_SRC_LSE:
 377:Core/Src/main_unique.c ****         HAL_RCC_MCOConfig(RCC_MCO1, RCC_MCO1SOURCE_LSE, RCC_MCODIV_1);
 378:Core/Src/main_unique.c ****         /* Si el cristal no oscila, MCO1 queda en reposo: se refleja con una
 379:Core/Src/main_unique.c ****            frecuencia de 0 para que el informe por UART no sea enganoso. */
 380:Core/Src/main_unique.c ****         s_mco_freq = s_lse_ok ? LSE_VALUE : 0U;
 381:Core/Src/main_unique.c ****         break;
 382:Core/Src/main_unique.c **** 
 383:Core/Src/main_unique.c ****     case MCO_SRC_PLL:
 384:Core/Src/main_unique.c ****     default:
 385:Core/Src/main_unique.c ****         HAL_RCC_MCOConfig(RCC_MCO1, RCC_MCO1SOURCE_PLLCLK, RCC_MCODIV_5);
 386:Core/Src/main_unique.c ****         s_mco_freq = HAL_RCC_GetSysClockFreq() / 5U;  /* 100 MHz / 5 = 20 MHz */
 387:Core/Src/main_unique.c ****         src = MCO_SRC_PLL;                   /* normaliza el valor guardado  */
 388:Core/Src/main_unique.c ****         break;
 389:Core/Src/main_unique.c ****     }
 390:Core/Src/main_unique.c **** 
 391:Core/Src/main_unique.c ****     s_mco_src = src;   /* memoriza la seleccion para consultarla despues */
 392:Core/Src/main_unique.c **** }
 393:Core/Src/main_unique.c **** 
 394:Core/Src/main_unique.c **** /* Devuelve la fuente MCO1 activa. */
 395:Core/Src/main_unique.c **** mco_src_t system_clock_mco_get(void)
 396:Core/Src/main_unique.c **** {
 397:Core/Src/main_unique.c ****     return s_mco_src;
 398:Core/Src/main_unique.c **** }
 399:Core/Src/main_unique.c **** 
 400:Core/Src/main_unique.c **** /* Devuelve una cadena corta describiendo la senal presente en PA8. */
 401:Core/Src/main_unique.c **** const char *system_clock_mco_label(void)
 402:Core/Src/main_unique.c **** {
 403:Core/Src/main_unique.c ****     switch (s_mco_src) {
 404:Core/Src/main_unique.c ****     case MCO_SRC_HSI: return "MCO1:HSI 16MHz";
 405:Core/Src/main_unique.c ****     case MCO_SRC_LSE: return s_lse_ok ? "MCO1:LSE 32768" : "MCO1:LSE NO OSC";
 406:Core/Src/main_unique.c ****     case MCO_SRC_PLL: return "MCO1:PLL 20MHz";
 407:Core/Src/main_unique.c ****     default:          return "MCO1:?";
 408:Core/Src/main_unique.c ****     }
 409:Core/Src/main_unique.c **** }
 410:Core/Src/main_unique.c **** 
 411:Core/Src/main_unique.c **** /* Indica si el LSE llego a oscilar. Lo consultan el RTC y el diagnostico. */
 412:Core/Src/main_unique.c **** uint8_t system_clock_lse_ok(void)
 413:Core/Src/main_unique.c **** {
 414:Core/Src/main_unique.c ****     return s_lse_ok;
 415:Core/Src/main_unique.c **** }
 416:Core/Src/main_unique.c **** 
 417:Core/Src/main_unique.c **** /* Devuelve la frecuencia real presente en PA8, en hercios. */
 418:Core/Src/main_unique.c **** uint32_t system_clock_mco_freq(void)
 419:Core/Src/main_unique.c **** {
 420:Core/Src/main_unique.c ****     return s_mco_freq;
 421:Core/Src/main_unique.c **** }
 422:Core/Src/main_unique.c **** 
 423:Core/Src/main_unique.c **** /* ==========================================================================
 424:Core/Src/main_unique.c ****  * 6. MODULO gpio
 425:Core/Src/main_unique.c ****  *    Pines discretos: LED en PH1 y pulsador SW del joystick en PB5.
 426:Core/Src/main_unique.c ****  *    Los pines de periferico (ADC, UART, I2C, MCO) se configuran en la
 427:Core/Src/main_unique.c ****  *    seccion del MSP, que es el lugar que la HAL reserva para ello.
 428:Core/Src/main_unique.c ****  * ========================================================================== */
 429:Core/Src/main_unique.c **** 
ARM GAS  /tmp/ccjBgtoi.s 			page 9


 430:Core/Src/main_unique.c **** /*
 431:Core/Src/main_unique.c ****  * gpio_init
 432:Core/Src/main_unique.c ****  * Habilita los relojes de los puertos implicados y configura cada pin.
 433:Core/Src/main_unique.c ****  * Nota: en el STM32F4 los relojes de periferico estan apagados tras el reset;
 434:Core/Src/main_unique.c ****  * escribir en los registros de un puerto sin reloj no produce ningun efecto
 435:Core/Src/main_unique.c ****  * y tampoco genera error, lo que hace que el fallo sea dificil de detectar.
 436:Core/Src/main_unique.c ****  */
 437:Core/Src/main_unique.c **** void gpio_init(void)
 438:Core/Src/main_unique.c **** {
 439:Core/Src/main_unique.c ****     GPIO_InitTypeDef gi = {0};   /* estructura de configuracion de pin */
 440:Core/Src/main_unique.c **** 
 441:Core/Src/main_unique.c ****     /* --- Relojes de los puertos utilizados ----------------------------- */
 442:Core/Src/main_unique.c ****     __HAL_RCC_GPIOH_CLK_ENABLE();   /* puerto H: LED en PH1               */
 443:Core/Src/main_unique.c ****     __HAL_RCC_GPIOB_CLK_ENABLE();   /* puerto B: pulsador en PB5          */
 444:Core/Src/main_unique.c **** 
 445:Core/Src/main_unique.c ****     /* --- LED en PH1 ----------------------------------------------------- */
 446:Core/Src/main_unique.c ****     /* Estado inicial apagado, escrito antes de configurar el pin como salida
 447:Core/Src/main_unique.c ****        para evitar un pulso espurio al habilitar el driver de salida. */
 448:Core/Src/main_unique.c ****     HAL_GPIO_WritePin(LED_GPIO_PORT, LED_PIN, GPIO_PIN_RESET);
 449:Core/Src/main_unique.c **** 
 450:Core/Src/main_unique.c ****     gi.Pin   = LED_PIN;
 451:Core/Src/main_unique.c ****     gi.Mode  = GPIO_MODE_OUTPUT_PP;  /* push-pull: el pin puede forzar 0 y 1.
 452:Core/Src/main_unique.c ****                                         Alternativa: GPIO_MODE_OUTPUT_OD
 453:Core/Src/main_unique.c ****                                         (drenador abierto), que solo fuerza 0 */
 454:Core/Src/main_unique.c ****     gi.Pull  = GPIO_NOPULL;          /* sin resistencias internas: es salida  */
 455:Core/Src/main_unique.c ****     gi.Speed = GPIO_SPEED_FREQ_LOW;  /* 2 MHz basta para 4 Hz; velocidades
 456:Core/Src/main_unique.c ****                                         mayores solo aumentan el ruido y el
 457:Core/Src/main_unique.c ****                                         consumo. Alternativas: MEDIUM, HIGH,
 458:Core/Src/main_unique.c ****                                         VERY_HIGH */
 459:Core/Src/main_unique.c ****     HAL_GPIO_Init(LED_GPIO_PORT, &gi);
 460:Core/Src/main_unique.c **** 
 461:Core/Src/main_unique.c ****     /* --- Pulsador SW del joystick en PB5 -------------------------------- */
 462:Core/Src/main_unique.c ****     gi.Pin  = JOY_SW_PIN;
 463:Core/Src/main_unique.c ****     gi.Mode = GPIO_MODE_IT_FALLING;  /* interrupcion en flanco de bajada.
 464:Core/Src/main_unique.c ****                                         El SW del joystick cortocircuita el
 465:Core/Src/main_unique.c ****                                         pin a GND al pulsarlo. Alternativas:
 466:Core/Src/main_unique.c ****                                         IT_RISING, IT_RISING_FALLING */
 467:Core/Src/main_unique.c ****     gi.Pull = GPIO_PULLUP;           /* pull-up interna: el pin reposa en 1
 468:Core/Src/main_unique.c ****                                         y cae a 0 al pulsar. Evita anadir una
 469:Core/Src/main_unique.c ****                                         resistencia externa */
 470:Core/Src/main_unique.c ****     HAL_GPIO_Init(JOY_SW_GPIO_PORT, &gi);
 471:Core/Src/main_unique.c **** 
 472:Core/Src/main_unique.c ****     /* --- Habilitacion de la interrupcion en el NVIC ---------------------- */
 473:Core/Src/main_unique.c ****     /* Prioridad de expropiacion 8, subprioridad 0. Valor alto = prioridad
 474:Core/Src/main_unique.c ****        baja: el pulsador no debe interferir con la UART ni con el ADC. */
 475:Core/Src/main_unique.c ****     HAL_NVIC_SetPriority(JOY_SW_EXTI_IRQn, 8, 0);
 476:Core/Src/main_unique.c ****     HAL_NVIC_EnableIRQ(JOY_SW_EXTI_IRQn);
 477:Core/Src/main_unique.c **** }
 478:Core/Src/main_unique.c **** 
 479:Core/Src/main_unique.c **** /* Invierte el nivel logico del LED. Se llama desde la ISR de TIM3. */
 480:Core/Src/main_unique.c **** void gpio_led_toggle(void)
 481:Core/Src/main_unique.c **** {
 482:Core/Src/main_unique.c ****     HAL_GPIO_TogglePin(LED_GPIO_PORT, LED_PIN);
 483:Core/Src/main_unique.c **** }
 484:Core/Src/main_unique.c **** 
 485:Core/Src/main_unique.c **** /* Fija el LED a un estado concreto: on distinto de 0 lo enciende. */
 486:Core/Src/main_unique.c **** void gpio_led_write(uint8_t on)
ARM GAS  /tmp/ccjBgtoi.s 			page 10


 487:Core/Src/main_unique.c **** {
 488:Core/Src/main_unique.c ****     HAL_GPIO_WritePin(LED_GPIO_PORT, LED_PIN,
 489:Core/Src/main_unique.c ****                       on ? GPIO_PIN_SET : GPIO_PIN_RESET);
 490:Core/Src/main_unique.c **** }
 491:Core/Src/main_unique.c **** 
 492:Core/Src/main_unique.c **** /* ==========================================================================
 493:Core/Src/main_unique.c ****  * 7. MODULO uart
 494:Core/Src/main_unique.c ****  *    USART2 a 115200 baudios, totalmente gobernada por interrupciones.
 495:Core/Src/main_unique.c ****  *
 496:Core/Src/main_unique.c ****  *    En la Nucleo-F411RE la USART2 esta cableada al depurador ST-LINK, que la
 497:Core/Src/main_unique.c ****  *    expone en el ordenador como puerto virtual (/dev/ttyACM0 en Linux).
 498:Core/Src/main_unique.c ****  *      PA2 -> USART2_TX     PA3 -> USART2_RX
 499:Core/Src/main_unique.c ****  *
 500:Core/Src/main_unique.c ****  *    Comandos aceptados (un solo caracter, sin pulsar Enter):
 501:Core/Src/main_unique.c ****  *      c  coordenadas a cero     x  modo X          y  modo Y
 502:Core/Src/main_unique.c ****  *      +  incrementa             -  decrementa
 503:Core/Src/main_unique.c ****  *      h  MCO1 = HSI             l  MCO1 = LSE      p  MCO1 = PLL
 504:Core/Src/main_unique.c ****  *      d  diagnostico            s  sondeo I2C      ?  ayuda
 505:Core/Src/main_unique.c ****  * ========================================================================== */
 506:Core/Src/main_unique.c **** 
 507:Core/Src/main_unique.c **** /* Byte donde la HAL deposita cada caracter recibido */
 508:Core/Src/main_unique.c **** static volatile uint8_t  s_rx_byte;
 509:Core/Src/main_unique.c **** 
 510:Core/Src/main_unique.c **** /* --- Buffer circular de transmision -------------------------------------- */
 511:Core/Src/main_unique.c **** static volatile uint8_t  s_tx_buf[UART_TX_BUF_SIZE];
 512:Core/Src/main_unique.c **** static volatile uint16_t s_tx_head = 0;   /* posicion de escritura */
 513:Core/Src/main_unique.c **** static volatile uint16_t s_tx_tail = 0;   /* posicion de lectura   */
 514:Core/Src/main_unique.c **** static volatile uint8_t  s_tx_busy = 0;   /* 1 si hay un envio en curso */
 515:Core/Src/main_unique.c **** 
 516:Core/Src/main_unique.c **** /* Byte que se esta transmitiendo en este momento */
 517:Core/Src/main_unique.c **** static volatile uint8_t  s_tx_current;
 518:Core/Src/main_unique.c **** 
 519:Core/Src/main_unique.c **** /*
 520:Core/Src/main_unique.c ****  * uart_start_tx
 521:Core/Src/main_unique.c ****  * Si el buffer no esta vacio y no hay transmision en curso, extrae un byte
 522:Core/Src/main_unique.c ****  * y lo entrega a la HAL. Se llama tanto desde el hilo principal como desde
 523:Core/Src/main_unique.c ****  * la interrupcion de fin de transmision.
 524:Core/Src/main_unique.c ****  */
 525:Core/Src/main_unique.c **** static void uart_start_tx(void)
 526:Core/Src/main_unique.c **** {
 527:Core/Src/main_unique.c ****     if (s_tx_busy || (s_tx_head == s_tx_tail)) {
 528:Core/Src/main_unique.c ****         return;   /* ya hay un envio activo, o no queda nada por enviar */
 529:Core/Src/main_unique.c ****     }
 530:Core/Src/main_unique.c ****     s_tx_current = s_tx_buf[s_tx_tail];
 531:Core/Src/main_unique.c ****     s_tx_tail    = (uint16_t)((s_tx_tail + 1U) % UART_TX_BUF_SIZE);
 532:Core/Src/main_unique.c ****     s_tx_busy    = 1U;
 533:Core/Src/main_unique.c **** 
 534:Core/Src/main_unique.c ****     HAL_UART_Transmit_IT(&huart2, (uint8_t *)&s_tx_current, 1U);
 535:Core/Src/main_unique.c **** }
 536:Core/Src/main_unique.c **** 
 537:Core/Src/main_unique.c **** void uart_init(void)
 538:Core/Src/main_unique.c **** {
 539:Core/Src/main_unique.c ****     __HAL_RCC_USART2_CLK_ENABLE();
 540:Core/Src/main_unique.c **** 
 541:Core/Src/main_unique.c ****     huart2.Instance        = USART2;
 542:Core/Src/main_unique.c ****     huart2.Init.BaudRate   = 115200U;   /* velocidad estandar; el ST-LINK
 543:Core/Src/main_unique.c ****                                     admite hasta 1 Mbaudio */
ARM GAS  /tmp/ccjBgtoi.s 			page 11


 544:Core/Src/main_unique.c ****     huart2.Init.WordLength = UART_WORDLENGTH_8B;  /* 8 bits de datos.
 545:Core/Src/main_unique.c ****                                     Alternativa: 9B, usada cuando se anade
 546:Core/Src/main_unique.c ****                                     bit de paridad y se quieren 8 datos */
 547:Core/Src/main_unique.c ****     huart2.Init.StopBits   = UART_STOPBITS_1;
 548:Core/Src/main_unique.c ****     huart2.Init.Parity     = UART_PARITY_NONE;
 549:Core/Src/main_unique.c ****     huart2.Init.Mode       = UART_MODE_TX_RX;     /* bidireccional */
 550:Core/Src/main_unique.c ****     huart2.Init.HwFlowCtl  = UART_HWCONTROL_NONE; /* sin RTS/CTS   */
 551:Core/Src/main_unique.c ****     huart2.Init.OverSampling = UART_OVERSAMPLING_16;
 552:Core/Src/main_unique.c ****                                     /* 16 muestras por bit: mayor inmunidad
 553:Core/Src/main_unique.c ****                                        al ruido. OVERSAMPLING_8 permitiria
 554:Core/Src/main_unique.c ****                                        doblar la velocidad maxima */
 555:Core/Src/main_unique.c **** 
 556:Core/Src/main_unique.c ****     if (HAL_UART_Init(&huart2) != HAL_OK) {
 557:Core/Src/main_unique.c ****         Error_Handler();
 558:Core/Src/main_unique.c ****     }
 559:Core/Src/main_unique.c **** 
 560:Core/Src/main_unique.c ****     /* Prioridad 5: la mas alta de los perifericos del proyecto, para no
 561:Core/Src/main_unique.c ****        perder caracteres si coinciden varias interrupciones. */
 562:Core/Src/main_unique.c ****     HAL_NVIC_SetPriority(USART2_IRQn, 5, 0);
 563:Core/Src/main_unique.c ****     HAL_NVIC_EnableIRQ(USART2_IRQn);
 564:Core/Src/main_unique.c **** 
 565:Core/Src/main_unique.c ****     /* Arma la primera recepcion. Sin esta llamada no se genera ninguna
 566:Core/Src/main_unique.c ****        interrupcion de recepcion. */
 567:Core/Src/main_unique.c ****     HAL_UART_Receive_IT(&huart2, (uint8_t *)&s_rx_byte, 1U);
 568:Core/Src/main_unique.c **** }
 569:Core/Src/main_unique.c **** 
 570:Core/Src/main_unique.c **** /*
 571:Core/Src/main_unique.c ****  * uart_send
 572:Core/Src/main_unique.c ****  * Copia la cadena al buffer circular y activa la transmision si estaba parada.
 573:Core/Src/main_unique.c ****  * No bloquea: si el buffer se llena, los caracteres sobrantes se descartan.
 574:Core/Src/main_unique.c ****  */
 575:Core/Src/main_unique.c **** void uart_send(const char *s)
 576:Core/Src/main_unique.c **** {
 577:Core/Src/main_unique.c ****     uint16_t next;
 578:Core/Src/main_unique.c **** 
 579:Core/Src/main_unique.c ****     while (*s != '\0') {
 580:Core/Src/main_unique.c ****         next = (uint16_t)((s_tx_head + 1U) % UART_TX_BUF_SIZE);
 581:Core/Src/main_unique.c ****         if (next == s_tx_tail) {
 582:Core/Src/main_unique.c ****             break;   /* buffer lleno: se descarta el resto */
 583:Core/Src/main_unique.c ****         }
 584:Core/Src/main_unique.c ****         s_tx_buf[s_tx_head] = (uint8_t)*s++;
 585:Core/Src/main_unique.c ****         s_tx_head = next;
 586:Core/Src/main_unique.c ****     }
 587:Core/Src/main_unique.c ****     uart_start_tx();
 588:Core/Src/main_unique.c **** }
 589:Core/Src/main_unique.c **** 
 590:Core/Src/main_unique.c **** void uart_send_line(const char *s)
 591:Core/Src/main_unique.c **** {
 592:Core/Src/main_unique.c ****     uart_send(s);
 593:Core/Src/main_unique.c ****     uart_send("\r\n");
 594:Core/Src/main_unique.c **** }
 595:Core/Src/main_unique.c **** 
 596:Core/Src/main_unique.c **** /*
 597:Core/Src/main_unique.c ****  * HAL_UART_TxCpltCallback
 598:Core/Src/main_unique.c ****  * La HAL la invoca al terminar de transmitir el byte en curso.
 599:Core/Src/main_unique.c ****  * Encadena el siguiente byte pendiente del buffer circular.
 600:Core/Src/main_unique.c ****  */
ARM GAS  /tmp/ccjBgtoi.s 			page 12


 601:Core/Src/main_unique.c **** void HAL_UART_TxCpltCallback(UART_HandleTypeDef *huart)
 602:Core/Src/main_unique.c **** {
 603:Core/Src/main_unique.c ****     if (huart->Instance != USART2) {
 604:Core/Src/main_unique.c ****         return;
 605:Core/Src/main_unique.c ****     }
 606:Core/Src/main_unique.c ****     s_tx_busy = 0U;
 607:Core/Src/main_unique.c ****     uart_start_tx();
 608:Core/Src/main_unique.c **** }
 609:Core/Src/main_unique.c **** 
 610:Core/Src/main_unique.c **** /*
 611:Core/Src/main_unique.c ****  * HAL_UART_RxCpltCallback
 612:Core/Src/main_unique.c ****  * La HAL la invoca al recibir un caracter. Traduce el caracter a un evento
 613:Core/Src/main_unique.c ****  * de la maquina de estados y vuelve a armar la recepcion.
 614:Core/Src/main_unique.c ****  *
 615:Core/Src/main_unique.c ****  * Se aceptan mayusculas y minusculas para mayor comodidad del operador.
 616:Core/Src/main_unique.c ****  */
 617:Core/Src/main_unique.c **** void HAL_UART_RxCpltCallback(UART_HandleTypeDef *huart)
 618:Core/Src/main_unique.c **** {
 619:Core/Src/main_unique.c ****     uint8_t c;
 620:Core/Src/main_unique.c **** 
 621:Core/Src/main_unique.c ****     if (huart->Instance != USART2) {
 622:Core/Src/main_unique.c ****         return;
 623:Core/Src/main_unique.c ****     }
 624:Core/Src/main_unique.c **** 
 625:Core/Src/main_unique.c ****     c = s_rx_byte;
 626:Core/Src/main_unique.c **** 
 627:Core/Src/main_unique.c ****     switch (c) {
 628:Core/Src/main_unique.c ****     case 'c': case 'C': fsm_post_event(EV_CMD_CLEAR);   break;
 629:Core/Src/main_unique.c ****     case 'x': case 'X': fsm_post_event(EV_CMD_MODE_X);  break;
 630:Core/Src/main_unique.c ****     case 'y': case 'Y': fsm_post_event(EV_CMD_MODE_Y);  break;
 631:Core/Src/main_unique.c ****     case '+':           fsm_post_event(EV_CMD_INC);     break;
 632:Core/Src/main_unique.c ****     case '-':           fsm_post_event(EV_CMD_DEC);     break;
 633:Core/Src/main_unique.c ****     case 'h': case 'H': fsm_post_event(EV_CMD_MCO_HSI); break;
 634:Core/Src/main_unique.c ****     case 'l': case 'L': fsm_post_event(EV_CMD_MCO_LSE); break;
 635:Core/Src/main_unique.c ****     case 'p': case 'P': fsm_post_event(EV_CMD_MCO_PLL); break;
 636:Core/Src/main_unique.c ****     case 'd': case 'D': fsm_post_event(EV_CMD_DIAG);    break;
 637:Core/Src/main_unique.c ****     case 's': case 'S': fsm_post_event(EV_CMD_SCAN);    break;
 638:Core/Src/main_unique.c ****     case '?':           fsm_post_event(EV_CMD_HELP);    break;
 639:Core/Src/main_unique.c ****     default:            /* cualquier otro caracter se ignora */    break;
 640:Core/Src/main_unique.c ****     }
 641:Core/Src/main_unique.c **** 
 642:Core/Src/main_unique.c ****     /* Rearma la recepcion del siguiente byte. Omitir esta llamada deja la
 643:Core/Src/main_unique.c ****        UART sorda tras el primer caracter: es el error mas frecuente al
 644:Core/Src/main_unique.c ****        trabajar con HAL_UART_Receive_IT. */
 645:Core/Src/main_unique.c ****     HAL_UART_Receive_IT(&huart2, (uint8_t *)&s_rx_byte, 1U);
 646:Core/Src/main_unique.c **** }
 647:Core/Src/main_unique.c **** 
 648:Core/Src/main_unique.c **** /*
 649:Core/Src/main_unique.c ****  * HAL_UART_ErrorCallback
 650:Core/Src/main_unique.c ****  * Se invoca ante errores de trama, ruido, paridad o desbordamiento.
 651:Core/Src/main_unique.c ****  * Rearma la recepcion para que un caracter corrupto no deje la UART muda.
 652:Core/Src/main_unique.c ****  */
 653:Core/Src/main_unique.c **** void HAL_UART_ErrorCallback(UART_HandleTypeDef *huart)
 654:Core/Src/main_unique.c **** {
 655:Core/Src/main_unique.c ****     if (huart->Instance == USART2) {
 656:Core/Src/main_unique.c ****         __HAL_UART_CLEAR_OREFLAG(huart);   /* limpia el error de desbordamiento */
 657:Core/Src/main_unique.c ****         HAL_UART_Receive_IT(&huart2, (uint8_t *)&s_rx_byte, 1U);
ARM GAS  /tmp/ccjBgtoi.s 			page 13


 658:Core/Src/main_unique.c ****     }
 659:Core/Src/main_unique.c **** }
 660:Core/Src/main_unique.c **** 
 661:Core/Src/main_unique.c **** /* ==========================================================================
 662:Core/Src/main_unique.c ****  * 8. MODULO adc_joystick
 663:Core/Src/main_unique.c ****  *    Adquisicion de los dos ejes del joystick con ADC1 en modo interrupcion.
 664:Core/Src/main_unique.c ****  *
 665:Core/Src/main_unique.c ****  *    Estrategia: el ADC del STM32F4 dispone de un unico registro de datos.
 666:Core/Src/main_unique.c ****  *    Para leer dos canales sin DMA se convierte de uno en uno y se conmuta el
 667:Core/Src/main_unique.c ****  *    canal dentro del callback de fin de conversion:
 668:Core/Src/main_unique.c ****  *
 669:Core/Src/main_unique.c ****  *      TIM4 (100 ms) --> adc_joystick_start() --> conversion canal IN0
 670:Core/Src/main_unique.c ****  *             callback --> guarda VRX, selecciona IN1, arranca de nuevo
 671:Core/Src/main_unique.c ****  *             callback --> guarda VRY, secuencia terminada
 672:Core/Src/main_unique.c ****  *
 673:Core/Src/main_unique.c ****  *    Conexionado: VRX -> PA0 (IN0), VRY -> PA1 (IN1), SW -> PB5.
 674:Core/Src/main_unique.c ****  * ========================================================================== */
 675:Core/Src/main_unique.c **** 
 676:Core/Src/main_unique.c **** /* Indice del canal en curso: 0 = VRX (IN0), 1 = VRY (IN1). volatile porque
 677:Core/Src/main_unique.c ****    se modifica dentro de una interrupcion y se lee fuera de ella. */
 678:Core/Src/main_unique.c **** static volatile uint8_t  s_channel = 0;
 679:Core/Src/main_unique.c **** 
 680:Core/Src/main_unique.c **** /* Ultimas muestras validas de cada eje */
 681:Core/Src/main_unique.c **** static volatile uint16_t s_raw_x = JOY_CENTER;
 682:Core/Src/main_unique.c **** static volatile uint16_t s_raw_y = JOY_CENTER;
 683:Core/Src/main_unique.c **** 
 684:Core/Src/main_unique.c **** /*
 685:Core/Src/main_unique.c ****  * adc_select_channel
 686:Core/Src/main_unique.c ****  * Programa el canal que ocupara el primer puesto de la secuencia de conversion.
 687:Core/Src/main_unique.c ****  * Funcion interna (static): no forma parte de la interfaz del modulo.
 688:Core/Src/main_unique.c ****  */
 689:Core/Src/main_unique.c **** static void adc_select_channel(uint8_t idx)
 690:Core/Src/main_unique.c **** {
 691:Core/Src/main_unique.c ****     ADC_ChannelConfTypeDef ch = {0};
 692:Core/Src/main_unique.c **** 
 693:Core/Src/main_unique.c ****     ch.Channel      = (idx == 0) ? ADC_CHANNEL_0 : ADC_CHANNEL_1;
 694:Core/Src/main_unique.c ****     ch.Rank         = 1;   /* primera y unica posicion de la secuencia */
 695:Core/Src/main_unique.c ****     ch.SamplingTime = ADC_SAMPLETIME_84CYCLES;
 696:Core/Src/main_unique.c ****     /* Tiempo de muestreo: 84 ciclos de ADCCLK. Debe ser suficiente para que el
 697:Core/Src/main_unique.c ****        condensador de muestreo se cargue a traves de la impedancia de la fuente.
 698:Core/Src/main_unique.c ****        El potenciometro del joystick ronda los 10 kohm, valor alto, por lo que
 699:Core/Src/main_unique.c ****        se toma un tiempo generoso. Alternativas: 3, 15, 28, 56, 112, 144, 480
 700:Core/Src/main_unique.c ****        ciclos. Un tiempo demasiado corto produce lecturas bajas y ruidosas. */
 701:Core/Src/main_unique.c **** 
 702:Core/Src/main_unique.c ****     if (HAL_ADC_ConfigChannel(&hadc1, &ch) != HAL_OK) {
 703:Core/Src/main_unique.c ****         Error_Handler();
 704:Core/Src/main_unique.c ****     }
 705:Core/Src/main_unique.c **** }
 706:Core/Src/main_unique.c **** 
 707:Core/Src/main_unique.c **** void adc_joystick_init(void)
 708:Core/Src/main_unique.c **** {
 709:Core/Src/main_unique.c ****     __HAL_RCC_ADC1_CLK_ENABLE();   /* reloj del ADC1 (bus APB2) */
 710:Core/Src/main_unique.c **** 
 711:Core/Src/main_unique.c ****     hadc1.Instance = ADC1;
 712:Core/Src/main_unique.c **** 
 713:Core/Src/main_unique.c ****     /* ADCCLK = PCLK2 / 4 = 100 MHz / 4 = 25 MHz.
 714:Core/Src/main_unique.c ****        El maximo admitido por el ADC del F411 es 36 MHz; DIV2 daria 50 MHz y
ARM GAS  /tmp/ccjBgtoi.s 			page 14


 715:Core/Src/main_unique.c ****        violaria la especificacion. Alternativas: DIV2, DIV4, DIV6, DIV8. */
 716:Core/Src/main_unique.c ****     hadc1.Init.ClockPrescaler = ADC_CLOCK_SYNC_PCLK_DIV4;
 717:Core/Src/main_unique.c **** 
 718:Core/Src/main_unique.c ****     hadc1.Init.Resolution = ADC_RESOLUTION_12B;  /* 0..4095. Alternativas:
 719:Core/Src/main_unique.c ****                                         10B, 8B, 6B; menor resolucion implica
 720:Core/Src/main_unique.c ****                                         conversiones mas rapidas */
 721:Core/Src/main_unique.c ****     hadc1.Init.ScanConvMode          = DISABLE;  /* un solo canal por secuencia */
 722:Core/Src/main_unique.c ****     hadc1.Init.ContinuousConvMode    = DISABLE;  /* conversion unica bajo demanda */
 723:Core/Src/main_unique.c ****     hadc1.Init.DiscontinuousConvMode = DISABLE;
 724:Core/Src/main_unique.c ****     hadc1.Init.ExternalTrigConv      = ADC_SOFTWARE_START;
 725:Core/Src/main_unique.c ****                                         /* el disparo lo da el software desde
 726:Core/Src/main_unique.c ****                                            la ISR de TIM4. Alternativa: disparo
 727:Core/Src/main_unique.c ****                                            directo por TRGO de un temporizador */
 728:Core/Src/main_unique.c ****     hadc1.Init.ExternalTrigConvEdge  = ADC_EXTERNALTRIGCONVEDGE_NONE;
 729:Core/Src/main_unique.c ****     hadc1.Init.DataAlign             = ADC_DATAALIGN_RIGHT;
 730:Core/Src/main_unique.c ****                                         /* resultado justificado a la derecha:
 731:Core/Src/main_unique.c ****                                            el valor se lee directamente sin
 732:Core/Src/main_unique.c ****                                            desplazamientos */
 733:Core/Src/main_unique.c ****     hadc1.Init.NbrOfConversion       = 1;
 734:Core/Src/main_unique.c ****     hadc1.Init.DMAContinuousRequests = DISABLE;
 735:Core/Src/main_unique.c ****     hadc1.Init.EOCSelection          = ADC_EOC_SINGLE_CONV;
 736:Core/Src/main_unique.c ****                                         /* la bandera EOC se activa al terminar
 737:Core/Src/main_unique.c ****                                            cada conversion individual */
 738:Core/Src/main_unique.c **** 
 739:Core/Src/main_unique.c ****     if (HAL_ADC_Init(&hadc1) != HAL_OK) {
 740:Core/Src/main_unique.c ****         Error_Handler();
 741:Core/Src/main_unique.c ****     }
 742:Core/Src/main_unique.c **** 
 743:Core/Src/main_unique.c ****     adc_select_channel(0);   /* deja seleccionado VRX para la primera lectura */
 744:Core/Src/main_unique.c **** 
 745:Core/Src/main_unique.c ****     /* Prioridad 6: por debajo de la UART, por encima de los temporizadores */
 746:Core/Src/main_unique.c ****     HAL_NVIC_SetPriority(ADC_IRQn, 6, 0);
 747:Core/Src/main_unique.c ****     HAL_NVIC_EnableIRQ(ADC_IRQn);
 748:Core/Src/main_unique.c **** }
 749:Core/Src/main_unique.c **** 
 750:Core/Src/main_unique.c **** /*
 751:Core/Src/main_unique.c ****  * adc_joystick_start
 752:Core/Src/main_unique.c ****  * Inicia la secuencia de dos conversiones. Se invoca desde la ISR de TIM4,
 753:Core/Src/main_unique.c ****  * por lo que debe retornar de inmediato.
 754:Core/Src/main_unique.c ****  */
 755:Core/Src/main_unique.c **** void adc_joystick_start(void)
 756:Core/Src/main_unique.c **** {
 757:Core/Src/main_unique.c ****     s_channel = 0;              /* la secuencia empieza siempre por VRX */
 758:Core/Src/main_unique.c ****     adc_select_channel(0);
 759:Core/Src/main_unique.c ****     HAL_ADC_Start_IT(&hadc1);   /* arranca la conversion con interrupcion EOC */
 760:Core/Src/main_unique.c **** }
 761:Core/Src/main_unique.c **** 
 762:Core/Src/main_unique.c **** /*
 763:Core/Src/main_unique.c ****  * HAL_ADC_ConvCpltCallback
 764:Core/Src/main_unique.c ****  * La HAL la invoca desde HAL_ADC_IRQHandler al activarse la bandera EOC.
 765:Core/Src/main_unique.c ****  * Encadena la segunda conversion sin bloquear el nucleo.
 766:Core/Src/main_unique.c ****  */
 767:Core/Src/main_unique.c **** void HAL_ADC_ConvCpltCallback(ADC_HandleTypeDef *hadc)
 768:Core/Src/main_unique.c **** {
 769:Core/Src/main_unique.c ****     if (hadc->Instance != ADC1) {
 770:Core/Src/main_unique.c ****         return;   /* proteccion por si se anadiese otro ADC al proyecto */
 771:Core/Src/main_unique.c ****     }
ARM GAS  /tmp/ccjBgtoi.s 			page 15


 772:Core/Src/main_unique.c **** 
 773:Core/Src/main_unique.c ****     if (s_channel == 0) {
 774:Core/Src/main_unique.c ****         s_raw_x   = (uint16_t)HAL_ADC_GetValue(hadc); /* lee y limpia EOC */
 775:Core/Src/main_unique.c ****         s_channel = 1;
 776:Core/Src/main_unique.c ****         adc_select_channel(1);        /* conmuta a VRY */
 777:Core/Src/main_unique.c ****         HAL_ADC_Start_IT(hadc);       /* segunda conversion */
 778:Core/Src/main_unique.c ****     } else {
 779:Core/Src/main_unique.c ****         s_raw_y   = (uint16_t)HAL_ADC_GetValue(hadc);
 780:Core/Src/main_unique.c ****         s_channel = 0;                /* secuencia completa */
 781:Core/Src/main_unique.c ****     }
 782:Core/Src/main_unique.c **** }
 783:Core/Src/main_unique.c **** 
 784:Core/Src/main_unique.c **** /* Accesores de las ultimas muestras crudas */
 785:Core/Src/main_unique.c **** uint16_t adc_joystick_raw_x(void) { return s_raw_x; }
 786:Core/Src/main_unique.c **** uint16_t adc_joystick_raw_y(void) { return s_raw_y; }
 787:Core/Src/main_unique.c **** 
 788:Core/Src/main_unique.c **** /*
 789:Core/Src/main_unique.c ****  * adc_dir
 790:Core/Src/main_unique.c ****  * Convierte una muestra cruda en una direccion discreta aplicando la banda
 791:Core/Src/main_unique.c ****  * muerta. Devuelve -1, 0 o +1.
 792:Core/Src/main_unique.c ****  */
 793:Core/Src/main_unique.c **** static int8_t adc_dir(uint16_t raw)
 794:Core/Src/main_unique.c **** {
  29              		.loc 1 794 1 view -0
  30              		.cfi_startproc
  31              		@ args = 0, pretend = 0, frame = 0
  32              		@ frame_needed = 0, uses_anonymous_args = 0
  33              		@ link register save eliminated.
 795:Core/Src/main_unique.c ****     if (raw > (JOY_CENTER + JOY_DEADZONE)) return  1;
  34              		.loc 1 795 5 view .LVU1
  35              		.loc 1 795 8 is_stmt 0 view .LVU2
  36 0000 40F65823 		movw	r3, #2648
  37 0004 9842     		cmp	r0, r3
  38 0006 04D8     		bhi	.L3
 796:Core/Src/main_unique.c ****     if (raw < (JOY_CENTER - JOY_DEADZONE)) return -1;
  39              		.loc 1 796 5 is_stmt 1 view .LVU3
  40              		.loc 1 796 8 is_stmt 0 view .LVU4
  41 0008 B0F5B56F 		cmp	r0, #1448
  42 000c 03D3     		bcc	.L4
 797:Core/Src/main_unique.c ****     return 0;
  43              		.loc 1 797 12 view .LVU5
  44 000e 0020     		movs	r0, #0
  45              	.LVL1:
  46              		.loc 1 797 12 view .LVU6
  47 0010 7047     		bx	lr
  48              	.LVL2:
  49              	.L3:
 795:Core/Src/main_unique.c ****     if (raw > (JOY_CENTER + JOY_DEADZONE)) return  1;
  50              		.loc 1 795 52 discriminator 1 view .LVU7
  51 0012 0120     		movs	r0, #1
  52              	.LVL3:
 795:Core/Src/main_unique.c ****     if (raw > (JOY_CENTER + JOY_DEADZONE)) return  1;
  53              		.loc 1 795 52 discriminator 1 view .LVU8
  54 0014 7047     		bx	lr
  55              	.LVL4:
  56              	.L4:
 796:Core/Src/main_unique.c ****     if (raw < (JOY_CENTER - JOY_DEADZONE)) return -1;
ARM GAS  /tmp/ccjBgtoi.s 			page 16


  57              		.loc 1 796 51 discriminator 1 view .LVU9
  58 0016 4FF0FF30 		mov	r0, #-1
  59              	.LVL5:
 798:Core/Src/main_unique.c **** }
  60              		.loc 1 798 1 view .LVU10
  61 001a 7047     		bx	lr
  62              		.cfi_endproc
  63              	.LFE290:
  65              		.section	.text.build_month,"ax",%progbits
  66              		.align	1
  67              		.syntax unified
  68              		.thumb
  69              		.thumb_func
  71              	build_month:
  72              	.LFB293:
 799:Core/Src/main_unique.c **** 
 800:Core/Src/main_unique.c **** int8_t adc_joystick_dir_x(void) { return adc_dir(s_raw_x); }
 801:Core/Src/main_unique.c **** int8_t adc_joystick_dir_y(void) { return adc_dir(s_raw_y); }
 802:Core/Src/main_unique.c **** 
 803:Core/Src/main_unique.c **** /* ==========================================================================
 804:Core/Src/main_unique.c ****  * 9. MODULO rtc
 805:Core/Src/main_unique.c ****  *    RTC interno alimentado por el LSE, con despertador de 1 s.
 806:Core/Src/main_unique.c ****  *
 807:Core/Src/main_unique.c ****  *    Cadena de division del RTC:
 808:Core/Src/main_unique.c ****  *      f_ck_spre = LSE / ((AsynchPrediv + 1) * (SynchPrediv + 1))
 809:Core/Src/main_unique.c ****  *                = 32768 / (128 * 256) = 1 Hz
 810:Core/Src/main_unique.c ****  *
 811:Core/Src/main_unique.c ****  *    El RTC reside en el dominio de respaldo, alimentado desde VBAT cuando
 812:Core/Src/main_unique.c ****  *    desaparece VDD: con pila, la cuenta sobrevive al corte de alimentacion.
 813:Core/Src/main_unique.c ****  *    Se usa RTC_BKP_DR0 como testigo para no reinicializar la hora en cada
 814:Core/Src/main_unique.c ****  *    arranque.
 815:Core/Src/main_unique.c ****  * ========================================================================== */
 816:Core/Src/main_unique.c **** 
 817:Core/Src/main_unique.c **** /* Bandera puesta a 1 por la interrupcion de despertador cada segundo.
 818:Core/Src/main_unique.c ****    La consume la maquina de estados para refrescar la linea 1 del LCD. */
 819:Core/Src/main_unique.c **** volatile uint8_t g_rtc_second_flag = 0;
 820:Core/Src/main_unique.c **** 
 821:Core/Src/main_unique.c **** /* ------------------------------------------------------------------------
 822:Core/Src/main_unique.c ****  * Conversion de las macros __DATE__ y __TIME__ del compilador.
 823:Core/Src/main_unique.c ****  * Permite que, la primera vez que se programa la placa, el RTC arranque con
 824:Core/Src/main_unique.c ****  * la fecha y hora reales del momento de compilacion en lugar de un valor fijo.
 825:Core/Src/main_unique.c ****  * __DATE__ tiene el formato "Jul 21 2026"; __TIME__ el formato "14:35:07".
 826:Core/Src/main_unique.c ****  * ---------------------------------------------------------------------- */
 827:Core/Src/main_unique.c **** static uint8_t build_month(void)
 828:Core/Src/main_unique.c **** {
  73              		.loc 1 828 1 is_stmt 1 view -0
  74              		.cfi_startproc
  75              		@ args = 0, pretend = 0, frame = 0
  76              		@ frame_needed = 0, uses_anonymous_args = 0
  77              		@ link register save eliminated.
 829:Core/Src/main_unique.c ****     /* Tabla de las tres primeras letras de cada mes en ingles */
 830:Core/Src/main_unique.c ****     static const char months[] = "JanFebMarAprMayJunJulAugSepOctNovDec";
  78              		.loc 1 830 5 view .LVU12
 831:Core/Src/main_unique.c ****     const char *d = __DATE__;
  79              		.loc 1 831 5 view .LVU13
  80              	.LVL6:
 832:Core/Src/main_unique.c ****     uint8_t i;
ARM GAS  /tmp/ccjBgtoi.s 			page 17


  81              		.loc 1 832 5 view .LVU14
 833:Core/Src/main_unique.c **** 
 834:Core/Src/main_unique.c ****     for (i = 0; i < 12U; i++) {
  82              		.loc 1 834 5 view .LVU15
  83              		.loc 1 834 12 is_stmt 0 view .LVU16
  84 0000 0023     		movs	r3, #0
  85              		.loc 1 834 5 view .LVU17
  86 0002 01E0     		b	.L6
  87              	.LVL7:
  88              	.L7:
  89              		.loc 1 834 27 is_stmt 1 discriminator 1 view .LVU18
  90 0004 0133     		adds	r3, r3, #1
  91              	.LVL8:
  92              		.loc 1 834 27 is_stmt 0 discriminator 1 view .LVU19
  93 0006 DBB2     		uxtb	r3, r3
  94              	.LVL9:
  95              	.L6:
  96              		.loc 1 834 19 is_stmt 1 discriminator 2 view .LVU20
  97 0008 0B2B     		cmp	r3, #11
  98 000a 11D8     		bhi	.L10
 835:Core/Src/main_unique.c ****         if (d[0] == months[i * 3] &&
  99              		.loc 1 835 9 view .LVU21
 100              		.loc 1 835 30 is_stmt 0 view .LVU22
 101 000c 03EB4302 		add	r2, r3, r3, lsl #1
 102              		.loc 1 835 27 view .LVU23
 103 0010 0849     		ldr	r1, .L11
 104 0012 895C     		ldrb	r1, [r1, r2]	@ zero_extendqisi2
 105              		.loc 1 835 12 view .LVU24
 106 0014 4A29     		cmp	r1, #74
 107 0016 F5D1     		bne	.L7
 836:Core/Src/main_unique.c ****             d[1] == months[i * 3 + 1] &&
 108              		.loc 1 836 34 view .LVU25
 109 0018 511C     		adds	r1, r2, #1
 110              		.loc 1 836 27 view .LVU26
 111 001a 0648     		ldr	r0, .L11
 112 001c 415C     		ldrb	r1, [r0, r1]	@ zero_extendqisi2
 835:Core/Src/main_unique.c ****         if (d[0] == months[i * 3] &&
 113              		.loc 1 835 35 discriminator 1 view .LVU27
 114 001e 7529     		cmp	r1, #117
 115 0020 F0D1     		bne	.L7
 837:Core/Src/main_unique.c ****             d[2] == months[i * 3 + 2]) {
 116              		.loc 1 837 34 view .LVU28
 117 0022 0232     		adds	r2, r2, #2
 118              		.loc 1 837 27 view .LVU29
 119 0024 825C     		ldrb	r2, [r0, r2]	@ zero_extendqisi2
 836:Core/Src/main_unique.c ****             d[1] == months[i * 3 + 1] &&
 120              		.loc 1 836 39 discriminator 1 view .LVU30
 121 0026 6C2A     		cmp	r2, #108
 122 0028 ECD1     		bne	.L7
 838:Core/Src/main_unique.c ****             return (uint8_t)(i + 1U);   /* los meses del RTC van de 1 a 12 */
 123              		.loc 1 838 13 is_stmt 1 view .LVU31
 124              		.loc 1 838 20 is_stmt 0 view .LVU32
 125 002a 0133     		adds	r3, r3, #1
 126              	.LVL10:
 127              		.loc 1 838 20 view .LVU33
 128 002c D8B2     		uxtb	r0, r3
 129 002e 7047     		bx	lr
ARM GAS  /tmp/ccjBgtoi.s 			page 18


 130              	.LVL11:
 131              	.L10:
 839:Core/Src/main_unique.c ****         }
 840:Core/Src/main_unique.c ****     }
 841:Core/Src/main_unique.c ****     return 1U;
 132              		.loc 1 841 12 view .LVU34
 133 0030 0120     		movs	r0, #1
 842:Core/Src/main_unique.c **** }
 134              		.loc 1 842 1 view .LVU35
 135 0032 7047     		bx	lr
 136              	.L12:
 137              		.align	2
 138              	.L11:
 139 0034 00000000 		.word	months.2
 140              		.cfi_endproc
 141              	.LFE293:
 143              		.section	.text.build_day,"ax",%progbits
 144              		.align	1
 145              		.syntax unified
 146              		.thumb
 147              		.thumb_func
 149              	build_day:
 150              	.LFB294:
 843:Core/Src/main_unique.c **** 
 844:Core/Src/main_unique.c **** static uint8_t build_day(void)
 845:Core/Src/main_unique.c **** {
 151              		.loc 1 845 1 is_stmt 1 view -0
 152              		.cfi_startproc
 153              		@ args = 0, pretend = 0, frame = 0
 154              		@ frame_needed = 0, uses_anonymous_args = 0
 155              		@ link register save eliminated.
 846:Core/Src/main_unique.c ****     const char *d = __DATE__;
 156              		.loc 1 846 5 view .LVU37
 157              	.LVL12:
 847:Core/Src/main_unique.c ****     /* La posicion 4 es un espacio para los dias de un digito */
 848:Core/Src/main_unique.c ****     uint8_t tens = (d[4] == ' ') ? 0U : (uint8_t)(d[4] - '0');
 158              		.loc 1 848 5 view .LVU38
 849:Core/Src/main_unique.c ****     return (uint8_t)(tens * 10U + (uint8_t)(d[5] - '0'));
 159              		.loc 1 849 5 view .LVU39
 850:Core/Src/main_unique.c **** }
 160              		.loc 1 850 1 is_stmt 0 view .LVU40
 161 0000 1620     		movs	r0, #22
 162 0002 7047     		bx	lr
 163              		.cfi_endproc
 164              	.LFE294:
 166              		.section	.text.build_year,"ax",%progbits
 167              		.align	1
 168              		.syntax unified
 169              		.thumb
 170              		.thumb_func
 172              	build_year:
 173              	.LFB295:
 851:Core/Src/main_unique.c **** 
 852:Core/Src/main_unique.c **** static uint8_t build_year(void)
 853:Core/Src/main_unique.c **** {
 174              		.loc 1 853 1 is_stmt 1 view -0
 175              		.cfi_startproc
ARM GAS  /tmp/ccjBgtoi.s 			page 19


 176              		@ args = 0, pretend = 0, frame = 0
 177              		@ frame_needed = 0, uses_anonymous_args = 0
 178              		@ link register save eliminated.
 854:Core/Src/main_unique.c ****     const char *d = __DATE__;
 179              		.loc 1 854 5 view .LVU42
 180              	.LVL13:
 855:Core/Src/main_unique.c ****     /* El RTC almacena solo los dos ultimos digitos del ano */
 856:Core/Src/main_unique.c ****     return (uint8_t)((d[9] - '0') * 10 + (d[10] - '0'));
 181              		.loc 1 856 5 view .LVU43
 857:Core/Src/main_unique.c **** }
 182              		.loc 1 857 1 is_stmt 0 view .LVU44
 183 0000 1A20     		movs	r0, #26
 184 0002 7047     		bx	lr
 185              		.cfi_endproc
 186              	.LFE295:
 188              		.section	.rodata.build_field.str1.4,"aMS",%progbits,1
 189              		.align	2
 190              	.LC0:
 191 0000 31373A32 		.ascii	"17:28:50\000"
 191      383A3530 
 191      00
 192              		.section	.text.build_field,"ax",%progbits
 193              		.align	1
 194              		.syntax unified
 195              		.thumb
 196              		.thumb_func
 198              	build_field:
 199              	.LVL14:
 200              	.LFB296:
 858:Core/Src/main_unique.c **** 
 859:Core/Src/main_unique.c **** static uint8_t build_field(uint8_t offset)
 860:Core/Src/main_unique.c **** {
 201              		.loc 1 860 1 is_stmt 1 view -0
 202              		.cfi_startproc
 203              		@ args = 0, pretend = 0, frame = 0
 204              		@ frame_needed = 0, uses_anonymous_args = 0
 205              		@ link register save eliminated.
 861:Core/Src/main_unique.c ****     const char *t = __TIME__;   /* "HH:MM:SS" */
 206              		.loc 1 861 5 view .LVU46
 862:Core/Src/main_unique.c ****     return (uint8_t)((t[offset] - '0') * 10 + (t[offset + 1] - '0'));
 207              		.loc 1 862 5 view .LVU47
 208              		.loc 1 862 24 is_stmt 0 view .LVU48
 209 0000 064A     		ldr	r2, .L16
 210 0002 135C     		ldrb	r3, [r2, r0]	@ zero_extendqisi2
 211              		.loc 1 862 57 view .LVU49
 212 0004 0130     		adds	r0, r0, #1
 213              	.LVL15:
 214              		.loc 1 862 49 view .LVU50
 215 0006 105C     		ldrb	r0, [r2, r0]	@ zero_extendqisi2
 216              	.LVL16:
 217              		.loc 1 862 45 view .LVU51
 218 0008 303B     		subs	r3, r3, #48
 219 000a 03EB8303 		add	r3, r3, r3, lsl #2
 220 000e 00EB4300 		add	r0, r0, r3, lsl #1
 221 0012 C0B2     		uxtb	r0, r0
 222              		.loc 1 862 12 view .LVU52
 223 0014 3038     		subs	r0, r0, #48
ARM GAS  /tmp/ccjBgtoi.s 			page 20


 863:Core/Src/main_unique.c **** }
 224              		.loc 1 863 1 view .LVU53
 225 0016 C0B2     		uxtb	r0, r0
 226 0018 7047     		bx	lr
 227              	.L17:
 228 001a 00BF     		.align	2
 229              	.L16:
 230 001c 00000000 		.word	.LC0
 231              		.cfi_endproc
 232              	.LFE296:
 234              		.section	.text.dwt_init,"ax",%progbits
 235              		.align	1
 236              		.syntax unified
 237              		.thumb
 238              		.thumb_func
 240              	dwt_init:
 241              	.LFB301:
 864:Core/Src/main_unique.c **** 
 865:Core/Src/main_unique.c **** void rtc_init(void)
 866:Core/Src/main_unique.c **** {
 867:Core/Src/main_unique.c ****     RTC_TimeTypeDef          time = {0};
 868:Core/Src/main_unique.c ****     RTC_DateTypeDef          date = {0};
 869:Core/Src/main_unique.c ****     RCC_PeriphCLKInitTypeDef pclk = {0};
 870:Core/Src/main_unique.c ****     uint32_t src_wanted;      /* fuente de reloj elegida para el RTC   */
 871:Core/Src/main_unique.c ****     uint32_t prediv_a;        /* prescalador asincrono                 */
 872:Core/Src/main_unique.c ****     uint32_t prediv_s;        /* prescalador sincrono                  */
 873:Core/Src/main_unique.c **** 
 874:Core/Src/main_unique.c ****     /* --- 1. Seleccion de la fuente de reloj del RTC ---------------------- */
 875:Core/Src/main_unique.c ****     /* Si el cristal LSE arranco se usa el, que es lo que exige el enunciado.
 876:Core/Src/main_unique.c ****        Si no arranco (cristal X2 ausente en la placa) se recurre al LSI para
 877:Core/Src/main_unique.c ****        que el resto del sistema siga siendo utilizable, advirtiendolo por la
 878:Core/Src/main_unique.c ****        consola. El LSI es un oscilador RC interno con una deriva de hasta
 879:Core/Src/main_unique.c ****        +-50 % y, sobre todo, SE DETIENE al perder VDD: con el, la hora no
 880:Core/Src/main_unique.c ****        sobrevive al corte de alimentacion. */
 881:Core/Src/main_unique.c ****     if (system_clock_lse_ok()) {
 882:Core/Src/main_unique.c ****         src_wanted = RCC_RTCCLKSOURCE_LSE;
 883:Core/Src/main_unique.c ****         prediv_a   = 127U;   /* 32768 / 128 = 256 Hz */
 884:Core/Src/main_unique.c ****         prediv_s   = 255U;   /* 256   / 256 = 1 Hz   */
 885:Core/Src/main_unique.c ****     } else {
 886:Core/Src/main_unique.c ****         __HAL_RCC_LSI_ENABLE();
 887:Core/Src/main_unique.c ****         while (__HAL_RCC_GET_FLAG(RCC_FLAG_LSIRDY) == RESET) { }
 888:Core/Src/main_unique.c **** 
 889:Core/Src/main_unique.c ****         src_wanted = RCC_RTCCLKSOURCE_LSI;
 890:Core/Src/main_unique.c ****         prediv_a   = 127U;   /* LSI nominal 32 kHz: 32000 / 128 = 250 Hz */
 891:Core/Src/main_unique.c ****         prediv_s   = 249U;   /* 250 / 250 = 1 Hz (aproximado)            */
 892:Core/Src/main_unique.c **** 
 893:Core/Src/main_unique.c ****         uart_send_line("AVISO: el LSE no arranco. RTC funcionando con LSI.");
 894:Core/Src/main_unique.c ****         uart_send_line("       Revisar el cristal X2 y los puentes SB48/SB49.");
 895:Core/Src/main_unique.c ****     }
 896:Core/Src/main_unique.c **** 
 897:Core/Src/main_unique.c ****     /* Cambiar RTCSEL obliga a un reset del dominio de respaldo, lo que
 898:Core/Src/main_unique.c ****        borraria la hora. Por eso solo se configura si la fuente actual no es
 899:Core/Src/main_unique.c ****        ya la deseada, es decir, unicamente en el primer arranque tras montar
 900:Core/Src/main_unique.c ****        la pila o tras un borrado completo. */
 901:Core/Src/main_unique.c ****     if (__HAL_RCC_GET_RTC_SOURCE() != src_wanted) {
 902:Core/Src/main_unique.c ****         pclk.PeriphClockSelection = RCC_PERIPHCLK_RTC;
 903:Core/Src/main_unique.c ****         pclk.RTCClockSelection    = src_wanted;
ARM GAS  /tmp/ccjBgtoi.s 			page 21


 904:Core/Src/main_unique.c ****         if (HAL_RCCEx_PeriphCLKConfig(&pclk) != HAL_OK) {
 905:Core/Src/main_unique.c ****             Error_Handler();
 906:Core/Src/main_unique.c ****         }
 907:Core/Src/main_unique.c ****     }
 908:Core/Src/main_unique.c **** 
 909:Core/Src/main_unique.c ****     __HAL_RCC_RTC_ENABLE();   /* habilita el reloj del bloque RTC */
 910:Core/Src/main_unique.c **** 
 911:Core/Src/main_unique.c ****     /* --- 2. Parametros del contador ------------------------------------- */
 912:Core/Src/main_unique.c ****     hrtc.Instance            = RTC;
 913:Core/Src/main_unique.c ****     hrtc.Init.HourFormat     = RTC_HOURFORMAT_24;  /* alternativa: _12 con AM/PM */
 914:Core/Src/main_unique.c ****     hrtc.Init.AsynchPrediv   = prediv_a;           /* calculado mas arriba  */
 915:Core/Src/main_unique.c ****     hrtc.Init.SynchPrediv    = prediv_s;           /* segun la fuente activa */
 916:Core/Src/main_unique.c ****     hrtc.Init.OutPut         = RTC_OUTPUT_DISABLE; /* sin salida por PC13   */
 917:Core/Src/main_unique.c ****     hrtc.Init.OutPutPolarity = RTC_OUTPUT_POLARITY_HIGH;
 918:Core/Src/main_unique.c ****     hrtc.Init.OutPutType     = RTC_OUTPUT_TYPE_OPENDRAIN;
 919:Core/Src/main_unique.c **** 
 920:Core/Src/main_unique.c ****     if (HAL_RTC_Init(&hrtc) != HAL_OK) {
 921:Core/Src/main_unique.c ****         Error_Handler();
 922:Core/Src/main_unique.c ****     }
 923:Core/Src/main_unique.c **** 
 924:Core/Src/main_unique.c ****     /* --- 3. Carga de fecha y hora solo en el primer arranque -------------- */
 925:Core/Src/main_unique.c ****     if (HAL_RTCEx_BKUPRead(&hrtc, RTC_BKP_DR0) != RTC_BACKUP_SIGNATURE) {
 926:Core/Src/main_unique.c **** 
 927:Core/Src/main_unique.c ****         time.Hours   = build_field(0);   /* posiciones 0-1 de __TIME__ */
 928:Core/Src/main_unique.c ****         time.Minutes = build_field(3);   /* posiciones 3-4             */
 929:Core/Src/main_unique.c ****         time.Seconds = build_field(6);   /* posiciones 6-7             */
 930:Core/Src/main_unique.c ****         time.TimeFormat     = RTC_HOURFORMAT12_AM;  /* ignorado en modo 24 h */
 931:Core/Src/main_unique.c ****         time.DayLightSaving = RTC_DAYLIGHTSAVING_NONE;
 932:Core/Src/main_unique.c ****         time.StoreOperation = RTC_STOREOPERATION_RESET;
 933:Core/Src/main_unique.c **** 
 934:Core/Src/main_unique.c ****         if (HAL_RTC_SetTime(&hrtc, &time, RTC_FORMAT_BIN) != HAL_OK) {
 935:Core/Src/main_unique.c ****             Error_Handler();
 936:Core/Src/main_unique.c ****         }
 937:Core/Src/main_unique.c ****         /* RTC_FORMAT_BIN acepta valores decimales normales; la alternativa
 938:Core/Src/main_unique.c ****            RTC_FORMAT_BCD exigiria codificar cada digito en un nibble. */
 939:Core/Src/main_unique.c **** 
 940:Core/Src/main_unique.c ****         date.WeekDay = RTC_WEEKDAY_MONDAY;  /* no se muestra en el LCD */
 941:Core/Src/main_unique.c ****         date.Month   = build_month();
 942:Core/Src/main_unique.c ****         date.Date    = build_day();
 943:Core/Src/main_unique.c ****         date.Year    = build_year();
 944:Core/Src/main_unique.c **** 
 945:Core/Src/main_unique.c ****         if (HAL_RTC_SetDate(&hrtc, &date, RTC_FORMAT_BIN) != HAL_OK) {
 946:Core/Src/main_unique.c ****             Error_Handler();
 947:Core/Src/main_unique.c ****         }
 948:Core/Src/main_unique.c **** 
 949:Core/Src/main_unique.c ****         /* Deja constancia de que el RTC ya esta puesto en hora */
 950:Core/Src/main_unique.c ****         HAL_RTCEx_BKUPWrite(&hrtc, RTC_BKP_DR0, RTC_BACKUP_SIGNATURE);
 951:Core/Src/main_unique.c ****     }
 952:Core/Src/main_unique.c **** 
 953:Core/Src/main_unique.c ****     /* --- 4. Despertador periodico de 1 s --------------------------------- */
 954:Core/Src/main_unique.c ****     /* Se desactiva primero por si quedo activo de una ejecucion anterior:
 955:Core/Src/main_unique.c ****        el dominio de respaldo no se reinicia con el reset del nucleo. */
 956:Core/Src/main_unique.c ****     HAL_RTCEx_DeactivateWakeUpTimer(&hrtc);
 957:Core/Src/main_unique.c **** 
 958:Core/Src/main_unique.c ****     HAL_NVIC_SetPriority(RTC_WKUP_IRQn, 9, 0);
 959:Core/Src/main_unique.c ****     HAL_NVIC_EnableIRQ(RTC_WKUP_IRQn);
 960:Core/Src/main_unique.c **** 
ARM GAS  /tmp/ccjBgtoi.s 			page 22


 961:Core/Src/main_unique.c ****     /* Contador 0 con reloj ck_spre (1 Hz) produce un evento cada segundo.
 962:Core/Src/main_unique.c ****        Alternativa: RTC_WAKEUPCLOCK_RTCCLK_DIV16, que permite periodos por
 963:Core/Src/main_unique.c ****        debajo del segundo a costa de un contador mas complejo. */
 964:Core/Src/main_unique.c ****     if (HAL_RTCEx_SetWakeUpTimer_IT(&hrtc, 0U,
 965:Core/Src/main_unique.c ****                                     RTC_WAKEUPCLOCK_CK_SPRE_16BITS) != HAL_OK) {
 966:Core/Src/main_unique.c ****         Error_Handler();
 967:Core/Src/main_unique.c ****     }
 968:Core/Src/main_unique.c **** }
 969:Core/Src/main_unique.c **** 
 970:Core/Src/main_unique.c **** /*
 971:Core/Src/main_unique.c ****  * rtc_get_time
 972:Core/Src/main_unique.c ****  * Lee hora y fecha. HAL_RTC_GetTime bloquea los registros sombra hasta que se
 973:Core/Src/main_unique.c ****  * lee la fecha, de modo que ambas llamadas deben hacerse siempre en pareja y
 974:Core/Src/main_unique.c ****  * en este orden; de lo contrario el contador deja de actualizar la lectura.
 975:Core/Src/main_unique.c ****  */
 976:Core/Src/main_unique.c **** void rtc_get_time(RTC_TimeTypeDef *t, RTC_DateTypeDef *d)
 977:Core/Src/main_unique.c **** {
 978:Core/Src/main_unique.c ****     HAL_RTC_GetTime(&hrtc, t, RTC_FORMAT_BIN);
 979:Core/Src/main_unique.c ****     HAL_RTC_GetDate(&hrtc, d, RTC_FORMAT_BIN);
 980:Core/Src/main_unique.c **** }
 981:Core/Src/main_unique.c **** 
 982:Core/Src/main_unique.c **** /*
 983:Core/Src/main_unique.c ****  * rtc_format_line
 984:Core/Src/main_unique.c ****  * Compone la cadena "HH:MM:SS DD-MM" en el buffer indicado.
 985:Core/Src/main_unique.c ****  */
 986:Core/Src/main_unique.c **** void rtc_format_line(char *dst, uint8_t len)
 987:Core/Src/main_unique.c **** {
 988:Core/Src/main_unique.c ****     RTC_TimeTypeDef t;
 989:Core/Src/main_unique.c ****     RTC_DateTypeDef d;
 990:Core/Src/main_unique.c **** 
 991:Core/Src/main_unique.c ****     rtc_get_time(&t, &d);
 992:Core/Src/main_unique.c **** 
 993:Core/Src/main_unique.c ****     snprintf(dst, len, "%02u:%02u:%02u %02u-%02u",
 994:Core/Src/main_unique.c ****              (unsigned)t.Hours, (unsigned)t.Minutes, (unsigned)t.Seconds,
 995:Core/Src/main_unique.c ****              (unsigned)d.Date,  (unsigned)d.Month);
 996:Core/Src/main_unique.c **** }
 997:Core/Src/main_unique.c **** 
 998:Core/Src/main_unique.c **** /*
 999:Core/Src/main_unique.c ****  * HAL_RTCEx_WakeUpTimerEventCallback
1000:Core/Src/main_unique.c ****  * Invocada cada segundo desde HAL_RTCEx_WakeUpTimerIRQHandler.
1001:Core/Src/main_unique.c ****  * Solo levanta una bandera: el refresco del LCD usa I2C y no puede ejecutarse
1002:Core/Src/main_unique.c ****  * en contexto de interrupcion.
1003:Core/Src/main_unique.c ****  */
1004:Core/Src/main_unique.c **** void HAL_RTCEx_WakeUpTimerEventCallback(RTC_HandleTypeDef *h)
1005:Core/Src/main_unique.c **** {
1006:Core/Src/main_unique.c ****     (void)h;                    /* parametro no usado: evita un aviso */
1007:Core/Src/main_unique.c ****     g_rtc_second_flag = 1U;
1008:Core/Src/main_unique.c **** }
1009:Core/Src/main_unique.c **** 
1010:Core/Src/main_unique.c **** /* ==========================================================================
1011:Core/Src/main_unique.c ****  * 10. MODULO i2c_lcd
1012:Core/Src/main_unique.c ****  *     LCD HD44780 gobernado por un expansor PCF8574 sobre el bus I2C1.
1013:Core/Src/main_unique.c ****  *
1014:Core/Src/main_unique.c ****  *     Conexionado por defecto: SCL -> PB8, SDA -> PB9.
1015:Core/Src/main_unique.c ****  *     Alternativo con -DLCD_USE_PB6_PB7: SCL -> PB6, SDA -> PB7.
1016:Core/Src/main_unique.c ****  *     VCC -> 5V (el HD44780 no funciona de forma fiable a 3.3 V), GND -> GND.
1017:Core/Src/main_unique.c ****  *
ARM GAS  /tmp/ccjBgtoi.s 			page 23


1018:Core/Src/main_unique.c ****  *     Bits del PCF8574 hacia el HD44780:
1019:Core/Src/main_unique.c ****  *       P0 -> RS   P1 -> RW   P2 -> EN   P3 -> luz   P4..P7 -> D4..D7
1020:Core/Src/main_unique.c ****  *
1021:Core/Src/main_unique.c ****  *     El HD44780 se opera en modo de 4 bits: cada byte se envia en dos
1022:Core/Src/main_unique.c ****  *     mitades (nibbles). Optimizacion importante: los cuatro estados que
1023:Core/Src/main_unique.c ****  *     componen un caracter se envian en UNA sola transaccion I2C de cuatro
1024:Core/Src/main_unique.c ****  *     bytes; el propio reloj del bus separa los flancos. Esto reduce el
1025:Core/Src/main_unique.c ****  *     tiempo de escritura de una linea de unos 64 ms a unos 7 ms.
1026:Core/Src/main_unique.c ****  * ========================================================================== */
1027:Core/Src/main_unique.c **** 
1028:Core/Src/main_unique.c **** /* Direccion de 7 bits del expansor detectada durante la inicializacion */
1029:Core/Src/main_unique.c **** static uint8_t  s_addr7   = 0x27U;
1030:Core/Src/main_unique.c **** 
1031:Core/Src/main_unique.c **** /* 1 si algun dispositivo respondio en el bus */
1032:Core/Src/main_unique.c **** static uint8_t  s_present = 0;
1033:Core/Src/main_unique.c **** 
1034:Core/Src/main_unique.c **** /* Numero de transacciones I2C que devolvieron error */
1035:Core/Src/main_unique.c **** static uint32_t s_errors  = 0;
1036:Core/Src/main_unique.c **** 
1037:Core/Src/main_unique.c **** /* Estado de la retroiluminacion: se mezcla con cada byte enviado */
1038:Core/Src/main_unique.c **** static uint8_t  s_backlight = 0x08U;   /* bit P3 a 1 = luz encendida */
1039:Core/Src/main_unique.c **** 
1040:Core/Src/main_unique.c **** /* Direcciones de memoria DDRAM donde empieza cada fila.
1041:Core/Src/main_unique.c ****    En los modulos de 4 filas las lineas no son contiguas:
1042:Core/Src/main_unique.c ****    la fila 3 continua a la fila 1 y la fila 4 continua a la fila 2. */
1043:Core/Src/main_unique.c **** static const uint8_t s_row_offset[LCD_ROWS] = { 0x00U, 0x40U, 0x14U, 0x54U };
1044:Core/Src/main_unique.c **** 
1045:Core/Src/main_unique.c **** /* ---------------------------------------------------------------------------
1046:Core/Src/main_unique.c ****  * Retardo de microsegundos basado en el contador de ciclos del nucleo (DWT).
1047:Core/Src/main_unique.c ****  * HAL_Delay solo ofrece resolucion de milisegundo, que aqui es tres ordenes de
1048:Core/Src/main_unique.c ****  * magnitud mas de lo necesario y hace el refresco inaceptablemente lento.
1049:Core/Src/main_unique.c ****  * El DWT existe en todos los Cortex-M3/M4/M7 y funciona sin depurador
1050:Core/Src/main_unique.c ****  * conectado, siempre que se habilite TRCENA.
1051:Core/Src/main_unique.c ****  * ------------------------------------------------------------------------- */
1052:Core/Src/main_unique.c **** static void dwt_init(void)
1053:Core/Src/main_unique.c **** {
 242              		.loc 1 1053 1 is_stmt 1 view -0
 243              		.cfi_startproc
 244              		@ args = 0, pretend = 0, frame = 0
 245              		@ frame_needed = 0, uses_anonymous_args = 0
 246              		@ link register save eliminated.
1054:Core/Src/main_unique.c ****     CoreDebug->DEMCR |= CoreDebug_DEMCR_TRCENA_Msk;  /* habilita el bloque de traza */
 247              		.loc 1 1054 5 view .LVU55
 248              		.loc 1 1054 14 is_stmt 0 view .LVU56
 249 0000 074A     		ldr	r2, .L19
 250 0002 D2F8FC30 		ldr	r3, [r2, #252]
 251              		.loc 1 1054 22 view .LVU57
 252 0006 43F08073 		orr	r3, r3, #16777216
 253 000a C2F8FC30 		str	r3, [r2, #252]
1055:Core/Src/main_unique.c ****     DWT->CYCCNT = 0U;                                /* reinicia el contador        */
 254              		.loc 1 1055 5 is_stmt 1 view .LVU58
 255              		.loc 1 1055 17 is_stmt 0 view .LVU59
 256 000e 054B     		ldr	r3, .L19+4
 257 0010 0022     		movs	r2, #0
 258 0012 5A60     		str	r2, [r3, #4]
1056:Core/Src/main_unique.c ****     DWT->CTRL  |= DWT_CTRL_CYCCNTENA_Msk;            /* arranca el contador         */
 259              		.loc 1 1056 5 is_stmt 1 view .LVU60
ARM GAS  /tmp/ccjBgtoi.s 			page 24


 260              		.loc 1 1056 8 is_stmt 0 view .LVU61
 261 0014 1A68     		ldr	r2, [r3]
 262              		.loc 1 1056 16 view .LVU62
 263 0016 42F00102 		orr	r2, r2, #1
 264 001a 1A60     		str	r2, [r3]
1057:Core/Src/main_unique.c **** }
 265              		.loc 1 1057 1 view .LVU63
 266 001c 7047     		bx	lr
 267              	.L20:
 268 001e 00BF     		.align	2
 269              	.L19:
 270 0020 00ED00E0 		.word	-536810240
 271 0024 001000E0 		.word	-536866816
 272              		.cfi_endproc
 273              	.LFE301:
 275              		.section	.text.delay_us,"ax",%progbits
 276              		.align	1
 277              		.syntax unified
 278              		.thumb
 279              		.thumb_func
 281              	delay_us:
 282              	.LVL17:
 283              	.LFB302:
1058:Core/Src/main_unique.c **** 
1059:Core/Src/main_unique.c **** static void delay_us(uint32_t us)
1060:Core/Src/main_unique.c **** {
 284              		.loc 1 1060 1 is_stmt 1 view -0
 285              		.cfi_startproc
 286              		@ args = 0, pretend = 0, frame = 0
 287              		@ frame_needed = 0, uses_anonymous_args = 0
 288              		@ link register save eliminated.
1061:Core/Src/main_unique.c ****     uint32_t start = DWT->CYCCNT;
 289              		.loc 1 1061 5 view .LVU65
 290              		.loc 1 1061 14 is_stmt 0 view .LVU66
 291 0000 084B     		ldr	r3, .L24
 292 0002 5A68     		ldr	r2, [r3, #4]
 293              	.LVL18:
1062:Core/Src/main_unique.c ****     /* A 100 MHz cada microsegundo son 100 ciclos */
1063:Core/Src/main_unique.c ****     uint32_t ticks = us * (SystemCoreClock / 1000000U);
 294              		.loc 1 1063 5 is_stmt 1 view .LVU67
 295              		.loc 1 1063 44 is_stmt 0 view .LVU68
 296 0004 084B     		ldr	r3, .L24+4
 297 0006 1B68     		ldr	r3, [r3]
 298 0008 0849     		ldr	r1, .L24+8
 299 000a A1FB0313 		umull	r1, r3, r1, r3
 300 000e 9B0C     		lsrs	r3, r3, #18
 301              		.loc 1 1063 14 view .LVU69
 302 0010 03FB00F0 		mul	r0, r3, r0
 303              	.LVL19:
1064:Core/Src/main_unique.c **** 
1065:Core/Src/main_unique.c ****     /* La resta de enteros sin signo es correcta aunque CYCCNT desborde */
1066:Core/Src/main_unique.c ****     while ((DWT->CYCCNT - start) < ticks) {
 304              		.loc 1 1066 5 is_stmt 1 view .LVU70
 305              		.loc 1 1066 11 is_stmt 0 view .LVU71
 306 0014 00E0     		b	.L22
 307              	.L23:
1067:Core/Src/main_unique.c ****         __NOP();
ARM GAS  /tmp/ccjBgtoi.s 			page 25


 308              		.loc 1 1067 9 is_stmt 1 view .LVU72
 309              		.syntax unified
 310              	@ 1067 "Core/Src/main_unique.c" 1
 311 0016 00BF     		nop
 312              	@ 0 "" 2
 313              		.thumb
 314              		.syntax unified
 315              	.L22:
1066:Core/Src/main_unique.c ****         __NOP();
 316              		.loc 1 1066 34 discriminator 1 view .LVU73
1066:Core/Src/main_unique.c ****         __NOP();
 317              		.loc 1 1066 16 is_stmt 0 discriminator 1 view .LVU74
 318 0018 024B     		ldr	r3, .L24
 319 001a 5B68     		ldr	r3, [r3, #4]
1066:Core/Src/main_unique.c ****         __NOP();
 320              		.loc 1 1066 25 discriminator 1 view .LVU75
 321 001c 9B1A     		subs	r3, r3, r2
1066:Core/Src/main_unique.c ****         __NOP();
 322              		.loc 1 1066 34 discriminator 1 view .LVU76
 323 001e 8342     		cmp	r3, r0
 324 0020 F9D3     		bcc	.L23
1068:Core/Src/main_unique.c ****     }
1069:Core/Src/main_unique.c **** }
 325              		.loc 1 1069 1 view .LVU77
 326 0022 7047     		bx	lr
 327              	.L25:
 328              		.align	2
 329              	.L24:
 330 0024 001000E0 		.word	-536866816
 331 0028 00000000 		.word	SystemCoreClock
 332 002c 83DE1B43 		.word	1125899907
 333              		.cfi_endproc
 334              	.LFE302:
 336              		.section	.text.fsm_get_event,"ax",%progbits
 337              		.align	1
 338              		.syntax unified
 339              		.thumb
 340              		.thumb_func
 342              	fsm_get_event:
 343              	.LFB321:
1070:Core/Src/main_unique.c **** 
1071:Core/Src/main_unique.c **** /* --- Capa fisica --------------------------------------------------------- */
1072:Core/Src/main_unique.c **** 
1073:Core/Src/main_unique.c **** /*
1074:Core/Src/main_unique.c ****  * lcd_tx
1075:Core/Src/main_unique.c ****  * Envia n bytes al PCF8574 en una sola transaccion. Devuelve 1 si tuvo exito.
1076:Core/Src/main_unique.c ****  * Contabiliza los fallos para poder diagnosticarlos desde la consola.
1077:Core/Src/main_unique.c ****  */
1078:Core/Src/main_unique.c **** static uint8_t lcd_tx(uint8_t *data, uint16_t n)
1079:Core/Src/main_unique.c **** {
1080:Core/Src/main_unique.c ****     HAL_StatusTypeDef st;
1081:Core/Src/main_unique.c **** 
1082:Core/Src/main_unique.c ****     /* La HAL espera la direccion de 8 bits: el bit 0 queda reservado al
1083:Core/Src/main_unique.c ****        sentido de la transferencia, de ahi el desplazamiento a la izquierda.
1084:Core/Src/main_unique.c ****        Pasar 0x27 en lugar de 0x4E es el error mas frecuente al portar codigo
1085:Core/Src/main_unique.c ****        de Arduino, donde la libreria Wire espera los 7 bits sin desplazar. */
1086:Core/Src/main_unique.c ****     st = HAL_I2C_Master_Transmit(&hi2c1, (uint16_t)(s_addr7 << 1), data, n, 50U);
ARM GAS  /tmp/ccjBgtoi.s 			page 26


1087:Core/Src/main_unique.c **** 
1088:Core/Src/main_unique.c ****     if (st != HAL_OK) {
1089:Core/Src/main_unique.c ****         s_errors++;
1090:Core/Src/main_unique.c ****         return 0U;
1091:Core/Src/main_unique.c ****     }
1092:Core/Src/main_unique.c ****     return 1U;
1093:Core/Src/main_unique.c **** }
1094:Core/Src/main_unique.c **** 
1095:Core/Src/main_unique.c **** /*
1096:Core/Src/main_unique.c ****  * lcd_send
1097:Core/Src/main_unique.c ****  * Envia un byte completo al controlador en dos nibbles, con los cuatro
1098:Core/Src/main_unique.c ****  * estados de la linea EN agrupados en una unica transaccion I2C.
1099:Core/Src/main_unique.c ****  * mode = 0x00 -> comando (RS = 0);  mode = 0x01 -> dato (RS = 1).
1100:Core/Src/main_unique.c ****  */
1101:Core/Src/main_unique.c **** static void lcd_send(uint8_t value, uint8_t mode)
1102:Core/Src/main_unique.c **** {
1103:Core/Src/main_unique.c ****     uint8_t hi = (uint8_t)((value & 0xF0U)        | mode | s_backlight);
1104:Core/Src/main_unique.c ****     uint8_t lo = (uint8_t)(((value << 4) & 0xF0U) | mode | s_backlight);
1105:Core/Src/main_unique.c **** 
1106:Core/Src/main_unique.c ****     uint8_t seq[4];
1107:Core/Src/main_unique.c ****     seq[0] = (uint8_t)(hi | 0x04U);   /* nibble alto, EN = 1 */
1108:Core/Src/main_unique.c ****     seq[1] = (uint8_t)(hi & ~0x04U);  /* nibble alto, EN = 0 -> captura */
1109:Core/Src/main_unique.c ****     seq[2] = (uint8_t)(lo | 0x04U);   /* nibble bajo, EN = 1 */
1110:Core/Src/main_unique.c ****     seq[3] = (uint8_t)(lo & ~0x04U);  /* nibble bajo, EN = 0 -> captura */
1111:Core/Src/main_unique.c **** 
1112:Core/Src/main_unique.c ****     lcd_tx(seq, 4U);
1113:Core/Src/main_unique.c **** 
1114:Core/Src/main_unique.c ****     /* El HD44780 necesita 37 us para ejecutar la mayoria de instrucciones.
1115:Core/Src/main_unique.c ****        Los comandos lentos (borrado, retorno a origen) anaden su propia espera. */
1116:Core/Src/main_unique.c ****     delay_us(50U);
1117:Core/Src/main_unique.c **** }
1118:Core/Src/main_unique.c **** 
1119:Core/Src/main_unique.c **** /*
1120:Core/Src/main_unique.c ****  * lcd_pulse_nibble
1121:Core/Src/main_unique.c ****  * Variante para la secuencia de arranque, donde solo se envia el nibble alto
1122:Core/Src/main_unique.c ****  * porque el controlador aun no esta en modo de 4 bits.
1123:Core/Src/main_unique.c ****  */
1124:Core/Src/main_unique.c **** static void lcd_pulse_nibble(uint8_t nibble)
1125:Core/Src/main_unique.c **** {
1126:Core/Src/main_unique.c ****     uint8_t seq[2];
1127:Core/Src/main_unique.c ****     seq[0] = (uint8_t)(nibble | 0x04U);
1128:Core/Src/main_unique.c ****     seq[1] = (uint8_t)(nibble & ~0x04U);
1129:Core/Src/main_unique.c **** 
1130:Core/Src/main_unique.c ****     lcd_tx(seq, 2U);
1131:Core/Src/main_unique.c ****     delay_us(50U);
1132:Core/Src/main_unique.c **** }
1133:Core/Src/main_unique.c **** 
1134:Core/Src/main_unique.c **** static void lcd_command(uint8_t c) { lcd_send(c, 0x00U); }
1135:Core/Src/main_unique.c **** static void lcd_data(uint8_t c)    { lcd_send(c, 0x01U); }
1136:Core/Src/main_unique.c **** 
1137:Core/Src/main_unique.c **** /* --- Bus I2C ------------------------------------------------------------- */
1138:Core/Src/main_unique.c **** static void i2c_bus_init(void)
1139:Core/Src/main_unique.c **** {
1140:Core/Src/main_unique.c ****     __HAL_RCC_I2C1_CLK_ENABLE();
1141:Core/Src/main_unique.c **** 
1142:Core/Src/main_unique.c ****     hi2c1.Instance             = I2C1;
1143:Core/Src/main_unique.c ****     hi2c1.Init.ClockSpeed      = 100000U;  /* 100 kHz, modo estandar */
ARM GAS  /tmp/ccjBgtoi.s 			page 27


1144:Core/Src/main_unique.c ****     hi2c1.Init.DutyCycle       = I2C_DUTYCYCLE_2;
1145:Core/Src/main_unique.c ****     hi2c1.Init.OwnAddress1     = 0U;
1146:Core/Src/main_unique.c ****     hi2c1.Init.AddressingMode  = I2C_ADDRESSINGMODE_7BIT;
1147:Core/Src/main_unique.c ****     hi2c1.Init.DualAddressMode = I2C_DUALADDRESS_DISABLE;
1148:Core/Src/main_unique.c ****     hi2c1.Init.OwnAddress2     = 0U;
1149:Core/Src/main_unique.c ****     hi2c1.Init.GeneralCallMode = I2C_GENERALCALL_DISABLE;
1150:Core/Src/main_unique.c ****     hi2c1.Init.NoStretchMode   = I2C_NOSTRETCH_DISABLE;
1151:Core/Src/main_unique.c **** 
1152:Core/Src/main_unique.c ****     if (HAL_I2C_Init(&hi2c1) != HAL_OK) {
1153:Core/Src/main_unique.c ****         Error_Handler();
1154:Core/Src/main_unique.c ****     }
1155:Core/Src/main_unique.c **** }
1156:Core/Src/main_unique.c **** 
1157:Core/Src/main_unique.c **** /*
1158:Core/Src/main_unique.c ****  * lcd_bus_scan_report
1159:Core/Src/main_unique.c ****  * Recorre todas las direcciones validas de 7 bits e informa por la consola de
1160:Core/Src/main_unique.c ****  * cuales responden. Es la herramienta de diagnostico decisiva: distingue un
1161:Core/Src/main_unique.c ****  * problema de direccion (responde algo, pero en otra direccion) de un problema
1162:Core/Src/main_unique.c ****  * de cableado o alimentacion (no responde nadie).
1163:Core/Src/main_unique.c ****  */
1164:Core/Src/main_unique.c **** void lcd_bus_scan_report(void)
1165:Core/Src/main_unique.c **** {
1166:Core/Src/main_unique.c ****     char    buf[48];
1167:Core/Src/main_unique.c ****     uint8_t found = 0U;
1168:Core/Src/main_unique.c ****     uint8_t a;
1169:Core/Src/main_unique.c **** 
1170:Core/Src/main_unique.c ****     uart_send_line("");
1171:Core/Src/main_unique.c ****     uart_send_line("--- Sondeo del bus I2C1 ---");
1172:Core/Src/main_unique.c **** 
1173:Core/Src/main_unique.c ****     /* 0x00 a 0x07 y 0x78 a 0x7F estan reservadas por la especificacion I2C */
1174:Core/Src/main_unique.c ****     for (a = 0x08U; a <= 0x77U; a++) {
1175:Core/Src/main_unique.c ****         if (HAL_I2C_IsDeviceReady(&hi2c1, (uint16_t)(a << 1), 2U, 5U) == HAL_OK) {
1176:Core/Src/main_unique.c ****             snprintf(buf, sizeof(buf), "  dispositivo en 0x%02X", (unsigned)a);
1177:Core/Src/main_unique.c ****             uart_send_line(buf);
1178:Core/Src/main_unique.c ****             found++;
1179:Core/Src/main_unique.c ****         }
1180:Core/Src/main_unique.c ****     }
1181:Core/Src/main_unique.c **** 
1182:Core/Src/main_unique.c ****     if (found == 0U) {
1183:Core/Src/main_unique.c ****         uart_send_line("  NINGUN dispositivo responde.");
1184:Core/Src/main_unique.c ****         uart_send_line("  Revisar: alimentacion del modulo, SDA/SCL sin cruzar,");
1185:Core/Src/main_unique.c ****         uart_send_line("  GND comun y resistencias de pull-up.");
1186:Core/Src/main_unique.c ****     } else {
1187:Core/Src/main_unique.c ****         snprintf(buf, sizeof(buf), "  total: %u dispositivo(s)", (unsigned)found);
1188:Core/Src/main_unique.c ****         uart_send_line(buf);
1189:Core/Src/main_unique.c ****     }
1190:Core/Src/main_unique.c ****     uart_send_line("---------------------------");
1191:Core/Src/main_unique.c **** }
1192:Core/Src/main_unique.c **** 
1193:Core/Src/main_unique.c **** /* --- Inicializacion del controlador -------------------------------------- */
1194:Core/Src/main_unique.c **** void lcd_init(void)
1195:Core/Src/main_unique.c **** {
1196:Core/Src/main_unique.c ****     char    buf[48];
1197:Core/Src/main_unique.c ****     uint8_t a;
1198:Core/Src/main_unique.c **** 
1199:Core/Src/main_unique.c ****     dwt_init();
1200:Core/Src/main_unique.c ****     i2c_bus_init();
ARM GAS  /tmp/ccjBgtoi.s 			page 28


1201:Core/Src/main_unique.c **** 
1202:Core/Src/main_unique.c ****     /* Deteccion automatica de la direccion. En lugar de probar solo 0x27 y
1203:Core/Src/main_unique.c ****        0x3F se recorren los dos rangos completos que puede ocupar el expansor
1204:Core/Src/main_unique.c ****        segun el estado de sus puentes A0/A1/A2:
1205:Core/Src/main_unique.c ****          PCF8574  -> 0x20 a 0x27
1206:Core/Src/main_unique.c ****          PCF8574A -> 0x38 a 0x3F
1207:Core/Src/main_unique.c ****        Asi el firmware funciona con cualquier modulo comercial sin recompilar. */
1208:Core/Src/main_unique.c ****     s_present = 0U;
1209:Core/Src/main_unique.c **** 
1210:Core/Src/main_unique.c ****     for (a = 0x20U; a <= 0x27U; a++) {
1211:Core/Src/main_unique.c ****         if (HAL_I2C_IsDeviceReady(&hi2c1, (uint16_t)(a << 1), 2U, 10U) == HAL_OK) {
1212:Core/Src/main_unique.c ****             s_addr7 = a; s_present = 1U; break;
1213:Core/Src/main_unique.c ****         }
1214:Core/Src/main_unique.c ****     }
1215:Core/Src/main_unique.c ****     if (!s_present) {
1216:Core/Src/main_unique.c ****         for (a = 0x38U; a <= 0x3FU; a++) {
1217:Core/Src/main_unique.c ****             if (HAL_I2C_IsDeviceReady(&hi2c1, (uint16_t)(a << 1), 2U, 10U) == HAL_OK) {
1218:Core/Src/main_unique.c ****                 s_addr7 = a; s_present = 1U; break;
1219:Core/Src/main_unique.c ****             }
1220:Core/Src/main_unique.c ****         }
1221:Core/Src/main_unique.c ****     }
1222:Core/Src/main_unique.c **** 
1223:Core/Src/main_unique.c ****     if (s_present) {
1224:Core/Src/main_unique.c ****         snprintf(buf, sizeof(buf), "LCD: expansor detectado en 0x%02X",
1225:Core/Src/main_unique.c ****                  (unsigned)s_addr7);
1226:Core/Src/main_unique.c ****         uart_send_line(buf);
1227:Core/Src/main_unique.c ****     } else {
1228:Core/Src/main_unique.c ****         uart_send_line("LCD: NO se detecto ningun expansor I2C.");
1229:Core/Src/main_unique.c ****         lcd_bus_scan_report();
1230:Core/Src/main_unique.c ****         return;   /* sin dispositivo no tiene sentido enviar la secuencia */
1231:Core/Src/main_unique.c ****     }
1232:Core/Src/main_unique.c **** 
1233:Core/Src/main_unique.c ****     /* Secuencia de arranque prescrita en la hoja de datos del HD44780 */
1234:Core/Src/main_unique.c ****     HAL_Delay(50);              /* espera a que VCC se estabilice (>40 ms) */
1235:Core/Src/main_unique.c **** 
1236:Core/Src/main_unique.c ****     lcd_pulse_nibble(0x30U | s_backlight);  HAL_Delay(5);  /* 8 bits, intento 1 */
1237:Core/Src/main_unique.c ****     lcd_pulse_nibble(0x30U | s_backlight);  HAL_Delay(1);  /* intento 2         */
1238:Core/Src/main_unique.c ****     lcd_pulse_nibble(0x30U | s_backlight);  HAL_Delay(1);  /* intento 3         */
1239:Core/Src/main_unique.c ****     lcd_pulse_nibble(0x20U | s_backlight);  HAL_Delay(1);  /* conmuta a 4 bits  */
1240:Core/Src/main_unique.c **** 
1241:Core/Src/main_unique.c ****     lcd_command(0x28U);   /* Function set: 4 bits, 2 lineas logicas, fuente 5x8 */
1242:Core/Src/main_unique.c ****     lcd_command(0x08U);   /* Display off                                        */
1243:Core/Src/main_unique.c ****     lcd_command(0x01U);   /* Clear display                                      */
1244:Core/Src/main_unique.c ****     HAL_Delay(2);         /* el borrado tarda 1.52 ms                           */
1245:Core/Src/main_unique.c ****     lcd_command(0x06U);   /* Entry mode: incrementa el cursor, sin desplazar    */
1246:Core/Src/main_unique.c ****     lcd_command(0x0CU);   /* Display on, cursor oculto, sin parpadeo.
1247:Core/Src/main_unique.c ****                              Alternativas: 0x0E muestra el cursor, 0x0F lo hace
1248:Core/Src/main_unique.c ****                              parpadear                                          */
1249:Core/Src/main_unique.c **** 
1250:Core/Src/main_unique.c ****     if (s_errors != 0U) {
1251:Core/Src/main_unique.c ****         snprintf(buf, sizeof(buf), "LCD: %lu fallos I2C durante el arranque",
1252:Core/Src/main_unique.c ****                  (unsigned long)s_errors);
1253:Core/Src/main_unique.c ****         uart_send_line(buf);
1254:Core/Src/main_unique.c ****     }
1255:Core/Src/main_unique.c **** }
1256:Core/Src/main_unique.c **** 
1257:Core/Src/main_unique.c **** /* --- Interfaz de dibujo -------------------------------------------------- */
ARM GAS  /tmp/ccjBgtoi.s 			page 29


1258:Core/Src/main_unique.c **** void lcd_clear(void)
1259:Core/Src/main_unique.c **** {
1260:Core/Src/main_unique.c ****     if (!s_present) return;
1261:Core/Src/main_unique.c ****     lcd_command(0x01U);
1262:Core/Src/main_unique.c ****     HAL_Delay(2);
1263:Core/Src/main_unique.c **** }
1264:Core/Src/main_unique.c **** 
1265:Core/Src/main_unique.c **** void lcd_set_cursor(uint8_t row, uint8_t col)
1266:Core/Src/main_unique.c **** {
1267:Core/Src/main_unique.c ****     if (!s_present) return;
1268:Core/Src/main_unique.c ****     if (row >= LCD_ROWS) row = LCD_ROWS - 1U;
1269:Core/Src/main_unique.c ****     if (col >= LCD_COLS) col = LCD_COLS - 1U;
1270:Core/Src/main_unique.c **** 
1271:Core/Src/main_unique.c ****     /* El comando Set DDRAM Address lleva el bit 7 a 1 */
1272:Core/Src/main_unique.c ****     lcd_command((uint8_t)(0x80U | (s_row_offset[row] + col)));
1273:Core/Src/main_unique.c **** }
1274:Core/Src/main_unique.c **** 
1275:Core/Src/main_unique.c **** void lcd_print(const char *s)
1276:Core/Src/main_unique.c **** {
1277:Core/Src/main_unique.c ****     if (!s_present) return;
1278:Core/Src/main_unique.c ****     while (*s != '\0') {
1279:Core/Src/main_unique.c ****         lcd_data((uint8_t)*s++);
1280:Core/Src/main_unique.c ****     }
1281:Core/Src/main_unique.c **** }
1282:Core/Src/main_unique.c **** 
1283:Core/Src/main_unique.c **** /*
1284:Core/Src/main_unique.c ****  * lcd_print_line
1285:Core/Src/main_unique.c ****  * Escribe una linea completa rellenando con espacios hasta el final, de forma
1286:Core/Src/main_unique.c ****  * que no queden restos del texto anterior. Evita tener que borrar la pantalla
1287:Core/Src/main_unique.c ****  * entera, operacion lenta que produce parpadeo visible.
1288:Core/Src/main_unique.c ****  */
1289:Core/Src/main_unique.c **** void lcd_print_line(uint8_t row, const char *s)
1290:Core/Src/main_unique.c **** {
1291:Core/Src/main_unique.c ****     uint8_t i;
1292:Core/Src/main_unique.c ****     uint8_t end = 0U;   /* 1 cuando ya se alcanzo el fin de la cadena */
1293:Core/Src/main_unique.c **** 
1294:Core/Src/main_unique.c ****     if (!s_present) return;
1295:Core/Src/main_unique.c **** 
1296:Core/Src/main_unique.c ****     lcd_set_cursor(row, 0U);
1297:Core/Src/main_unique.c **** 
1298:Core/Src/main_unique.c ****     for (i = 0U; i < LCD_COLS; i++) {
1299:Core/Src/main_unique.c ****         if (!end && (s[i] == '\0')) {
1300:Core/Src/main_unique.c ****             end = 1U;
1301:Core/Src/main_unique.c ****         }
1302:Core/Src/main_unique.c ****         lcd_data((uint8_t)(end ? ' ' : s[i]));
1303:Core/Src/main_unique.c ****     }
1304:Core/Src/main_unique.c **** }
1305:Core/Src/main_unique.c **** 
1306:Core/Src/main_unique.c **** /* --- Diagnostico --------------------------------------------------------- */
1307:Core/Src/main_unique.c **** uint8_t  lcd_is_present(void)  { return s_present; }
1308:Core/Src/main_unique.c **** uint8_t  lcd_address(void)     { return s_addr7;   }
1309:Core/Src/main_unique.c **** uint32_t lcd_error_count(void) { return s_errors;  }
1310:Core/Src/main_unique.c **** 
1311:Core/Src/main_unique.c **** /* ==========================================================================
1312:Core/Src/main_unique.c ****  * 11. MODULO timer
1313:Core/Src/main_unique.c ****  *     TIM3 (LED a 250 ms) y TIM4 (base de tiempo de 100 ms).
1314:Core/Src/main_unique.c ****  *
ARM GAS  /tmp/ccjBgtoi.s 			page 30


1315:Core/Src/main_unique.c ****  *     Calculo de la temporizacion:
1316:Core/Src/main_unique.c ****  *       f_TIM = f_APB1 * 2 = 50 MHz * 2 = 100 MHz
1317:Core/Src/main_unique.c ****  *       f_cnt = f_TIM / (PSC + 1)
1318:Core/Src/main_unique.c ****  *       T     = (ARR + 1) / f_cnt
1319:Core/Src/main_unique.c ****  *
1320:Core/Src/main_unique.c ****  *     TIM3: PSC = 9999 -> f_cnt = 10 kHz; ARR = 2499 -> T = 250 ms
1321:Core/Src/main_unique.c ****  *     TIM4: PSC = 9999 -> f_cnt = 10 kHz; ARR =  999 -> T = 100 ms
1322:Core/Src/main_unique.c ****  *
1323:Core/Src/main_unique.c ****  *     Se eligen PSC y ARR de forma que ARR quede lo mas grande posible dentro
1324:Core/Src/main_unique.c ****  *     de los 16 bits: cuanto mayor es ARR, mejor la resolucion del periodo.
1325:Core/Src/main_unique.c ****  * ========================================================================== */
1326:Core/Src/main_unique.c **** 
1327:Core/Src/main_unique.c **** void timer_init(void)
1328:Core/Src/main_unique.c **** {
1329:Core/Src/main_unique.c ****     TIM_ClockConfigTypeDef  src = {0};  /* fuente de reloj del contador   */
1330:Core/Src/main_unique.c ****     TIM_MasterConfigTypeDef mst = {0};  /* configuracion maestro/esclavo  */
1331:Core/Src/main_unique.c **** 
1332:Core/Src/main_unique.c ****     /* ================= TIM3: parpadeo del LED cada 250 ms ============== */
1333:Core/Src/main_unique.c ****     __HAL_RCC_TIM3_CLK_ENABLE();         /* reloj del periferico TIM3      */
1334:Core/Src/main_unique.c **** 
1335:Core/Src/main_unique.c ****     htim3.Instance           = TIM3;
1336:Core/Src/main_unique.c ****     htim3.Init.Prescaler     = 10000U - 1U;  /* divide 100 MHz hasta 10 kHz */
1337:Core/Src/main_unique.c ****     htim3.Init.CounterMode   = TIM_COUNTERMODE_UP;  /* cuenta 0 -> ARR.
1338:Core/Src/main_unique.c ****                                         Alternativas: DOWN, CENTERALIGNED1/2/3 */
1339:Core/Src/main_unique.c ****     htim3.Init.Period        = 2500U - 1U;   /* 2500 pasos de 100 us = 250 ms */
1340:Core/Src/main_unique.c ****     htim3.Init.ClockDivision = TIM_CLOCKDIVISION_DIV1;  /* divisor del filtro
1341:Core/Src/main_unique.c ****                                         digital de las entradas, no del contador */
1342:Core/Src/main_unique.c ****     htim3.Init.AutoReloadPreload = TIM_AUTORELOAD_PRELOAD_DISABLE;
1343:Core/Src/main_unique.c ****                                         /* ARR se escribe de inmediato; con
1344:Core/Src/main_unique.c ****                                            PRELOAD_ENABLE se aplicaria en el
1345:Core/Src/main_unique.c ****                                            siguiente evento de actualizacion */
1346:Core/Src/main_unique.c **** 
1347:Core/Src/main_unique.c ****     if (HAL_TIM_Base_Init(&htim3) != HAL_OK) {
1348:Core/Src/main_unique.c ****         Error_Handler();
1349:Core/Src/main_unique.c ****     }
1350:Core/Src/main_unique.c **** 
1351:Core/Src/main_unique.c ****     /* Reloj interno del microcontrolador como fuente del contador.
1352:Core/Src/main_unique.c ****        Alternativas: ETR externo, o el reloj de otro temporizador (ITRx). */
1353:Core/Src/main_unique.c ****     src.ClockSource = TIM_CLOCKSOURCE_INTERNAL;
1354:Core/Src/main_unique.c ****     if (HAL_TIM_ConfigClockSource(&htim3, &src) != HAL_OK) {
1355:Core/Src/main_unique.c ****         Error_Handler();
1356:Core/Src/main_unique.c ****     }
1357:Core/Src/main_unique.c **** 
1358:Core/Src/main_unique.c ****     /* TIM3 no dispara a ningun otro periferico: TRGO en RESET */
1359:Core/Src/main_unique.c ****     mst.MasterOutputTrigger = TIM_TRGO_RESET;
1360:Core/Src/main_unique.c ****     mst.MasterSlaveMode     = TIM_MASTERSLAVEMODE_DISABLE;
1361:Core/Src/main_unique.c ****     if (HAL_TIMEx_MasterConfigSynchronization(&htim3, &mst) != HAL_OK) {
1362:Core/Src/main_unique.c ****         Error_Handler();
1363:Core/Src/main_unique.c ****     }
1364:Core/Src/main_unique.c **** 
1365:Core/Src/main_unique.c ****     /* ================= TIM4: base de tiempo de 100 ms ================== */
1366:Core/Src/main_unique.c ****     __HAL_RCC_TIM4_CLK_ENABLE();
1367:Core/Src/main_unique.c **** 
1368:Core/Src/main_unique.c ****     htim4.Instance               = TIM4;
1369:Core/Src/main_unique.c ****     htim4.Init.Prescaler         = 10000U - 1U;   /* 10 kHz            */
1370:Core/Src/main_unique.c ****     htim4.Init.CounterMode       = TIM_COUNTERMODE_UP;
1371:Core/Src/main_unique.c ****     htim4.Init.Period            = 1000U - 1U;    /* 1000 * 100 us = 100 ms */
ARM GAS  /tmp/ccjBgtoi.s 			page 31


1372:Core/Src/main_unique.c ****     htim4.Init.ClockDivision     = TIM_CLOCKDIVISION_DIV1;
1373:Core/Src/main_unique.c ****     htim4.Init.AutoReloadPreload = TIM_AUTORELOAD_PRELOAD_DISABLE;
1374:Core/Src/main_unique.c **** 
1375:Core/Src/main_unique.c ****     if (HAL_TIM_Base_Init(&htim4) != HAL_OK) {
1376:Core/Src/main_unique.c ****         Error_Handler();
1377:Core/Src/main_unique.c ****     }
1378:Core/Src/main_unique.c ****     src.ClockSource = TIM_CLOCKSOURCE_INTERNAL;
1379:Core/Src/main_unique.c ****     if (HAL_TIM_ConfigClockSource(&htim4, &src) != HAL_OK) {
1380:Core/Src/main_unique.c ****         Error_Handler();
1381:Core/Src/main_unique.c ****     }
1382:Core/Src/main_unique.c ****     if (HAL_TIMEx_MasterConfigSynchronization(&htim4, &mst) != HAL_OK) {
1383:Core/Src/main_unique.c ****         Error_Handler();
1384:Core/Src/main_unique.c ****     }
1385:Core/Src/main_unique.c **** 
1386:Core/Src/main_unique.c ****     /* ================= Interrupciones y arranque ======================= */
1387:Core/Src/main_unique.c ****     /* Prioridad 7: por debajo de la UART (5) y del ADC (6) */
1388:Core/Src/main_unique.c ****     HAL_NVIC_SetPriority(TIM3_IRQn, 7, 0);
1389:Core/Src/main_unique.c ****     HAL_NVIC_EnableIRQ(TIM3_IRQn);
1390:Core/Src/main_unique.c ****     HAL_NVIC_SetPriority(TIM4_IRQn, 7, 0);
1391:Core/Src/main_unique.c ****     HAL_NVIC_EnableIRQ(TIM4_IRQn);
1392:Core/Src/main_unique.c **** 
1393:Core/Src/main_unique.c ****     /* _IT arranca el contador y habilita la interrupcion de actualizacion.
1394:Core/Src/main_unique.c ****        La variante HAL_TIM_Base_Start() arrancaria el contador sin interrupcion,
1395:Core/Src/main_unique.c ****        obligando a sondear el flag, lo que el enunciado prohibe. */
1396:Core/Src/main_unique.c ****     HAL_TIM_Base_Start_IT(&htim3);
1397:Core/Src/main_unique.c ****     HAL_TIM_Base_Start_IT(&htim4);
1398:Core/Src/main_unique.c **** }
1399:Core/Src/main_unique.c **** 
1400:Core/Src/main_unique.c **** /*
1401:Core/Src/main_unique.c ****  * HAL_TIM_PeriodElapsedCallback
1402:Core/Src/main_unique.c ****  * Callback comun a todos los temporizadores: la HAL la invoca desde
1403:Core/Src/main_unique.c ****  * HAL_TIM_IRQHandler cuando el contador desborda. Se distingue el origen
1404:Core/Src/main_unique.c ****  * comparando el puntero de instancia.
1405:Core/Src/main_unique.c ****  *
1406:Core/Src/main_unique.c ****  * Esta funcion se ejecuta en contexto de interrupcion: debe ser breve y no
1407:Core/Src/main_unique.c ****  * puede usar HAL_Delay ni operaciones de I2C.
1408:Core/Src/main_unique.c ****  */
1409:Core/Src/main_unique.c **** void HAL_TIM_PeriodElapsedCallback(TIM_HandleTypeDef *htim)
1410:Core/Src/main_unique.c **** {
1411:Core/Src/main_unique.c ****     if (htim->Instance == TIM3) {
1412:Core/Src/main_unique.c ****         /* Cada 250 ms: conmuta el LED de PH1 */
1413:Core/Src/main_unique.c ****         gpio_led_toggle();
1414:Core/Src/main_unique.c ****     }
1415:Core/Src/main_unique.c ****     else if (htim->Instance == TIM4) {
1416:Core/Src/main_unique.c ****         /* Cada 100 ms: lanza la lectura del joystick y avisa a la FSM */
1417:Core/Src/main_unique.c ****         adc_joystick_start();          /* arranca la conversion por interrupcion */
1418:Core/Src/main_unique.c ****         fsm_post_event(EV_TICK_100MS); /* encola el evento periodico             */
1419:Core/Src/main_unique.c ****     }
1420:Core/Src/main_unique.c **** }
1421:Core/Src/main_unique.c **** 
1422:Core/Src/main_unique.c **** /* ==========================================================================
1423:Core/Src/main_unique.c ****  * 12. MODULO fsm
1424:Core/Src/main_unique.c ****  *     Maquina de estados finitos y logica de presentacion.
1425:Core/Src/main_unique.c ****  *
1426:Core/Src/main_unique.c ****  *     Arquitectura: productor-consumidor.
1427:Core/Src/main_unique.c ****  *       - Productores: las rutinas de interrupcion (UART, TIM4, EXTI, RTC).
1428:Core/Src/main_unique.c ****  *         Solo depositan un evento en una cola circular y retornan.
ARM GAS  /tmp/ccjBgtoi.s 			page 32


1429:Core/Src/main_unique.c ****  *       - Consumidor: fsm_run(), llamado desde el bucle infinito de main().
1430:Core/Src/main_unique.c ****  *         Extrae los eventos y ejecuta las transiciones y el refresco del LCD.
1431:Core/Src/main_unique.c ****  *
1432:Core/Src/main_unique.c ****  *     Distribucion de la pantalla:
1433:Core/Src/main_unique.c ****  *       Fila 0: HH:MM:SS DD-MM
1434:Core/Src/main_unique.c ****  *       Fila 1: texto movil, o "MODO X" / "MODO Y", o mensaje temporal
1435:Core/Src/main_unique.c ****  *       Fila 2: X:<coordenada> ADC:<muestra cruda>
1436:Core/Src/main_unique.c ****  *       Fila 3: Y:<coordenada> ADC:<muestra cruda>
1437:Core/Src/main_unique.c ****  * ========================================================================== */
1438:Core/Src/main_unique.c **** 
1439:Core/Src/main_unique.c **** /* ----------------------- Cola circular de eventos ------------------------ */
1440:Core/Src/main_unique.c **** #define EVQ_SIZE  32U   /* holgado: los eventos se consumen en pocos ms */
1441:Core/Src/main_unique.c **** 
1442:Core/Src/main_unique.c **** static volatile fsm_event_t s_evq[EVQ_SIZE];
1443:Core/Src/main_unique.c **** static volatile uint8_t     s_evq_head = 0;   /* escribe la ISR    */
1444:Core/Src/main_unique.c **** static volatile uint8_t     s_evq_tail = 0;   /* lee el bucle main */
1445:Core/Src/main_unique.c **** 
1446:Core/Src/main_unique.c **** /* ----------------------- Variables de estado ----------------------------- */
1447:Core/Src/main_unique.c **** static fsm_state_t s_state = ST_INIT;
1448:Core/Src/main_unique.c **** static fsm_state_t s_prev  = ST_IDLE;   /* estado al que volver tras un mensaje */
1449:Core/Src/main_unique.c **** 
1450:Core/Src/main_unique.c **** /* Coordenadas gobernadas conjuntamente por el joystick y por la UART */
1451:Core/Src/main_unique.c **** static int16_t s_coord_x = 0;
1452:Core/Src/main_unique.c **** static int16_t s_coord_y = 0;
1453:Core/Src/main_unique.c **** 
1454:Core/Src/main_unique.c **** #define COORD_MIN  (-999)
1455:Core/Src/main_unique.c **** #define COORD_MAX  ( 999)
1456:Core/Src/main_unique.c **** 
1457:Core/Src/main_unique.c **** /* Texto de la fila 1 y desplazamiento actual del efecto de marquesina */
1458:Core/Src/main_unique.c **** static const char *s_line2  = NULL;
1459:Core/Src/main_unique.c **** static uint16_t    s_scroll = 0;
1460:Core/Src/main_unique.c **** 
1461:Core/Src/main_unique.c **** /* Copia de lo ultimo escrito en cada fila. Evita reenviar por I2C una linea
1462:Core/Src/main_unique.c ****    que no ha cambiado: escribir una fila cuesta unos 7 ms, de modo que
1463:Core/Src/main_unique.c ****    refrescar las cuatro sin necesidad consumiria una tercera parte del
1464:Core/Src/main_unique.c ****    periodo de 100 ms sin aportar nada. */
1465:Core/Src/main_unique.c **** static char s_shadow[LCD_ROWS][LCD_COLS + 1U];
1466:Core/Src/main_unique.c **** 
1467:Core/Src/main_unique.c **** /* Contadores de reparto de tareas, en unidades de 100 ms */
1468:Core/Src/main_unique.c **** static uint16_t s_tick_scroll = 0;   /* desplaza el texto cada 300 ms */
1469:Core/Src/main_unique.c **** static uint16_t s_msg_timeout = 0;   /* vida restante del mensaje temporal */
1470:Core/Src/main_unique.c **** 
1471:Core/Src/main_unique.c **** /* Textos fijos */
1472:Core/Src/main_unique.c **** static const char TXT_BANNER[]  = "DANIEL VARGAS - PARCIAL TALLER V 2026-1 - UNAL";
1473:Core/Src/main_unique.c **** static const char TXT_MODE_X[]  = "MODO X";
1474:Core/Src/main_unique.c **** static const char TXT_MODE_Y[]  = "MODO Y";
1475:Core/Src/main_unique.c **** static const char TXT_NO_MODE[] = "ACTIVAR MODO X O Y";
1476:Core/Src/main_unique.c **** 
1477:Core/Src/main_unique.c **** #define MSG_DURATION_TICKS  30U   /* 30 * 100 ms = 3 s */
1478:Core/Src/main_unique.c **** 
1479:Core/Src/main_unique.c **** /*
1480:Core/Src/main_unique.c ****  * fsm_post_event
1481:Core/Src/main_unique.c ****  * Deposita un evento. Es la unica funcion del modulo que pueden invocar las
1482:Core/Src/main_unique.c ****  * rutinas de interrupcion. Si la cola esta llena el evento se descarta, lo
1483:Core/Src/main_unique.c ****  * que es preferible a bloquear una ISR.
1484:Core/Src/main_unique.c ****  */
1485:Core/Src/main_unique.c **** void fsm_post_event(fsm_event_t ev)
ARM GAS  /tmp/ccjBgtoi.s 			page 33


1486:Core/Src/main_unique.c **** {
1487:Core/Src/main_unique.c ****     uint8_t next = (uint8_t)((s_evq_head + 1U) % EVQ_SIZE);
1488:Core/Src/main_unique.c **** 
1489:Core/Src/main_unique.c ****     if (next == s_evq_tail) {
1490:Core/Src/main_unique.c ****         return;   /* cola llena */
1491:Core/Src/main_unique.c ****     }
1492:Core/Src/main_unique.c ****     s_evq[s_evq_head] = ev;
1493:Core/Src/main_unique.c ****     s_evq_head = next;
1494:Core/Src/main_unique.c **** }
1495:Core/Src/main_unique.c **** 
1496:Core/Src/main_unique.c **** /*
1497:Core/Src/main_unique.c ****  * fsm_get_event
1498:Core/Src/main_unique.c ****  * Extrae el evento mas antiguo. Devuelve EV_NONE si no hay ninguno.
1499:Core/Src/main_unique.c ****  */
1500:Core/Src/main_unique.c **** static fsm_event_t fsm_get_event(void)
1501:Core/Src/main_unique.c **** {
 344              		.loc 1 1501 1 is_stmt 1 view -0
 345              		.cfi_startproc
 346              		@ args = 0, pretend = 0, frame = 0
 347              		@ frame_needed = 0, uses_anonymous_args = 0
 348              		@ link register save eliminated.
1502:Core/Src/main_unique.c ****     fsm_event_t ev;
 349              		.loc 1 1502 5 view .LVU79
1503:Core/Src/main_unique.c **** 
1504:Core/Src/main_unique.c ****     if (s_evq_head == s_evq_tail) {
 350              		.loc 1 1504 5 view .LVU80
 351              		.loc 1 1504 20 is_stmt 0 view .LVU81
 352 0000 084B     		ldr	r3, .L29
 353 0002 1A78     		ldrb	r2, [r3]	@ zero_extendqisi2
 354 0004 084B     		ldr	r3, .L29+4
 355 0006 1B78     		ldrb	r3, [r3]	@ zero_extendqisi2
 356              		.loc 1 1504 8 view .LVU82
 357 0008 9A42     		cmp	r2, r3
 358 000a 09D0     		beq	.L28
1505:Core/Src/main_unique.c ****         return EV_NONE;
1506:Core/Src/main_unique.c ****     }
1507:Core/Src/main_unique.c ****     ev = s_evq[s_evq_tail];
 359              		.loc 1 1507 5 is_stmt 1 view .LVU83
 360              		.loc 1 1507 15 is_stmt 0 view .LVU84
 361 000c 064A     		ldr	r2, .L29+4
 362 000e 1378     		ldrb	r3, [r2]	@ zero_extendqisi2
 363              		.loc 1 1507 8 view .LVU85
 364 0010 0649     		ldr	r1, .L29+8
 365 0012 C85C     		ldrb	r0, [r1, r3]	@ zero_extendqisi2
 366              	.LVL20:
1508:Core/Src/main_unique.c ****     s_evq_tail = (uint8_t)((s_evq_tail + 1U) % EVQ_SIZE);
 367              		.loc 1 1508 5 is_stmt 1 view .LVU86
 368              		.loc 1 1508 18 is_stmt 0 view .LVU87
 369 0014 1378     		ldrb	r3, [r2]	@ zero_extendqisi2
 370 0016 0133     		adds	r3, r3, #1
 371 0018 03F01F03 		and	r3, r3, #31
 372              		.loc 1 1508 16 view .LVU88
 373 001c 1370     		strb	r3, [r2]
1509:Core/Src/main_unique.c ****     return ev;
 374              		.loc 1 1509 5 is_stmt 1 view .LVU89
 375              		.loc 1 1509 12 is_stmt 0 view .LVU90
 376 001e 7047     		bx	lr
ARM GAS  /tmp/ccjBgtoi.s 			page 34


 377              	.LVL21:
 378              	.L28:
1505:Core/Src/main_unique.c ****         return EV_NONE;
 379              		.loc 1 1505 16 view .LVU91
 380 0020 0020     		movs	r0, #0
1510:Core/Src/main_unique.c **** }
 381              		.loc 1 1510 1 view .LVU92
 382 0022 7047     		bx	lr
 383              	.L30:
 384              		.align	2
 385              	.L29:
 386 0024 00000000 		.word	s_evq_head
 387 0028 00000000 		.word	s_evq_tail
 388 002c 00000000 		.word	s_evq
 389              		.cfi_endproc
 390              	.LFE321:
 392              		.section	.text.clamp_coord,"ax",%progbits
 393              		.align	1
 394              		.syntax unified
 395              		.thumb
 396              		.thumb_func
 398              	clamp_coord:
 399              	.LVL22:
 400              	.LFB322:
1511:Core/Src/main_unique.c **** 
1512:Core/Src/main_unique.c **** /* ----------------------- Utilidades de presentacion ---------------------- */
1513:Core/Src/main_unique.c **** 
1514:Core/Src/main_unique.c **** /*
1515:Core/Src/main_unique.c ****  * clamp_coord
1516:Core/Src/main_unique.c ****  * Satura un valor dentro del rango representable en la pantalla.
1517:Core/Src/main_unique.c ****  */
1518:Core/Src/main_unique.c **** static int16_t clamp_coord(int32_t v)
1519:Core/Src/main_unique.c **** {
 401              		.loc 1 1519 1 is_stmt 1 view -0
 402              		.cfi_startproc
 403              		@ args = 0, pretend = 0, frame = 0
 404              		@ frame_needed = 0, uses_anonymous_args = 0
 405              		@ link register save eliminated.
1520:Core/Src/main_unique.c ****     if (v > COORD_MAX) return (int16_t)COORD_MAX;
 406              		.loc 1 1520 5 view .LVU94
 407              		.loc 1 1520 8 is_stmt 0 view .LVU95
 408 0000 B0F57A7F 		cmp	r0, #1000
 409 0004 04DA     		bge	.L33
1521:Core/Src/main_unique.c ****     if (v < COORD_MIN) return (int16_t)COORD_MIN;
 410              		.loc 1 1521 5 is_stmt 1 view .LVU96
 411              		.loc 1 1521 8 is_stmt 0 view .LVU97
 412 0006 10F57A7F 		cmn	r0, #1000
 413 000a 04DD     		ble	.L34
1522:Core/Src/main_unique.c ****     return (int16_t)v;
 414              		.loc 1 1522 5 is_stmt 1 view .LVU98
 415              		.loc 1 1522 12 is_stmt 0 view .LVU99
 416 000c 00B2     		sxth	r0, r0
 417              	.LVL23:
 418              		.loc 1 1522 12 view .LVU100
 419 000e 7047     		bx	lr
 420              	.LVL24:
 421              	.L33:
ARM GAS  /tmp/ccjBgtoi.s 			page 35


1520:Core/Src/main_unique.c ****     if (v > COORD_MAX) return (int16_t)COORD_MAX;
 422              		.loc 1 1520 31 discriminator 1 view .LVU101
 423 0010 40F2E730 		movw	r0, #999
 424              	.LVL25:
1520:Core/Src/main_unique.c ****     if (v > COORD_MAX) return (int16_t)COORD_MAX;
 425              		.loc 1 1520 31 discriminator 1 view .LVU102
 426 0014 7047     		bx	lr
 427              	.LVL26:
 428              	.L34:
1521:Core/Src/main_unique.c ****     if (v < COORD_MIN) return (int16_t)COORD_MIN;
 429              		.loc 1 1521 31 discriminator 1 view .LVU103
 430 0016 0148     		ldr	r0, .L35
 431              	.LVL27:
1523:Core/Src/main_unique.c **** }
 432              		.loc 1 1523 1 view .LVU104
 433 0018 7047     		bx	lr
 434              	.L36:
 435 001a 00BF     		.align	2
 436              	.L35:
 437 001c 19FCFFFF 		.word	-999
 438              		.cfi_endproc
 439              	.LFE322:
 441              		.section	.text.set_line2,"ax",%progbits
 442              		.align	1
 443              		.syntax unified
 444              		.thumb
 445              		.thumb_func
 447              	set_line2:
 448              	.LVL28:
 449              	.LFB324:
1524:Core/Src/main_unique.c **** 
1525:Core/Src/main_unique.c **** /*
1526:Core/Src/main_unique.c ****  * lcd_update
1527:Core/Src/main_unique.c ****  * Escribe una fila solo si su contenido difiere del ultimo enviado.
1528:Core/Src/main_unique.c ****  */
1529:Core/Src/main_unique.c **** static void lcd_update(uint8_t row, const char *txt)
1530:Core/Src/main_unique.c **** {
1531:Core/Src/main_unique.c ****     char norm[LCD_COLS + 1U];
1532:Core/Src/main_unique.c ****     uint8_t i, end = 0U;
1533:Core/Src/main_unique.c **** 
1534:Core/Src/main_unique.c ****     /* Normaliza a la anchura exacta de la pantalla para que la comparacion
1535:Core/Src/main_unique.c ****        sea fiable */
1536:Core/Src/main_unique.c ****     for (i = 0U; i < LCD_COLS; i++) {
1537:Core/Src/main_unique.c ****         if (!end && (txt[i] == '\0')) end = 1U;
1538:Core/Src/main_unique.c ****         norm[i] = end ? ' ' : txt[i];
1539:Core/Src/main_unique.c ****     }
1540:Core/Src/main_unique.c ****     norm[LCD_COLS] = '\0';
1541:Core/Src/main_unique.c **** 
1542:Core/Src/main_unique.c ****     if (strncmp(norm, s_shadow[row], LCD_COLS) == 0) {
1543:Core/Src/main_unique.c ****         return;                       /* sin cambios: no se toca el bus */
1544:Core/Src/main_unique.c ****     }
1545:Core/Src/main_unique.c ****     memcpy(s_shadow[row], norm, LCD_COLS + 1U);
1546:Core/Src/main_unique.c ****     lcd_print_line(row, norm);
1547:Core/Src/main_unique.c **** }
1548:Core/Src/main_unique.c **** 
1549:Core/Src/main_unique.c **** /*
1550:Core/Src/main_unique.c ****  * set_line2
ARM GAS  /tmp/ccjBgtoi.s 			page 36


1551:Core/Src/main_unique.c ****  * Cambia el texto de la fila 1 y reinicia el desplazamiento.
1552:Core/Src/main_unique.c ****  */
1553:Core/Src/main_unique.c **** static void set_line2(const char *txt)
1554:Core/Src/main_unique.c **** {
 450              		.loc 1 1554 1 is_stmt 1 view -0
 451              		.cfi_startproc
 452              		@ args = 0, pretend = 0, frame = 0
 453              		@ frame_needed = 0, uses_anonymous_args = 0
 454              		@ link register save eliminated.
1555:Core/Src/main_unique.c ****     s_line2  = txt;
 455              		.loc 1 1555 5 view .LVU106
 456              		.loc 1 1555 14 is_stmt 0 view .LVU107
 457 0000 024B     		ldr	r3, .L38
 458 0002 1860     		str	r0, [r3]
1556:Core/Src/main_unique.c ****     s_scroll = 0;
 459              		.loc 1 1556 5 is_stmt 1 view .LVU108
 460              		.loc 1 1556 14 is_stmt 0 view .LVU109
 461 0004 024B     		ldr	r3, .L38+4
 462 0006 0022     		movs	r2, #0
 463 0008 1A80     		strh	r2, [r3]	@ movhi
1557:Core/Src/main_unique.c **** }
 464              		.loc 1 1557 1 view .LVU110
 465 000a 7047     		bx	lr
 466              	.L39:
 467              		.align	2
 468              	.L38:
 469 000c 00000000 		.word	s_line2
 470 0010 00000000 		.word	s_scroll
 471              		.cfi_endproc
 472              	.LFE324:
 474              		.section	.text.uart_start_tx,"ax",%progbits
 475              		.align	1
 476              		.syntax unified
 477              		.thumb
 478              		.thumb_func
 480              	uart_start_tx:
 481              	.LFB277:
 526:Core/Src/main_unique.c ****     if (s_tx_busy || (s_tx_head == s_tx_tail)) {
 482              		.loc 1 526 1 is_stmt 1 view -0
 483              		.cfi_startproc
 484              		@ args = 0, pretend = 0, frame = 0
 485              		@ frame_needed = 0, uses_anonymous_args = 0
 486 0000 08B5     		push	{r3, lr}
 487              	.LCFI0:
 488              		.cfi_def_cfa_offset 8
 489              		.cfi_offset 3, -8
 490              		.cfi_offset 14, -4
 527:Core/Src/main_unique.c ****         return;   /* ya hay un envio activo, o no queda nada por enviar */
 491              		.loc 1 527 5 view .LVU112
 527:Core/Src/main_unique.c ****         return;   /* ya hay un envio activo, o no queda nada por enviar */
 492              		.loc 1 527 9 is_stmt 0 view .LVU113
 493 0002 0D4B     		ldr	r3, .L43
 494 0004 1B78     		ldrb	r3, [r3]	@ zero_extendqisi2
 527:Core/Src/main_unique.c ****         return;   /* ya hay un envio activo, o no queda nada por enviar */
 495              		.loc 1 527 8 view .LVU114
 496 0006 B3B9     		cbnz	r3, .L40
 527:Core/Src/main_unique.c ****         return;   /* ya hay un envio activo, o no queda nada por enviar */
ARM GAS  /tmp/ccjBgtoi.s 			page 37


 497              		.loc 1 527 33 discriminator 1 view .LVU115
 498 0008 0C4B     		ldr	r3, .L43+4
 499 000a 1A88     		ldrh	r2, [r3]
 500 000c 0C4B     		ldr	r3, .L43+8
 501 000e 1B88     		ldrh	r3, [r3]
 527:Core/Src/main_unique.c ****         return;   /* ya hay un envio activo, o no queda nada por enviar */
 502              		.loc 1 527 19 discriminator 1 view .LVU116
 503 0010 9A42     		cmp	r2, r3
 504 0012 10D0     		beq	.L40
 530:Core/Src/main_unique.c ****     s_tx_tail    = (uint16_t)((s_tx_tail + 1U) % UART_TX_BUF_SIZE);
 505              		.loc 1 530 5 is_stmt 1 view .LVU117
 530:Core/Src/main_unique.c ****     s_tx_tail    = (uint16_t)((s_tx_tail + 1U) % UART_TX_BUF_SIZE);
 506              		.loc 1 530 28 is_stmt 0 view .LVU118
 507 0014 0A4A     		ldr	r2, .L43+8
 508 0016 1388     		ldrh	r3, [r2]
 509 0018 0A49     		ldr	r1, .L43+12
 510 001a CB5C     		ldrb	r3, [r1, r3]	@ zero_extendqisi2
 530:Core/Src/main_unique.c ****     s_tx_tail    = (uint16_t)((s_tx_tail + 1U) % UART_TX_BUF_SIZE);
 511              		.loc 1 530 18 view .LVU119
 512 001c 0A49     		ldr	r1, .L43+16
 513 001e 0B70     		strb	r3, [r1]
 531:Core/Src/main_unique.c ****     s_tx_busy    = 1U;
 514              		.loc 1 531 5 is_stmt 1 view .LVU120
 531:Core/Src/main_unique.c ****     s_tx_busy    = 1U;
 515              		.loc 1 531 20 is_stmt 0 view .LVU121
 516 0020 1388     		ldrh	r3, [r2]
 517 0022 0133     		adds	r3, r3, #1
 518 0024 C3F30803 		ubfx	r3, r3, #0, #9
 531:Core/Src/main_unique.c ****     s_tx_busy    = 1U;
 519              		.loc 1 531 18 view .LVU122
 520 0028 1380     		strh	r3, [r2]	@ movhi
 532:Core/Src/main_unique.c **** 
 521              		.loc 1 532 5 is_stmt 1 view .LVU123
 532:Core/Src/main_unique.c **** 
 522              		.loc 1 532 18 is_stmt 0 view .LVU124
 523 002a 0122     		movs	r2, #1
 524 002c 024B     		ldr	r3, .L43
 525 002e 1A70     		strb	r2, [r3]
 534:Core/Src/main_unique.c **** }
 526              		.loc 1 534 5 is_stmt 1 view .LVU125
 527 0030 0648     		ldr	r0, .L43+20
 528 0032 FFF7FEFF 		bl	HAL_UART_Transmit_IT
 529              	.LVL29:
 530              	.L40:
 535:Core/Src/main_unique.c **** 
 531              		.loc 1 535 1 is_stmt 0 view .LVU126
 532 0036 08BD     		pop	{r3, pc}
 533              	.L44:
 534              		.align	2
 535              	.L43:
 536 0038 00000000 		.word	s_tx_busy
 537 003c 00000000 		.word	s_tx_head
 538 0040 00000000 		.word	s_tx_tail
 539 0044 00000000 		.word	s_tx_buf
 540 0048 00000000 		.word	s_tx_current
 541 004c 00000000 		.word	huart2
 542              		.cfi_endproc
ARM GAS  /tmp/ccjBgtoi.s 			page 38


 543              	.LFE277:
 545              		.section	.text.lcd_tx,"ax",%progbits
 546              		.align	1
 547              		.syntax unified
 548              		.thumb
 549              		.thumb_func
 551              	lcd_tx:
 552              	.LVL30:
 553              	.LFB303:
1079:Core/Src/main_unique.c ****     HAL_StatusTypeDef st;
 554              		.loc 1 1079 1 is_stmt 1 view -0
 555              		.cfi_startproc
 556              		@ args = 0, pretend = 0, frame = 0
 557              		@ frame_needed = 0, uses_anonymous_args = 0
1079:Core/Src/main_unique.c ****     HAL_StatusTypeDef st;
 558              		.loc 1 1079 1 is_stmt 0 view .LVU128
 559 0000 00B5     		push	{lr}
 560              	.LCFI1:
 561              		.cfi_def_cfa_offset 4
 562              		.cfi_offset 14, -4
 563 0002 83B0     		sub	sp, sp, #12
 564              	.LCFI2:
 565              		.cfi_def_cfa_offset 16
 566 0004 0246     		mov	r2, r0
 567 0006 0B46     		mov	r3, r1
1080:Core/Src/main_unique.c **** 
 568              		.loc 1 1080 5 is_stmt 1 view .LVU129
1086:Core/Src/main_unique.c **** 
 569              		.loc 1 1086 5 view .LVU130
1086:Core/Src/main_unique.c **** 
 570              		.loc 1 1086 42 is_stmt 0 view .LVU131
 571 0008 0949     		ldr	r1, .L50
 572              	.LVL31:
1086:Core/Src/main_unique.c **** 
 573              		.loc 1 1086 42 view .LVU132
 574 000a 91F800C0 		ldrb	ip, [r1]	@ zero_extendqisi2
1086:Core/Src/main_unique.c **** 
 575              		.loc 1 1086 10 view .LVU133
 576 000e 3221     		movs	r1, #50
 577 0010 0091     		str	r1, [sp]
 578 0012 4FEA4C01 		lsl	r1, ip, #1
 579 0016 0748     		ldr	r0, .L50+4
 580              	.LVL32:
1086:Core/Src/main_unique.c **** 
 581              		.loc 1 1086 10 view .LVU134
 582 0018 FFF7FEFF 		bl	HAL_I2C_Master_Transmit
 583              	.LVL33:
1088:Core/Src/main_unique.c ****         s_errors++;
 584              		.loc 1 1088 5 is_stmt 1 view .LVU135
1088:Core/Src/main_unique.c ****         s_errors++;
 585              		.loc 1 1088 8 is_stmt 0 view .LVU136
 586 001c 10B9     		cbnz	r0, .L49
1092:Core/Src/main_unique.c **** }
 587              		.loc 1 1092 12 view .LVU137
 588 001e 0120     		movs	r0, #1
 589              	.LVL34:
 590              	.L46:
ARM GAS  /tmp/ccjBgtoi.s 			page 39


1093:Core/Src/main_unique.c **** 
 591              		.loc 1 1093 1 view .LVU138
 592 0020 03B0     		add	sp, sp, #12
 593              	.LCFI3:
 594              		.cfi_remember_state
 595              		.cfi_def_cfa_offset 4
 596              		@ sp needed
 597 0022 00BD     		pop	{pc}
 598              	.LVL35:
 599              	.L49:
 600              	.LCFI4:
 601              		.cfi_restore_state
1089:Core/Src/main_unique.c ****         return 0U;
 602              		.loc 1 1089 9 is_stmt 1 view .LVU139
1089:Core/Src/main_unique.c ****         return 0U;
 603              		.loc 1 1089 17 is_stmt 0 view .LVU140
 604 0024 044A     		ldr	r2, .L50+8
 605 0026 1368     		ldr	r3, [r2]
 606 0028 0133     		adds	r3, r3, #1
 607 002a 1360     		str	r3, [r2]
1090:Core/Src/main_unique.c ****     }
 608              		.loc 1 1090 9 is_stmt 1 view .LVU141
1090:Core/Src/main_unique.c ****     }
 609              		.loc 1 1090 16 is_stmt 0 view .LVU142
 610 002c 0020     		movs	r0, #0
 611              	.LVL36:
1090:Core/Src/main_unique.c ****     }
 612              		.loc 1 1090 16 view .LVU143
 613 002e F7E7     		b	.L46
 614              	.L51:
 615              		.align	2
 616              	.L50:
 617 0030 00000000 		.word	s_addr7
 618 0034 00000000 		.word	hi2c1
 619 0038 00000000 		.word	s_errors
 620              		.cfi_endproc
 621              	.LFE303:
 623              		.section	.text.lcd_pulse_nibble,"ax",%progbits
 624              		.align	1
 625              		.syntax unified
 626              		.thumb
 627              		.thumb_func
 629              	lcd_pulse_nibble:
 630              	.LVL37:
 631              	.LFB305:
1125:Core/Src/main_unique.c ****     uint8_t seq[2];
 632              		.loc 1 1125 1 is_stmt 1 view -0
 633              		.cfi_startproc
 634              		@ args = 0, pretend = 0, frame = 8
 635              		@ frame_needed = 0, uses_anonymous_args = 0
1125:Core/Src/main_unique.c ****     uint8_t seq[2];
 636              		.loc 1 1125 1 is_stmt 0 view .LVU145
 637 0000 00B5     		push	{lr}
 638              	.LCFI5:
 639              		.cfi_def_cfa_offset 4
 640              		.cfi_offset 14, -4
 641 0002 83B0     		sub	sp, sp, #12
ARM GAS  /tmp/ccjBgtoi.s 			page 40


 642              	.LCFI6:
 643              		.cfi_def_cfa_offset 16
1126:Core/Src/main_unique.c ****     seq[0] = (uint8_t)(nibble | 0x04U);
 644              		.loc 1 1126 5 is_stmt 1 view .LVU146
1127:Core/Src/main_unique.c ****     seq[1] = (uint8_t)(nibble & ~0x04U);
 645              		.loc 1 1127 5 view .LVU147
1127:Core/Src/main_unique.c ****     seq[1] = (uint8_t)(nibble & ~0x04U);
 646              		.loc 1 1127 14 is_stmt 0 view .LVU148
 647 0004 40F00403 		orr	r3, r0, #4
1127:Core/Src/main_unique.c ****     seq[1] = (uint8_t)(nibble & ~0x04U);
 648              		.loc 1 1127 12 view .LVU149
 649 0008 8DF80430 		strb	r3, [sp, #4]
1128:Core/Src/main_unique.c **** 
 650              		.loc 1 1128 5 is_stmt 1 view .LVU150
1128:Core/Src/main_unique.c **** 
 651              		.loc 1 1128 14 is_stmt 0 view .LVU151
 652 000c 00F0FB00 		and	r0, r0, #251
 653              	.LVL38:
1128:Core/Src/main_unique.c **** 
 654              		.loc 1 1128 12 view .LVU152
 655 0010 8DF80500 		strb	r0, [sp, #5]
1130:Core/Src/main_unique.c ****     delay_us(50U);
 656              		.loc 1 1130 5 is_stmt 1 view .LVU153
 657 0014 0221     		movs	r1, #2
 658 0016 01A8     		add	r0, sp, #4
 659 0018 FFF7FEFF 		bl	lcd_tx
 660              	.LVL39:
1131:Core/Src/main_unique.c **** }
 661              		.loc 1 1131 5 view .LVU154
 662 001c 3220     		movs	r0, #50
 663 001e FFF7FEFF 		bl	delay_us
 664              	.LVL40:
1132:Core/Src/main_unique.c **** 
 665              		.loc 1 1132 1 is_stmt 0 view .LVU155
 666 0022 03B0     		add	sp, sp, #12
 667              	.LCFI7:
 668              		.cfi_def_cfa_offset 4
 669              		@ sp needed
 670 0024 00BD     		pop	{pc}
 671              		.cfi_endproc
 672              	.LFE305:
 674              		.section	.text.lcd_send,"ax",%progbits
 675              		.align	1
 676              		.syntax unified
 677              		.thumb
 678              		.thumb_func
 680              	lcd_send:
 681              	.LVL41:
 682              	.LFB304:
1102:Core/Src/main_unique.c ****     uint8_t hi = (uint8_t)((value & 0xF0U)        | mode | s_backlight);
 683              		.loc 1 1102 1 is_stmt 1 view -0
 684              		.cfi_startproc
 685              		@ args = 0, pretend = 0, frame = 8
 686              		@ frame_needed = 0, uses_anonymous_args = 0
1102:Core/Src/main_unique.c ****     uint8_t hi = (uint8_t)((value & 0xF0U)        | mode | s_backlight);
 687              		.loc 1 1102 1 is_stmt 0 view .LVU157
 688 0000 00B5     		push	{lr}
ARM GAS  /tmp/ccjBgtoi.s 			page 41


 689              	.LCFI8:
 690              		.cfi_def_cfa_offset 4
 691              		.cfi_offset 14, -4
 692 0002 83B0     		sub	sp, sp, #12
 693              	.LCFI9:
 694              		.cfi_def_cfa_offset 16
1103:Core/Src/main_unique.c ****     uint8_t lo = (uint8_t)(((value << 4) & 0xF0U) | mode | s_backlight);
 695              		.loc 1 1103 5 is_stmt 1 view .LVU158
1103:Core/Src/main_unique.c ****     uint8_t lo = (uint8_t)(((value << 4) & 0xF0U) | mode | s_backlight);
 696              		.loc 1 1103 35 is_stmt 0 view .LVU159
 697 0004 00F0F003 		and	r3, r0, #240
1103:Core/Src/main_unique.c ****     uint8_t lo = (uint8_t)(((value << 4) & 0xF0U) | mode | s_backlight);
 698              		.loc 1 1103 51 view .LVU160
 699 0008 0B43     		orrs	r3, r3, r1
 700              	.LVL42:
1104:Core/Src/main_unique.c **** 
 701              		.loc 1 1104 5 is_stmt 1 view .LVU161
1104:Core/Src/main_unique.c **** 
 702              		.loc 1 1104 36 is_stmt 0 view .LVU162
 703 000a 0001     		lsls	r0, r0, #4
 704              	.LVL43:
1104:Core/Src/main_unique.c **** 
 705              		.loc 1 1104 36 view .LVU163
 706 000c C0B2     		uxtb	r0, r0
1104:Core/Src/main_unique.c **** 
 707              		.loc 1 1104 51 view .LVU164
 708 000e 0143     		orrs	r1, r1, r0
 709              	.LVL44:
1106:Core/Src/main_unique.c ****     seq[0] = (uint8_t)(hi | 0x04U);   /* nibble alto, EN = 1 */
 710              		.loc 1 1106 5 is_stmt 1 view .LVU165
1107:Core/Src/main_unique.c ****     seq[1] = (uint8_t)(hi & ~0x04U);  /* nibble alto, EN = 0 -> captura */
 711              		.loc 1 1107 5 view .LVU166
1107:Core/Src/main_unique.c ****     seq[1] = (uint8_t)(hi & ~0x04U);  /* nibble alto, EN = 0 -> captura */
 712              		.loc 1 1107 14 is_stmt 0 view .LVU167
 713 0010 43F00C02 		orr	r2, r3, #12
1107:Core/Src/main_unique.c ****     seq[1] = (uint8_t)(hi & ~0x04U);  /* nibble alto, EN = 0 -> captura */
 714              		.loc 1 1107 12 view .LVU168
 715 0014 8DF80420 		strb	r2, [sp, #4]
1108:Core/Src/main_unique.c ****     seq[2] = (uint8_t)(lo | 0x04U);   /* nibble bajo, EN = 1 */
 716              		.loc 1 1108 5 is_stmt 1 view .LVU169
1108:Core/Src/main_unique.c ****     seq[2] = (uint8_t)(lo | 0x04U);   /* nibble bajo, EN = 1 */
 717              		.loc 1 1108 14 is_stmt 0 view .LVU170
 718 0018 23F00403 		bic	r3, r3, #4
 719              	.LVL45:
1108:Core/Src/main_unique.c ****     seq[2] = (uint8_t)(lo | 0x04U);   /* nibble bajo, EN = 1 */
 720              		.loc 1 1108 14 view .LVU171
 721 001c 43F00803 		orr	r3, r3, #8
1108:Core/Src/main_unique.c ****     seq[2] = (uint8_t)(lo | 0x04U);   /* nibble bajo, EN = 1 */
 722              		.loc 1 1108 12 view .LVU172
 723 0020 8DF80530 		strb	r3, [sp, #5]
1109:Core/Src/main_unique.c ****     seq[3] = (uint8_t)(lo & ~0x04U);  /* nibble bajo, EN = 0 -> captura */
 724              		.loc 1 1109 5 is_stmt 1 view .LVU173
1109:Core/Src/main_unique.c ****     seq[3] = (uint8_t)(lo & ~0x04U);  /* nibble bajo, EN = 0 -> captura */
 725              		.loc 1 1109 14 is_stmt 0 view .LVU174
 726 0024 41F00C03 		orr	r3, r1, #12
1109:Core/Src/main_unique.c ****     seq[3] = (uint8_t)(lo & ~0x04U);  /* nibble bajo, EN = 0 -> captura */
 727              		.loc 1 1109 12 view .LVU175
ARM GAS  /tmp/ccjBgtoi.s 			page 42


 728 0028 8DF80630 		strb	r3, [sp, #6]
1110:Core/Src/main_unique.c **** 
 729              		.loc 1 1110 5 is_stmt 1 view .LVU176
1110:Core/Src/main_unique.c **** 
 730              		.loc 1 1110 14 is_stmt 0 view .LVU177
 731 002c 21F00401 		bic	r1, r1, #4
 732              	.LVL46:
1110:Core/Src/main_unique.c **** 
 733              		.loc 1 1110 14 view .LVU178
 734 0030 41F00801 		orr	r1, r1, #8
1110:Core/Src/main_unique.c **** 
 735              		.loc 1 1110 12 view .LVU179
 736 0034 8DF80710 		strb	r1, [sp, #7]
1112:Core/Src/main_unique.c **** 
 737              		.loc 1 1112 5 is_stmt 1 view .LVU180
 738 0038 0421     		movs	r1, #4
 739 003a 0DEB0100 		add	r0, sp, r1
 740              	.LVL47:
1112:Core/Src/main_unique.c **** 
 741              		.loc 1 1112 5 is_stmt 0 view .LVU181
 742 003e FFF7FEFF 		bl	lcd_tx
 743              	.LVL48:
1116:Core/Src/main_unique.c **** }
 744              		.loc 1 1116 5 is_stmt 1 view .LVU182
 745 0042 3220     		movs	r0, #50
 746 0044 FFF7FEFF 		bl	delay_us
 747              	.LVL49:
1117:Core/Src/main_unique.c **** 
 748              		.loc 1 1117 1 is_stmt 0 view .LVU183
 749 0048 03B0     		add	sp, sp, #12
 750              	.LCFI10:
 751              		.cfi_def_cfa_offset 4
 752              		@ sp needed
 753 004a 00BD     		pop	{pc}
 754              		.cfi_endproc
 755              	.LFE304:
 757              		.section	.text.lcd_command,"ax",%progbits
 758              		.align	1
 759              		.syntax unified
 760              		.thumb
 761              		.thumb_func
 763              	lcd_command:
 764              	.LVL50:
 765              	.LFB306:
1134:Core/Src/main_unique.c **** static void lcd_data(uint8_t c)    { lcd_send(c, 0x01U); }
 766              		.loc 1 1134 36 is_stmt 1 view -0
 767              		.cfi_startproc
 768              		@ args = 0, pretend = 0, frame = 0
 769              		@ frame_needed = 0, uses_anonymous_args = 0
1134:Core/Src/main_unique.c **** static void lcd_data(uint8_t c)    { lcd_send(c, 0x01U); }
 770              		.loc 1 1134 36 is_stmt 0 view .LVU185
 771 0000 08B5     		push	{r3, lr}
 772              	.LCFI11:
 773              		.cfi_def_cfa_offset 8
 774              		.cfi_offset 3, -8
 775              		.cfi_offset 14, -4
1134:Core/Src/main_unique.c **** static void lcd_data(uint8_t c)    { lcd_send(c, 0x01U); }
ARM GAS  /tmp/ccjBgtoi.s 			page 43


 776              		.loc 1 1134 38 is_stmt 1 view .LVU186
 777 0002 0021     		movs	r1, #0
 778 0004 FFF7FEFF 		bl	lcd_send
 779              	.LVL51:
1134:Core/Src/main_unique.c **** static void lcd_data(uint8_t c)    { lcd_send(c, 0x01U); }
 780              		.loc 1 1134 58 is_stmt 0 view .LVU187
 781 0008 08BD     		pop	{r3, pc}
 782              		.cfi_endproc
 783              	.LFE306:
 785              		.section	.text.lcd_data,"ax",%progbits
 786              		.align	1
 787              		.syntax unified
 788              		.thumb
 789              		.thumb_func
 791              	lcd_data:
 792              	.LVL52:
 793              	.LFB307:
1135:Core/Src/main_unique.c **** 
 794              		.loc 1 1135 36 is_stmt 1 view -0
 795              		.cfi_startproc
 796              		@ args = 0, pretend = 0, frame = 0
 797              		@ frame_needed = 0, uses_anonymous_args = 0
1135:Core/Src/main_unique.c **** 
 798              		.loc 1 1135 36 is_stmt 0 view .LVU189
 799 0000 08B5     		push	{r3, lr}
 800              	.LCFI12:
 801              		.cfi_def_cfa_offset 8
 802              		.cfi_offset 3, -8
 803              		.cfi_offset 14, -4
1135:Core/Src/main_unique.c **** 
 804              		.loc 1 1135 38 is_stmt 1 view .LVU190
 805 0002 0121     		movs	r1, #1
 806 0004 FFF7FEFF 		bl	lcd_send
 807              	.LVL53:
1135:Core/Src/main_unique.c **** 
 808              		.loc 1 1135 58 is_stmt 0 view .LVU191
 809 0008 08BD     		pop	{r3, pc}
 810              		.cfi_endproc
 811              	.LFE307:
 813              		.section	.text.system_clock_mco_set,"ax",%progbits
 814              		.align	1
 815              		.global	system_clock_mco_set
 816              		.syntax unified
 817              		.thumb
 818              		.thumb_func
 820              	system_clock_mco_set:
 821              	.LVL54:
 822              	.LFB269:
 368:Core/Src/main_unique.c ****     switch (src) {
 823              		.loc 1 368 1 is_stmt 1 view -0
 824              		.cfi_startproc
 825              		@ args = 0, pretend = 0, frame = 0
 826              		@ frame_needed = 0, uses_anonymous_args = 0
 368:Core/Src/main_unique.c ****     switch (src) {
 827              		.loc 1 368 1 is_stmt 0 view .LVU193
 828 0000 10B5     		push	{r4, lr}
 829              	.LCFI13:
ARM GAS  /tmp/ccjBgtoi.s 			page 44


 830              		.cfi_def_cfa_offset 8
 831              		.cfi_offset 4, -8
 832              		.cfi_offset 14, -4
 369:Core/Src/main_unique.c **** 
 833              		.loc 1 369 5 is_stmt 1 view .LVU194
 834 0002 0446     		mov	r4, r0
 835 0004 90B1     		cbz	r0, .L61
 836 0006 0128     		cmp	r0, #1
 837 0008 1AD0     		beq	.L62
 385:Core/Src/main_unique.c ****         s_mco_freq = HAL_RCC_GetSysClockFreq() / 5U;  /* 100 MHz / 5 = 20 MHz */
 838              		.loc 1 385 9 view .LVU195
 839 000a 4FF0E062 		mov	r2, #117440512
 840 000e 4FF4C001 		mov	r1, #6291456
 841 0012 0020     		movs	r0, #0
 842              	.LVL55:
 385:Core/Src/main_unique.c ****         s_mco_freq = HAL_RCC_GetSysClockFreq() / 5U;  /* 100 MHz / 5 = 20 MHz */
 843              		.loc 1 385 9 is_stmt 0 view .LVU196
 844 0014 FFF7FEFF 		bl	HAL_RCC_MCOConfig
 845              	.LVL56:
 386:Core/Src/main_unique.c ****         src = MCO_SRC_PLL;                   /* normaliza el valor guardado  */
 846              		.loc 1 386 9 is_stmt 1 view .LVU197
 386:Core/Src/main_unique.c ****         src = MCO_SRC_PLL;                   /* normaliza el valor guardado  */
 847              		.loc 1 386 22 is_stmt 0 view .LVU198
 848 0018 FFF7FEFF 		bl	HAL_RCC_GetSysClockFreq
 849              	.LVL57:
 386:Core/Src/main_unique.c ****         src = MCO_SRC_PLL;                   /* normaliza el valor guardado  */
 850              		.loc 1 386 48 discriminator 1 view .LVU199
 851 001c 104B     		ldr	r3, .L70
 852 001e A3FB0030 		umull	r3, r0, r3, r0
 853 0022 8008     		lsrs	r0, r0, #2
 386:Core/Src/main_unique.c ****         src = MCO_SRC_PLL;                   /* normaliza el valor guardado  */
 854              		.loc 1 386 20 discriminator 1 view .LVU200
 855 0024 0F4B     		ldr	r3, .L70+4
 856 0026 1860     		str	r0, [r3]
 387:Core/Src/main_unique.c ****         break;
 857              		.loc 1 387 9 is_stmt 1 view .LVU201
 858              	.LVL58:
 388:Core/Src/main_unique.c ****     }
 859              		.loc 1 388 9 view .LVU202
 387:Core/Src/main_unique.c ****         break;
 860              		.loc 1 387 13 is_stmt 0 view .LVU203
 861 0028 0224     		movs	r4, #2
 388:Core/Src/main_unique.c ****     }
 862              		.loc 1 388 9 view .LVU204
 863 002a 06E0     		b	.L64
 864              	.LVL59:
 865              	.L61:
 372:Core/Src/main_unique.c ****         s_mco_freq = HSI_VALUE;              /* 16 000 000 Hz */
 866              		.loc 1 372 9 is_stmt 1 view .LVU205
 867 002c 0246     		mov	r2, r0
 868 002e 0146     		mov	r1, r0
 869 0030 FFF7FEFF 		bl	HAL_RCC_MCOConfig
 870              	.LVL60:
 373:Core/Src/main_unique.c ****         break;
 871              		.loc 1 373 9 view .LVU206
 373:Core/Src/main_unique.c ****         break;
 872              		.loc 1 373 20 is_stmt 0 view .LVU207
ARM GAS  /tmp/ccjBgtoi.s 			page 45


 873 0034 0B4B     		ldr	r3, .L70+4
 874 0036 0C4A     		ldr	r2, .L70+8
 875 0038 1A60     		str	r2, [r3]
 374:Core/Src/main_unique.c **** 
 876              		.loc 1 374 9 is_stmt 1 view .LVU208
 877              	.LVL61:
 878              	.L64:
 391:Core/Src/main_unique.c **** }
 879              		.loc 1 391 5 view .LVU209
 391:Core/Src/main_unique.c **** }
 880              		.loc 1 391 15 is_stmt 0 view .LVU210
 881 003a 0C4B     		ldr	r3, .L70+12
 882 003c 1C70     		strb	r4, [r3]
 392:Core/Src/main_unique.c **** 
 883              		.loc 1 392 1 view .LVU211
 884 003e 10BD     		pop	{r4, pc}
 885              	.LVL62:
 886              	.L62:
 377:Core/Src/main_unique.c ****         /* Si el cristal no oscila, MCO1 queda en reposo: se refleja con una
 887              		.loc 1 377 9 is_stmt 1 view .LVU212
 888 0040 0022     		movs	r2, #0
 889 0042 4FF40011 		mov	r1, #2097152
 890 0046 1046     		mov	r0, r2
 891              	.LVL63:
 377:Core/Src/main_unique.c ****         /* Si el cristal no oscila, MCO1 queda en reposo: se refleja con una
 892              		.loc 1 377 9 is_stmt 0 view .LVU213
 893 0048 FFF7FEFF 		bl	HAL_RCC_MCOConfig
 894              	.LVL64:
 380:Core/Src/main_unique.c ****         break;
 895              		.loc 1 380 9 is_stmt 1 view .LVU214
 380:Core/Src/main_unique.c ****         break;
 896              		.loc 1 380 31 is_stmt 0 view .LVU215
 897 004c 084B     		ldr	r3, .L70+16
 898 004e 1B78     		ldrb	r3, [r3]	@ zero_extendqisi2
 380:Core/Src/main_unique.c ****         break;
 899              		.loc 1 380 43 view .LVU216
 900 0050 23B1     		cbz	r3, .L67
 380:Core/Src/main_unique.c ****         break;
 901              		.loc 1 380 43 discriminator 1 view .LVU217
 902 0052 4FF40042 		mov	r2, #32768
 903              	.L65:
 380:Core/Src/main_unique.c ****         break;
 904              		.loc 1 380 20 discriminator 3 view .LVU218
 905 0056 034B     		ldr	r3, .L70+4
 906 0058 1A60     		str	r2, [r3]
 381:Core/Src/main_unique.c **** 
 907              		.loc 1 381 9 is_stmt 1 view .LVU219
 908 005a EEE7     		b	.L64
 909              	.L67:
 380:Core/Src/main_unique.c ****         break;
 910              		.loc 1 380 43 is_stmt 0 discriminator 2 view .LVU220
 911 005c 1A46     		mov	r2, r3
 912 005e FAE7     		b	.L65
 913              	.L71:
 914              		.align	2
 915              	.L70:
 916 0060 CDCCCCCC 		.word	-858993459
ARM GAS  /tmp/ccjBgtoi.s 			page 46


 917 0064 00000000 		.word	s_mco_freq
 918 0068 0024F400 		.word	16000000
 919 006c 00000000 		.word	s_mco_src
 920 0070 00000000 		.word	s_lse_ok
 921              		.cfi_endproc
 922              	.LFE269:
 924              		.section	.text.system_clock_mco_get,"ax",%progbits
 925              		.align	1
 926              		.global	system_clock_mco_get
 927              		.syntax unified
 928              		.thumb
 929              		.thumb_func
 931              	system_clock_mco_get:
 932              	.LFB270:
 396:Core/Src/main_unique.c ****     return s_mco_src;
 933              		.loc 1 396 1 is_stmt 1 view -0
 934              		.cfi_startproc
 935              		@ args = 0, pretend = 0, frame = 0
 936              		@ frame_needed = 0, uses_anonymous_args = 0
 937              		@ link register save eliminated.
 397:Core/Src/main_unique.c **** }
 938              		.loc 1 397 5 view .LVU222
 398:Core/Src/main_unique.c **** 
 939              		.loc 1 398 1 is_stmt 0 view .LVU223
 940 0000 014B     		ldr	r3, .L73
 941 0002 1878     		ldrb	r0, [r3]	@ zero_extendqisi2
 942 0004 7047     		bx	lr
 943              	.L74:
 944 0006 00BF     		.align	2
 945              	.L73:
 946 0008 00000000 		.word	s_mco_src
 947              		.cfi_endproc
 948              	.LFE270:
 950              		.section	.rodata.system_clock_mco_label.str1.4,"aMS",%progbits,1
 951              		.align	2
 952              	.LC1:
 953 0000 4D434F31 		.ascii	"MCO1:HSI 16MHz\000"
 953      3A485349 
 953      2031364D 
 953      487A00
 954 000f 00       		.align	2
 955              	.LC2:
 956 0010 4D434F31 		.ascii	"MCO1:LSE NO OSC\000"
 956      3A4C5345 
 956      204E4F20 
 956      4F534300 
 957              		.align	2
 958              	.LC3:
 959 0020 4D434F31 		.ascii	"MCO1:PLL 20MHz\000"
 959      3A504C4C 
 959      2032304D 
 959      487A00
 960 002f 00       		.align	2
 961              	.LC4:
 962 0030 4D434F31 		.ascii	"MCO1:?\000"
 962      3A3F00
 963 0037 00       		.align	2
ARM GAS  /tmp/ccjBgtoi.s 			page 47


 964              	.LC5:
 965 0038 4D434F31 		.ascii	"MCO1:LSE 32768\000"
 965      3A4C5345 
 965      20333237 
 965      363800
 966              		.section	.text.system_clock_mco_label,"ax",%progbits
 967              		.align	1
 968              		.global	system_clock_mco_label
 969              		.syntax unified
 970              		.thumb
 971              		.thumb_func
 973              	system_clock_mco_label:
 974              	.LFB271:
 402:Core/Src/main_unique.c ****     switch (s_mco_src) {
 975              		.loc 1 402 1 is_stmt 1 view -0
 976              		.cfi_startproc
 977              		@ args = 0, pretend = 0, frame = 0
 978              		@ frame_needed = 0, uses_anonymous_args = 0
 979              		@ link register save eliminated.
 403:Core/Src/main_unique.c ****     case MCO_SRC_HSI: return "MCO1:HSI 16MHz";
 980              		.loc 1 403 5 view .LVU225
 981 0000 094B     		ldr	r3, .L81
 982 0002 1B78     		ldrb	r3, [r3]	@ zero_extendqisi2
 983 0004 012B     		cmp	r3, #1
 984 0006 04D0     		beq	.L76
 985 0008 022B     		cmp	r3, #2
 986 000a 07D0     		beq	.L78
 987 000c 43B9     		cbnz	r3, .L79
 988 000e 0748     		ldr	r0, .L81+4
 989 0010 7047     		bx	lr
 990              	.L76:
 405:Core/Src/main_unique.c ****     case MCO_SRC_PLL: return "MCO1:PLL 20MHz";
 991              		.loc 1 405 23 view .LVU226
 405:Core/Src/main_unique.c ****     case MCO_SRC_PLL: return "MCO1:PLL 20MHz";
 992              		.loc 1 405 39 is_stmt 0 view .LVU227
 993 0012 074B     		ldr	r3, .L81+8
 994 0014 1B78     		ldrb	r3, [r3]	@ zero_extendqisi2
 405:Core/Src/main_unique.c ****     case MCO_SRC_PLL: return "MCO1:PLL 20MHz";
 995              		.loc 1 405 58 view .LVU228
 996 0016 2BB1     		cbz	r3, .L80
 405:Core/Src/main_unique.c ****     case MCO_SRC_PLL: return "MCO1:PLL 20MHz";
 997              		.loc 1 405 58 discriminator 1 view .LVU229
 998 0018 0648     		ldr	r0, .L81+12
 999 001a 7047     		bx	lr
 1000              	.L78:
 406:Core/Src/main_unique.c ****     default:          return "MCO1:?";
 1001              		.loc 1 406 30 view .LVU230
 1002 001c 0648     		ldr	r0, .L81+16
 1003 001e 7047     		bx	lr
 1004              	.L79:
 407:Core/Src/main_unique.c ****     }
 1005              		.loc 1 407 30 view .LVU231
 1006 0020 0648     		ldr	r0, .L81+20
 1007 0022 7047     		bx	lr
 1008              	.L80:
 405:Core/Src/main_unique.c ****     case MCO_SRC_PLL: return "MCO1:PLL 20MHz";
 1009              		.loc 1 405 58 discriminator 2 view .LVU232
ARM GAS  /tmp/ccjBgtoi.s 			page 48


 1010 0024 0648     		ldr	r0, .L81+24
 409:Core/Src/main_unique.c **** 
 1011              		.loc 1 409 1 view .LVU233
 1012 0026 7047     		bx	lr
 1013              	.L82:
 1014              		.align	2
 1015              	.L81:
 1016 0028 00000000 		.word	s_mco_src
 1017 002c 00000000 		.word	.LC1
 1018 0030 00000000 		.word	s_lse_ok
 1019 0034 38000000 		.word	.LC5
 1020 0038 20000000 		.word	.LC3
 1021 003c 30000000 		.word	.LC4
 1022 0040 10000000 		.word	.LC2
 1023              		.cfi_endproc
 1024              	.LFE271:
 1026              		.section	.text.system_clock_lse_ok,"ax",%progbits
 1027              		.align	1
 1028              		.global	system_clock_lse_ok
 1029              		.syntax unified
 1030              		.thumb
 1031              		.thumb_func
 1033              	system_clock_lse_ok:
 1034              	.LFB272:
 413:Core/Src/main_unique.c ****     return s_lse_ok;
 1035              		.loc 1 413 1 is_stmt 1 view -0
 1036              		.cfi_startproc
 1037              		@ args = 0, pretend = 0, frame = 0
 1038              		@ frame_needed = 0, uses_anonymous_args = 0
 1039              		@ link register save eliminated.
 414:Core/Src/main_unique.c **** }
 1040              		.loc 1 414 5 view .LVU235
 415:Core/Src/main_unique.c **** 
 1041              		.loc 1 415 1 is_stmt 0 view .LVU236
 1042 0000 014B     		ldr	r3, .L84
 1043 0002 1878     		ldrb	r0, [r3]	@ zero_extendqisi2
 1044 0004 7047     		bx	lr
 1045              	.L85:
 1046 0006 00BF     		.align	2
 1047              	.L84:
 1048 0008 00000000 		.word	s_lse_ok
 1049              		.cfi_endproc
 1050              	.LFE272:
 1052              		.section	.text.system_clock_mco_freq,"ax",%progbits
 1053              		.align	1
 1054              		.global	system_clock_mco_freq
 1055              		.syntax unified
 1056              		.thumb
 1057              		.thumb_func
 1059              	system_clock_mco_freq:
 1060              	.LFB273:
 419:Core/Src/main_unique.c ****     return s_mco_freq;
 1061              		.loc 1 419 1 is_stmt 1 view -0
 1062              		.cfi_startproc
 1063              		@ args = 0, pretend = 0, frame = 0
 1064              		@ frame_needed = 0, uses_anonymous_args = 0
 1065              		@ link register save eliminated.
ARM GAS  /tmp/ccjBgtoi.s 			page 49


 420:Core/Src/main_unique.c **** }
 1066              		.loc 1 420 5 view .LVU238
 421:Core/Src/main_unique.c **** 
 1067              		.loc 1 421 1 is_stmt 0 view .LVU239
 1068 0000 014B     		ldr	r3, .L87
 1069 0002 1868     		ldr	r0, [r3]
 1070 0004 7047     		bx	lr
 1071              	.L88:
 1072 0006 00BF     		.align	2
 1073              	.L87:
 1074 0008 00000000 		.word	s_mco_freq
 1075              		.cfi_endproc
 1076              	.LFE273:
 1078              		.section	.text.gpio_init,"ax",%progbits
 1079              		.align	1
 1080              		.global	gpio_init
 1081              		.syntax unified
 1082              		.thumb
 1083              		.thumb_func
 1085              	gpio_init:
 1086              	.LFB274:
 438:Core/Src/main_unique.c ****     GPIO_InitTypeDef gi = {0};   /* estructura de configuracion de pin */
 1087              		.loc 1 438 1 is_stmt 1 view -0
 1088              		.cfi_startproc
 1089              		@ args = 0, pretend = 0, frame = 32
 1090              		@ frame_needed = 0, uses_anonymous_args = 0
 1091 0000 F0B5     		push	{r4, r5, r6, r7, lr}
 1092              	.LCFI14:
 1093              		.cfi_def_cfa_offset 20
 1094              		.cfi_offset 4, -20
 1095              		.cfi_offset 5, -16
 1096              		.cfi_offset 6, -12
 1097              		.cfi_offset 7, -8
 1098              		.cfi_offset 14, -4
 1099 0002 89B0     		sub	sp, sp, #36
 1100              	.LCFI15:
 1101              		.cfi_def_cfa_offset 56
 439:Core/Src/main_unique.c **** 
 1102              		.loc 1 439 5 view .LVU241
 439:Core/Src/main_unique.c **** 
 1103              		.loc 1 439 22 is_stmt 0 view .LVU242
 1104 0004 03AD     		add	r5, sp, #12
 1105 0006 0024     		movs	r4, #0
 1106 0008 0394     		str	r4, [sp, #12]
 1107 000a 0494     		str	r4, [sp, #16]
 1108 000c 0594     		str	r4, [sp, #20]
 1109 000e 0694     		str	r4, [sp, #24]
 1110 0010 0794     		str	r4, [sp, #28]
 442:Core/Src/main_unique.c ****     __HAL_RCC_GPIOB_CLK_ENABLE();   /* puerto B: pulsador en PB5          */
 1111              		.loc 1 442 5 is_stmt 1 view .LVU243
 1112              	.LBB5:
 442:Core/Src/main_unique.c ****     __HAL_RCC_GPIOB_CLK_ENABLE();   /* puerto B: pulsador en PB5          */
 1113              		.loc 1 442 5 view .LVU244
 1114 0012 0194     		str	r4, [sp, #4]
 442:Core/Src/main_unique.c ****     __HAL_RCC_GPIOB_CLK_ENABLE();   /* puerto B: pulsador en PB5          */
 1115              		.loc 1 442 5 view .LVU245
 1116 0014 1B4B     		ldr	r3, .L91
ARM GAS  /tmp/ccjBgtoi.s 			page 50


 1117 0016 1A6B     		ldr	r2, [r3, #48]
 1118 0018 42F08002 		orr	r2, r2, #128
 1119 001c 1A63     		str	r2, [r3, #48]
 442:Core/Src/main_unique.c ****     __HAL_RCC_GPIOB_CLK_ENABLE();   /* puerto B: pulsador en PB5          */
 1120              		.loc 1 442 5 view .LVU246
 1121 001e 1A6B     		ldr	r2, [r3, #48]
 1122 0020 02F08002 		and	r2, r2, #128
 1123 0024 0192     		str	r2, [sp, #4]
 442:Core/Src/main_unique.c ****     __HAL_RCC_GPIOB_CLK_ENABLE();   /* puerto B: pulsador en PB5          */
 1124              		.loc 1 442 5 view .LVU247
 1125 0026 019A     		ldr	r2, [sp, #4]
 1126              	.LBE5:
 442:Core/Src/main_unique.c ****     __HAL_RCC_GPIOB_CLK_ENABLE();   /* puerto B: pulsador en PB5          */
 1127              		.loc 1 442 5 view .LVU248
 443:Core/Src/main_unique.c **** 
 1128              		.loc 1 443 5 view .LVU249
 1129              	.LBB6:
 443:Core/Src/main_unique.c **** 
 1130              		.loc 1 443 5 view .LVU250
 1131 0028 0294     		str	r4, [sp, #8]
 443:Core/Src/main_unique.c **** 
 1132              		.loc 1 443 5 view .LVU251
 1133 002a 1A6B     		ldr	r2, [r3, #48]
 1134 002c 42F00202 		orr	r2, r2, #2
 1135 0030 1A63     		str	r2, [r3, #48]
 443:Core/Src/main_unique.c **** 
 1136              		.loc 1 443 5 view .LVU252
 1137 0032 1B6B     		ldr	r3, [r3, #48]
 1138 0034 03F00203 		and	r3, r3, #2
 1139 0038 0293     		str	r3, [sp, #8]
 443:Core/Src/main_unique.c **** 
 1140              		.loc 1 443 5 view .LVU253
 1141 003a 029B     		ldr	r3, [sp, #8]
 1142              	.LBE6:
 443:Core/Src/main_unique.c **** 
 1143              		.loc 1 443 5 view .LVU254
 448:Core/Src/main_unique.c **** 
 1144              		.loc 1 448 5 view .LVU255
 1145 003c 124F     		ldr	r7, .L91+4
 1146 003e 2246     		mov	r2, r4
 1147 0040 0221     		movs	r1, #2
 1148 0042 3846     		mov	r0, r7
 1149 0044 FFF7FEFF 		bl	HAL_GPIO_WritePin
 1150              	.LVL65:
 450:Core/Src/main_unique.c ****     gi.Mode  = GPIO_MODE_OUTPUT_PP;  /* push-pull: el pin puede forzar 0 y 1.
 1151              		.loc 1 450 5 view .LVU256
 450:Core/Src/main_unique.c ****     gi.Mode  = GPIO_MODE_OUTPUT_PP;  /* push-pull: el pin puede forzar 0 y 1.
 1152              		.loc 1 450 14 is_stmt 0 view .LVU257
 1153 0048 0223     		movs	r3, #2
 1154 004a 0393     		str	r3, [sp, #12]
 451:Core/Src/main_unique.c ****                                         Alternativa: GPIO_MODE_OUTPUT_OD
 1155              		.loc 1 451 5 is_stmt 1 view .LVU258
 451:Core/Src/main_unique.c ****                                         Alternativa: GPIO_MODE_OUTPUT_OD
 1156              		.loc 1 451 14 is_stmt 0 view .LVU259
 1157 004c 0126     		movs	r6, #1
 1158 004e 0496     		str	r6, [sp, #16]
 454:Core/Src/main_unique.c ****     gi.Speed = GPIO_SPEED_FREQ_LOW;  /* 2 MHz basta para 4 Hz; velocidades
ARM GAS  /tmp/ccjBgtoi.s 			page 51


 1159              		.loc 1 454 5 is_stmt 1 view .LVU260
 454:Core/Src/main_unique.c ****     gi.Speed = GPIO_SPEED_FREQ_LOW;  /* 2 MHz basta para 4 Hz; velocidades
 1160              		.loc 1 454 14 is_stmt 0 view .LVU261
 1161 0050 0594     		str	r4, [sp, #20]
 455:Core/Src/main_unique.c ****                                         mayores solo aumentan el ruido y el
 1162              		.loc 1 455 5 is_stmt 1 view .LVU262
 455:Core/Src/main_unique.c ****                                         mayores solo aumentan el ruido y el
 1163              		.loc 1 455 14 is_stmt 0 view .LVU263
 1164 0052 0694     		str	r4, [sp, #24]
 459:Core/Src/main_unique.c **** 
 1165              		.loc 1 459 5 is_stmt 1 view .LVU264
 1166 0054 2946     		mov	r1, r5
 1167 0056 3846     		mov	r0, r7
 1168 0058 FFF7FEFF 		bl	HAL_GPIO_Init
 1169              	.LVL66:
 462:Core/Src/main_unique.c ****     gi.Mode = GPIO_MODE_IT_FALLING;  /* interrupcion en flanco de bajada.
 1170              		.loc 1 462 5 view .LVU265
 462:Core/Src/main_unique.c ****     gi.Mode = GPIO_MODE_IT_FALLING;  /* interrupcion en flanco de bajada.
 1171              		.loc 1 462 13 is_stmt 0 view .LVU266
 1172 005c 2023     		movs	r3, #32
 1173 005e 0393     		str	r3, [sp, #12]
 463:Core/Src/main_unique.c ****                                         El SW del joystick cortocircuita el
 1174              		.loc 1 463 5 is_stmt 1 view .LVU267
 463:Core/Src/main_unique.c ****                                         El SW del joystick cortocircuita el
 1175              		.loc 1 463 13 is_stmt 0 view .LVU268
 1176 0060 4FF40413 		mov	r3, #2162688
 1177 0064 0493     		str	r3, [sp, #16]
 467:Core/Src/main_unique.c ****                                         y cae a 0 al pulsar. Evita anadir una
 1178              		.loc 1 467 5 is_stmt 1 view .LVU269
 467:Core/Src/main_unique.c ****                                         y cae a 0 al pulsar. Evita anadir una
 1179              		.loc 1 467 13 is_stmt 0 view .LVU270
 1180 0066 0596     		str	r6, [sp, #20]
 470:Core/Src/main_unique.c **** 
 1181              		.loc 1 470 5 is_stmt 1 view .LVU271
 1182 0068 2946     		mov	r1, r5
 1183 006a 0848     		ldr	r0, .L91+8
 1184 006c FFF7FEFF 		bl	HAL_GPIO_Init
 1185              	.LVL67:
 475:Core/Src/main_unique.c ****     HAL_NVIC_EnableIRQ(JOY_SW_EXTI_IRQn);
 1186              		.loc 1 475 5 view .LVU272
 1187 0070 2246     		mov	r2, r4
 1188 0072 0821     		movs	r1, #8
 1189 0074 1720     		movs	r0, #23
 1190 0076 FFF7FEFF 		bl	HAL_NVIC_SetPriority
 1191              	.LVL68:
 476:Core/Src/main_unique.c **** }
 1192              		.loc 1 476 5 view .LVU273
 1193 007a 1720     		movs	r0, #23
 1194 007c FFF7FEFF 		bl	HAL_NVIC_EnableIRQ
 1195              	.LVL69:
 477:Core/Src/main_unique.c **** 
 1196              		.loc 1 477 1 is_stmt 0 view .LVU274
 1197 0080 09B0     		add	sp, sp, #36
 1198              	.LCFI16:
 1199              		.cfi_def_cfa_offset 20
 1200              		@ sp needed
 1201 0082 F0BD     		pop	{r4, r5, r6, r7, pc}
ARM GAS  /tmp/ccjBgtoi.s 			page 52


 1202              	.L92:
 1203              		.align	2
 1204              	.L91:
 1205 0084 00380240 		.word	1073887232
 1206 0088 001C0240 		.word	1073880064
 1207 008c 00040240 		.word	1073873920
 1208              		.cfi_endproc
 1209              	.LFE274:
 1211              		.section	.text.gpio_led_toggle,"ax",%progbits
 1212              		.align	1
 1213              		.global	gpio_led_toggle
 1214              		.syntax unified
 1215              		.thumb
 1216              		.thumb_func
 1218              	gpio_led_toggle:
 1219              	.LFB275:
 481:Core/Src/main_unique.c ****     HAL_GPIO_TogglePin(LED_GPIO_PORT, LED_PIN);
 1220              		.loc 1 481 1 is_stmt 1 view -0
 1221              		.cfi_startproc
 1222              		@ args = 0, pretend = 0, frame = 0
 1223              		@ frame_needed = 0, uses_anonymous_args = 0
 1224 0000 08B5     		push	{r3, lr}
 1225              	.LCFI17:
 1226              		.cfi_def_cfa_offset 8
 1227              		.cfi_offset 3, -8
 1228              		.cfi_offset 14, -4
 482:Core/Src/main_unique.c **** }
 1229              		.loc 1 482 5 view .LVU276
 1230 0002 0221     		movs	r1, #2
 1231 0004 0148     		ldr	r0, .L95
 1232 0006 FFF7FEFF 		bl	HAL_GPIO_TogglePin
 1233              	.LVL70:
 483:Core/Src/main_unique.c **** 
 1234              		.loc 1 483 1 is_stmt 0 view .LVU277
 1235 000a 08BD     		pop	{r3, pc}
 1236              	.L96:
 1237              		.align	2
 1238              	.L95:
 1239 000c 001C0240 		.word	1073880064
 1240              		.cfi_endproc
 1241              	.LFE275:
 1243              		.section	.text.gpio_led_write,"ax",%progbits
 1244              		.align	1
 1245              		.global	gpio_led_write
 1246              		.syntax unified
 1247              		.thumb
 1248              		.thumb_func
 1250              	gpio_led_write:
 1251              	.LVL71:
 1252              	.LFB276:
 487:Core/Src/main_unique.c ****     HAL_GPIO_WritePin(LED_GPIO_PORT, LED_PIN,
 1253              		.loc 1 487 1 is_stmt 1 view -0
 1254              		.cfi_startproc
 1255              		@ args = 0, pretend = 0, frame = 0
 1256              		@ frame_needed = 0, uses_anonymous_args = 0
 487:Core/Src/main_unique.c ****     HAL_GPIO_WritePin(LED_GPIO_PORT, LED_PIN,
 1257              		.loc 1 487 1 is_stmt 0 view .LVU279
ARM GAS  /tmp/ccjBgtoi.s 			page 53


 1258 0000 08B5     		push	{r3, lr}
 1259              	.LCFI18:
 1260              		.cfi_def_cfa_offset 8
 1261              		.cfi_offset 3, -8
 1262              		.cfi_offset 14, -4
 488:Core/Src/main_unique.c ****                       on ? GPIO_PIN_SET : GPIO_PIN_RESET);
 1263              		.loc 1 488 5 is_stmt 1 view .LVU280
 1264 0002 021E     		subs	r2, r0, #0
 1265 0004 18BF     		it	ne
 1266 0006 0122     		movne	r2, #1
 1267 0008 0221     		movs	r1, #2
 1268 000a 0248     		ldr	r0, .L99
 1269              	.LVL72:
 488:Core/Src/main_unique.c ****                       on ? GPIO_PIN_SET : GPIO_PIN_RESET);
 1270              		.loc 1 488 5 is_stmt 0 view .LVU281
 1271 000c FFF7FEFF 		bl	HAL_GPIO_WritePin
 1272              	.LVL73:
 490:Core/Src/main_unique.c **** 
 1273              		.loc 1 490 1 view .LVU282
 1274 0010 08BD     		pop	{r3, pc}
 1275              	.L100:
 1276 0012 00BF     		.align	2
 1277              	.L99:
 1278 0014 001C0240 		.word	1073880064
 1279              		.cfi_endproc
 1280              	.LFE276:
 1282              		.section	.text.uart_send,"ax",%progbits
 1283              		.align	1
 1284              		.global	uart_send
 1285              		.syntax unified
 1286              		.thumb
 1287              		.thumb_func
 1289              	uart_send:
 1290              	.LVL74:
 1291              	.LFB279:
 576:Core/Src/main_unique.c ****     uint16_t next;
 1292              		.loc 1 576 1 is_stmt 1 view -0
 1293              		.cfi_startproc
 1294              		@ args = 0, pretend = 0, frame = 0
 1295              		@ frame_needed = 0, uses_anonymous_args = 0
 576:Core/Src/main_unique.c ****     uint16_t next;
 1296              		.loc 1 576 1 is_stmt 0 view .LVU284
 1297 0000 08B5     		push	{r3, lr}
 1298              	.LCFI19:
 1299              		.cfi_def_cfa_offset 8
 1300              		.cfi_offset 3, -8
 1301              		.cfi_offset 14, -4
 577:Core/Src/main_unique.c **** 
 1302              		.loc 1 577 5 is_stmt 1 view .LVU285
 579:Core/Src/main_unique.c ****         next = (uint16_t)((s_tx_head + 1U) % UART_TX_BUF_SIZE);
 1303              		.loc 1 579 5 view .LVU286
 579:Core/Src/main_unique.c ****         next = (uint16_t)((s_tx_head + 1U) % UART_TX_BUF_SIZE);
 1304              		.loc 1 579 11 is_stmt 0 view .LVU287
 1305 0002 08E0     		b	.L102
 1306              	.LVL75:
 1307              	.L106:
 584:Core/Src/main_unique.c ****         s_tx_head = next;
ARM GAS  /tmp/ccjBgtoi.s 			page 54


 1308              		.loc 1 584 9 is_stmt 1 view .LVU288
 584:Core/Src/main_unique.c ****         s_tx_head = next;
 1309              		.loc 1 584 42 is_stmt 0 view .LVU289
 1310 0004 0130     		adds	r0, r0, #1
 1311              	.LVL76:
 584:Core/Src/main_unique.c ****         s_tx_head = next;
 1312              		.loc 1 584 17 view .LVU290
 1313 0006 0B49     		ldr	r1, .L107
 1314 0008 B1F800C0 		ldrh	ip, [r1]
 584:Core/Src/main_unique.c ****         s_tx_head = next;
 1315              		.loc 1 584 29 view .LVU291
 1316 000c DFF82CE0 		ldr	lr, .L107+8
 1317 0010 0EF80C20 		strb	r2, [lr, ip]
 585:Core/Src/main_unique.c ****     }
 1318              		.loc 1 585 9 is_stmt 1 view .LVU292
 585:Core/Src/main_unique.c ****     }
 1319              		.loc 1 585 19 is_stmt 0 view .LVU293
 1320 0014 0B80     		strh	r3, [r1]	@ movhi
 1321              	.LVL77:
 1322              	.L102:
 579:Core/Src/main_unique.c ****         next = (uint16_t)((s_tx_head + 1U) % UART_TX_BUF_SIZE);
 1323              		.loc 1 579 15 is_stmt 1 discriminator 1 view .LVU294
 579:Core/Src/main_unique.c ****         next = (uint16_t)((s_tx_head + 1U) % UART_TX_BUF_SIZE);
 1324              		.loc 1 579 12 is_stmt 0 discriminator 1 view .LVU295
 1325 0016 0278     		ldrb	r2, [r0]	@ zero_extendqisi2
 579:Core/Src/main_unique.c ****         next = (uint16_t)((s_tx_head + 1U) % UART_TX_BUF_SIZE);
 1326              		.loc 1 579 15 discriminator 1 view .LVU296
 1327 0018 42B1     		cbz	r2, .L103
 580:Core/Src/main_unique.c ****         if (next == s_tx_tail) {
 1328              		.loc 1 580 9 is_stmt 1 view .LVU297
 580:Core/Src/main_unique.c ****         if (next == s_tx_tail) {
 1329              		.loc 1 580 16 is_stmt 0 view .LVU298
 1330 001a 064B     		ldr	r3, .L107
 1331 001c 1B88     		ldrh	r3, [r3]
 1332 001e 0133     		adds	r3, r3, #1
 580:Core/Src/main_unique.c ****         if (next == s_tx_tail) {
 1333              		.loc 1 580 14 view .LVU299
 1334 0020 C3F30803 		ubfx	r3, r3, #0, #9
 1335              	.LVL78:
 581:Core/Src/main_unique.c ****             break;   /* buffer lleno: se descarta el resto */
 1336              		.loc 1 581 9 is_stmt 1 view .LVU300
 581:Core/Src/main_unique.c ****             break;   /* buffer lleno: se descarta el resto */
 1337              		.loc 1 581 18 is_stmt 0 view .LVU301
 1338 0024 0449     		ldr	r1, .L107+4
 1339 0026 0988     		ldrh	r1, [r1]
 581:Core/Src/main_unique.c ****             break;   /* buffer lleno: se descarta el resto */
 1340              		.loc 1 581 12 view .LVU302
 1341 0028 9942     		cmp	r1, r3
 1342 002a EBD1     		bne	.L106
 1343              	.LVL79:
 1344              	.L103:
 587:Core/Src/main_unique.c **** }
 1345              		.loc 1 587 5 is_stmt 1 view .LVU303
 1346 002c FFF7FEFF 		bl	uart_start_tx
 1347              	.LVL80:
 588:Core/Src/main_unique.c **** 
 1348              		.loc 1 588 1 is_stmt 0 view .LVU304
ARM GAS  /tmp/ccjBgtoi.s 			page 55


 1349 0030 08BD     		pop	{r3, pc}
 1350              	.L108:
 1351 0032 00BF     		.align	2
 1352              	.L107:
 1353 0034 00000000 		.word	s_tx_head
 1354 0038 00000000 		.word	s_tx_tail
 1355 003c 00000000 		.word	s_tx_buf
 1356              		.cfi_endproc
 1357              	.LFE279:
 1359              		.section	.rodata.uart_send_line.str1.4,"aMS",%progbits,1
 1360              		.align	2
 1361              	.LC6:
 1362 0000 0D0A00   		.ascii	"\015\012\000"
 1363              		.section	.text.uart_send_line,"ax",%progbits
 1364              		.align	1
 1365              		.global	uart_send_line
 1366              		.syntax unified
 1367              		.thumb
 1368              		.thumb_func
 1370              	uart_send_line:
 1371              	.LVL81:
 1372              	.LFB280:
 591:Core/Src/main_unique.c ****     uart_send(s);
 1373              		.loc 1 591 1 is_stmt 1 view -0
 1374              		.cfi_startproc
 1375              		@ args = 0, pretend = 0, frame = 0
 1376              		@ frame_needed = 0, uses_anonymous_args = 0
 591:Core/Src/main_unique.c ****     uart_send(s);
 1377              		.loc 1 591 1 is_stmt 0 view .LVU306
 1378 0000 08B5     		push	{r3, lr}
 1379              	.LCFI20:
 1380              		.cfi_def_cfa_offset 8
 1381              		.cfi_offset 3, -8
 1382              		.cfi_offset 14, -4
 592:Core/Src/main_unique.c ****     uart_send("\r\n");
 1383              		.loc 1 592 5 is_stmt 1 view .LVU307
 1384 0002 FFF7FEFF 		bl	uart_send
 1385              	.LVL82:
 593:Core/Src/main_unique.c **** }
 1386              		.loc 1 593 5 view .LVU308
 1387 0006 0248     		ldr	r0, .L111
 1388 0008 FFF7FEFF 		bl	uart_send
 1389              	.LVL83:
 594:Core/Src/main_unique.c **** 
 1390              		.loc 1 594 1 is_stmt 0 view .LVU309
 1391 000c 08BD     		pop	{r3, pc}
 1392              	.L112:
 1393 000e 00BF     		.align	2
 1394              	.L111:
 1395 0010 00000000 		.word	.LC6
 1396              		.cfi_endproc
 1397              	.LFE280:
 1399              		.section	.rodata.print_help.str1.4,"aMS",%progbits,1
 1400              		.align	2
 1401              	.LC7:
 1402 0000 00       		.ascii	"\000"
 1403 0001 000000   		.align	2
ARM GAS  /tmp/ccjBgtoi.s 			page 56


 1404              	.LC8:
 1405 0004 3D3D3D20 		.ascii	"=== PARCIAL TALLER V 2026-1 - DANIEL VARGAS - UNAL "
 1405      50415243 
 1405      49414C20 
 1405      54414C4C 
 1405      45522056 
 1406 0037 3D3D3D00 		.ascii	"===\000"
 1407 003b 00       		.align	2
 1408              	.LC9:
 1409 003c 2063203A 		.ascii	" c : coordenadas X e Y a cero\000"
 1409      20636F6F 
 1409      7264656E 
 1409      61646173 
 1409      20582065 
 1410 005a 0000     		.align	2
 1411              	.LC10:
 1412 005c 2078203A 		.ascii	" x : activa modo X\000"
 1412      20616374 
 1412      69766120 
 1412      6D6F646F 
 1412      205800
 1413 006f 00       		.align	2
 1414              	.LC11:
 1415 0070 2079203A 		.ascii	" y : activa modo Y\000"
 1415      20616374 
 1415      69766120 
 1415      6D6F646F 
 1415      205900
 1416 0083 00       		.align	2
 1417              	.LC12:
 1418 0084 202B203A 		.ascii	" + : incrementa la coordenada del modo activo\000"
 1418      20696E63 
 1418      72656D65 
 1418      6E746120 
 1418      6C612063 
 1419 00b2 0000     		.align	2
 1420              	.LC13:
 1421 00b4 202D203A 		.ascii	" - : decrementa la coordenada del modo activo\000"
 1421      20646563 
 1421      72656D65 
 1421      6E746120 
 1421      6C612063 
 1422 00e2 0000     		.align	2
 1423              	.LC14:
 1424 00e4 2068203A 		.ascii	" h : MCO1 (PA8) = HSI 16 MHz\000"
 1424      204D434F 
 1424      31202850 
 1424      41382920 
 1424      3D204853 
 1425 0101 000000   		.align	2
 1426              	.LC15:
 1427 0104 206C203A 		.ascii	" l : MCO1 (PA8) = LSE 32768 Hz\000"
 1427      204D434F 
 1427      31202850 
 1427      41382920 
 1427      3D204C53 
 1428 0123 00       		.align	2
ARM GAS  /tmp/ccjBgtoi.s 			page 57


 1429              	.LC16:
 1430 0124 2070203A 		.ascii	" p : MCO1 (PA8) = PLL / 5 = 20 MHz\000"
 1430      204D434F 
 1430      31202850 
 1430      41382920 
 1430      3D20504C 
 1431 0147 00       		.align	2
 1432              	.LC17:
 1433 0148 2064203A 		.ascii	" d : informe de diagnostico del sistema\000"
 1433      20696E66 
 1433      6F726D65 
 1433      20646520 
 1433      64696167 
 1434              		.align	2
 1435              	.LC18:
 1436 0170 2073203A 		.ascii	" s : sondeo completo del bus I2C\000"
 1436      20736F6E 
 1436      64656F20 
 1436      636F6D70 
 1436      6C65746F 
 1437 0191 000000   		.align	2
 1438              	.LC19:
 1439 0194 203F203A 		.ascii	" ? : esta ayuda\000"
 1439      20657374 
 1439      61206179 
 1439      75646100 
 1440              		.align	2
 1441              	.LC20:
 1442 01a4 3D3D3D3D 		.ascii	"==================================================="
 1442      3D3D3D3D 
 1442      3D3D3D3D 
 1442      3D3D3D3D 
 1442      3D3D3D3D 
 1443 01d7 3D3D3D00 		.ascii	"===\000"
 1444              		.section	.text.print_help,"ax",%progbits
 1445              		.align	1
 1446              		.syntax unified
 1447              		.thumb
 1448              		.thumb_func
 1450              	print_help:
 1451              	.LFB332:
1558:Core/Src/main_unique.c **** 
1559:Core/Src/main_unique.c **** /*
1560:Core/Src/main_unique.c ****  * render_line2
1561:Core/Src/main_unique.c ****  * Compone la ventana visible de la fila 1.
1562:Core/Src/main_unique.c ****  * Si el texto cabe entero se muestra fijo; si no, se desplaza ciclicamente
1563:Core/Src/main_unique.c ****  * anadiendo un separador de tres espacios entre el final y el principio.
1564:Core/Src/main_unique.c ****  */
1565:Core/Src/main_unique.c **** static void render_line2(void)
1566:Core/Src/main_unique.c **** {
1567:Core/Src/main_unique.c ****     char     win[LCD_COLS + 1U];
1568:Core/Src/main_unique.c ****     uint16_t len, total, i, idx;
1569:Core/Src/main_unique.c **** 
1570:Core/Src/main_unique.c ****     if (s_line2 == NULL) {
1571:Core/Src/main_unique.c ****         return;
1572:Core/Src/main_unique.c ****     }
1573:Core/Src/main_unique.c **** 
ARM GAS  /tmp/ccjBgtoi.s 			page 58


1574:Core/Src/main_unique.c ****     len = (uint16_t)strlen(s_line2);
1575:Core/Src/main_unique.c **** 
1576:Core/Src/main_unique.c ****     if (len <= LCD_COLS) {
1577:Core/Src/main_unique.c ****         lcd_update(1U, s_line2);   /* cabe entero: sin desplazamiento */
1578:Core/Src/main_unique.c ****         return;
1579:Core/Src/main_unique.c ****     }
1580:Core/Src/main_unique.c **** 
1581:Core/Src/main_unique.c ****     total = (uint16_t)(len + 3U);      /* longitud del ciclo con separador */
1582:Core/Src/main_unique.c **** 
1583:Core/Src/main_unique.c ****     for (i = 0U; i < LCD_COLS; i++) {
1584:Core/Src/main_unique.c ****         idx = (uint16_t)((s_scroll + i) % total);
1585:Core/Src/main_unique.c ****         win[i] = (idx < len) ? s_line2[idx] : ' ';
1586:Core/Src/main_unique.c ****     }
1587:Core/Src/main_unique.c ****     win[LCD_COLS] = '\0';
1588:Core/Src/main_unique.c **** 
1589:Core/Src/main_unique.c ****     lcd_update(1U, win);
1590:Core/Src/main_unique.c **** }
1591:Core/Src/main_unique.c **** 
1592:Core/Src/main_unique.c **** /*
1593:Core/Src/main_unique.c ****  * render_time
1594:Core/Src/main_unique.c ****  * Refresca la fila 0 con la hora y la fecha del RTC.
1595:Core/Src/main_unique.c ****  */
1596:Core/Src/main_unique.c **** static void render_time(void)
1597:Core/Src/main_unique.c **** {
1598:Core/Src/main_unique.c ****     char buf[LCD_COLS + 1U];
1599:Core/Src/main_unique.c **** 
1600:Core/Src/main_unique.c ****     rtc_format_line(buf, sizeof(buf));
1601:Core/Src/main_unique.c ****     lcd_update(0U, buf);
1602:Core/Src/main_unique.c **** }
1603:Core/Src/main_unique.c **** 
1604:Core/Src/main_unique.c **** /*
1605:Core/Src/main_unique.c ****  * render_coords
1606:Core/Src/main_unique.c ****  * Refresca las filas 2 y 3 con la coordenada y la muestra cruda de cada eje.
1607:Core/Src/main_unique.c ****  * Formato: "X:+025 ADC:2048".
1608:Core/Src/main_unique.c ****  */
1609:Core/Src/main_unique.c **** static void render_coords(void)
1610:Core/Src/main_unique.c **** {
1611:Core/Src/main_unique.c ****     /* El buffer se dimensiona con holgura para que el compilador pueda
1612:Core/Src/main_unique.c ****        descartar cualquier posibilidad de truncamiento en snprintf. */
1613:Core/Src/main_unique.c ****     char buf[24];
1614:Core/Src/main_unique.c **** 
1615:Core/Src/main_unique.c ****     snprintf(buf, sizeof(buf), "X:%+04d ADC:%04u",
1616:Core/Src/main_unique.c ****              (int)s_coord_x, (unsigned)adc_joystick_raw_x());
1617:Core/Src/main_unique.c ****     lcd_update(2U, buf);
1618:Core/Src/main_unique.c **** 
1619:Core/Src/main_unique.c ****     snprintf(buf, sizeof(buf), "Y:%+04d ADC:%04u",
1620:Core/Src/main_unique.c ****              (int)s_coord_y, (unsigned)adc_joystick_raw_y());
1621:Core/Src/main_unique.c ****     lcd_update(3U, buf);
1622:Core/Src/main_unique.c **** }
1623:Core/Src/main_unique.c **** 
1624:Core/Src/main_unique.c **** /*
1625:Core/Src/main_unique.c ****  * show_message
1626:Core/Src/main_unique.c ****  * Muestra un texto temporal en la fila 1 y programa el regreso al estado
1627:Core/Src/main_unique.c ****  * anterior transcurridos 3 segundos.
1628:Core/Src/main_unique.c ****  */
1629:Core/Src/main_unique.c **** static void show_message(const char *txt)
1630:Core/Src/main_unique.c **** {
ARM GAS  /tmp/ccjBgtoi.s 			page 59


1631:Core/Src/main_unique.c ****     if (s_state != ST_MESSAGE) {
1632:Core/Src/main_unique.c ****         s_prev = s_state;      /* memoriza a donde volver */
1633:Core/Src/main_unique.c ****     }
1634:Core/Src/main_unique.c ****     s_state       = ST_MESSAGE;
1635:Core/Src/main_unique.c ****     s_msg_timeout = MSG_DURATION_TICKS;
1636:Core/Src/main_unique.c ****     set_line2(txt);
1637:Core/Src/main_unique.c ****     render_line2();
1638:Core/Src/main_unique.c **** }
1639:Core/Src/main_unique.c **** 
1640:Core/Src/main_unique.c **** /*
1641:Core/Src/main_unique.c ****  * restore_line2
1642:Core/Src/main_unique.c ****  * Devuelve a la fila 1 el texto que corresponde al estado activo.
1643:Core/Src/main_unique.c ****  */
1644:Core/Src/main_unique.c **** static void restore_line2(void)
1645:Core/Src/main_unique.c **** {
1646:Core/Src/main_unique.c ****     switch (s_state) {
1647:Core/Src/main_unique.c ****     case ST_MODE_X: set_line2(TXT_MODE_X); break;
1648:Core/Src/main_unique.c ****     case ST_MODE_Y: set_line2(TXT_MODE_Y); break;
1649:Core/Src/main_unique.c ****     default:        set_line2(TXT_BANNER); break;
1650:Core/Src/main_unique.c ****     }
1651:Core/Src/main_unique.c ****     render_line2();
1652:Core/Src/main_unique.c **** }
1653:Core/Src/main_unique.c **** 
1654:Core/Src/main_unique.c **** /* ----------------------- Acciones sobre las coordenadas ------------------ */
1655:Core/Src/main_unique.c **** 
1656:Core/Src/main_unique.c **** /*
1657:Core/Src/main_unique.c ****  * coord_step
1658:Core/Src/main_unique.c ****  * Aplica un incremento a la coordenada del modo activo. Si no hay modo
1659:Core/Src/main_unique.c ****  * seleccionado emite el aviso exigido por el enunciado.
1660:Core/Src/main_unique.c ****  */
1661:Core/Src/main_unique.c **** static void coord_step(int16_t delta)
1662:Core/Src/main_unique.c **** {
1663:Core/Src/main_unique.c ****     switch (s_state) {
1664:Core/Src/main_unique.c **** 
1665:Core/Src/main_unique.c ****     case ST_MODE_X:
1666:Core/Src/main_unique.c ****         s_coord_x = clamp_coord((int32_t)s_coord_x + delta);
1667:Core/Src/main_unique.c ****         render_coords();
1668:Core/Src/main_unique.c ****         break;
1669:Core/Src/main_unique.c **** 
1670:Core/Src/main_unique.c ****     case ST_MODE_Y:
1671:Core/Src/main_unique.c ****         s_coord_y = clamp_coord((int32_t)s_coord_y + delta);
1672:Core/Src/main_unique.c ****         render_coords();
1673:Core/Src/main_unique.c ****         break;
1674:Core/Src/main_unique.c **** 
1675:Core/Src/main_unique.c ****     case ST_MESSAGE:
1676:Core/Src/main_unique.c ****         /* Si ya se esta mostrando el aviso se prolonga su duracion, salvo que
1677:Core/Src/main_unique.c ****            el modo memorizado sea valido, en cuyo caso se aplica el paso. */
1678:Core/Src/main_unique.c ****         if (s_prev == ST_MODE_X) {
1679:Core/Src/main_unique.c ****             s_coord_x = clamp_coord((int32_t)s_coord_x + delta);
1680:Core/Src/main_unique.c ****             render_coords();
1681:Core/Src/main_unique.c ****         } else if (s_prev == ST_MODE_Y) {
1682:Core/Src/main_unique.c ****             s_coord_y = clamp_coord((int32_t)s_coord_y + delta);
1683:Core/Src/main_unique.c ****             render_coords();
1684:Core/Src/main_unique.c ****         } else {
1685:Core/Src/main_unique.c ****             s_msg_timeout = MSG_DURATION_TICKS;
1686:Core/Src/main_unique.c ****         }
1687:Core/Src/main_unique.c ****         break;
ARM GAS  /tmp/ccjBgtoi.s 			page 60


1688:Core/Src/main_unique.c **** 
1689:Core/Src/main_unique.c ****     default:
1690:Core/Src/main_unique.c ****         show_message(TXT_NO_MODE);
1691:Core/Src/main_unique.c ****         uart_send_line("ERROR: seleccione modo con 'x' o 'y'");
1692:Core/Src/main_unique.c ****         break;
1693:Core/Src/main_unique.c ****     }
1694:Core/Src/main_unique.c **** }
1695:Core/Src/main_unique.c **** 
1696:Core/Src/main_unique.c **** /*
1697:Core/Src/main_unique.c ****  * apply_joystick
1698:Core/Src/main_unique.c ****  * Traduce la posicion del joystick en incrementos de coordenada. Se ejecuta
1699:Core/Src/main_unique.c ****  * cada 100 ms, de modo que mantener la palanca desviada produce un barrido
1700:Core/Src/main_unique.c ****  * continuo de 10 unidades por segundo.
1701:Core/Src/main_unique.c ****  */
1702:Core/Src/main_unique.c **** static void apply_joystick(void)
1703:Core/Src/main_unique.c **** {
1704:Core/Src/main_unique.c ****     int8_t dx = adc_joystick_dir_x();
1705:Core/Src/main_unique.c ****     int8_t dy = adc_joystick_dir_y();
1706:Core/Src/main_unique.c **** 
1707:Core/Src/main_unique.c ****     if (dx != 0) {
1708:Core/Src/main_unique.c ****         s_coord_x = clamp_coord((int32_t)s_coord_x + dx);
1709:Core/Src/main_unique.c ****     }
1710:Core/Src/main_unique.c ****     if (dy != 0) {
1711:Core/Src/main_unique.c ****         s_coord_y = clamp_coord((int32_t)s_coord_y + dy);
1712:Core/Src/main_unique.c ****     }
1713:Core/Src/main_unique.c **** }
1714:Core/Src/main_unique.c **** 
1715:Core/Src/main_unique.c **** /* ----------------------- Ayuda por consola ------------------------------- */
1716:Core/Src/main_unique.c **** static void print_help(void)
1717:Core/Src/main_unique.c **** {
 1452              		.loc 1 1717 1 is_stmt 1 view -0
 1453              		.cfi_startproc
 1454              		@ args = 0, pretend = 0, frame = 0
 1455              		@ frame_needed = 0, uses_anonymous_args = 0
 1456 0000 08B5     		push	{r3, lr}
 1457              	.LCFI21:
 1458              		.cfi_def_cfa_offset 8
 1459              		.cfi_offset 3, -8
 1460              		.cfi_offset 14, -4
1718:Core/Src/main_unique.c ****     uart_send_line("");
 1461              		.loc 1 1718 5 view .LVU311
 1462 0002 1548     		ldr	r0, .L115
 1463 0004 FFF7FEFF 		bl	uart_send_line
 1464              	.LVL84:
1719:Core/Src/main_unique.c ****     uart_send_line("=== PARCIAL TALLER V 2026-1 - DANIEL VARGAS - UNAL ===");
 1465              		.loc 1 1719 5 view .LVU312
 1466 0008 1448     		ldr	r0, .L115+4
 1467 000a FFF7FEFF 		bl	uart_send_line
 1468              	.LVL85:
1720:Core/Src/main_unique.c ****     uart_send_line(" c : coordenadas X e Y a cero");
 1469              		.loc 1 1720 5 view .LVU313
 1470 000e 1448     		ldr	r0, .L115+8
 1471 0010 FFF7FEFF 		bl	uart_send_line
 1472              	.LVL86:
1721:Core/Src/main_unique.c ****     uart_send_line(" x : activa modo X");
 1473              		.loc 1 1721 5 view .LVU314
 1474 0014 1348     		ldr	r0, .L115+12
ARM GAS  /tmp/ccjBgtoi.s 			page 61


 1475 0016 FFF7FEFF 		bl	uart_send_line
 1476              	.LVL87:
1722:Core/Src/main_unique.c ****     uart_send_line(" y : activa modo Y");
 1477              		.loc 1 1722 5 view .LVU315
 1478 001a 1348     		ldr	r0, .L115+16
 1479 001c FFF7FEFF 		bl	uart_send_line
 1480              	.LVL88:
1723:Core/Src/main_unique.c ****     uart_send_line(" + : incrementa la coordenada del modo activo");
 1481              		.loc 1 1723 5 view .LVU316
 1482 0020 1248     		ldr	r0, .L115+20
 1483 0022 FFF7FEFF 		bl	uart_send_line
 1484              	.LVL89:
1724:Core/Src/main_unique.c ****     uart_send_line(" - : decrementa la coordenada del modo activo");
 1485              		.loc 1 1724 5 view .LVU317
 1486 0026 1248     		ldr	r0, .L115+24
 1487 0028 FFF7FEFF 		bl	uart_send_line
 1488              	.LVL90:
1725:Core/Src/main_unique.c ****     uart_send_line(" h : MCO1 (PA8) = HSI 16 MHz");
 1489              		.loc 1 1725 5 view .LVU318
 1490 002c 1148     		ldr	r0, .L115+28
 1491 002e FFF7FEFF 		bl	uart_send_line
 1492              	.LVL91:
1726:Core/Src/main_unique.c ****     uart_send_line(" l : MCO1 (PA8) = LSE 32768 Hz");
 1493              		.loc 1 1726 5 view .LVU319
 1494 0032 1148     		ldr	r0, .L115+32
 1495 0034 FFF7FEFF 		bl	uart_send_line
 1496              	.LVL92:
1727:Core/Src/main_unique.c ****     uart_send_line(" p : MCO1 (PA8) = PLL / 5 = 20 MHz");
 1497              		.loc 1 1727 5 view .LVU320
 1498 0038 1048     		ldr	r0, .L115+36
 1499 003a FFF7FEFF 		bl	uart_send_line
 1500              	.LVL93:
1728:Core/Src/main_unique.c ****     uart_send_line(" d : informe de diagnostico del sistema");
 1501              		.loc 1 1728 5 view .LVU321
 1502 003e 1048     		ldr	r0, .L115+40
 1503 0040 FFF7FEFF 		bl	uart_send_line
 1504              	.LVL94:
1729:Core/Src/main_unique.c ****     uart_send_line(" s : sondeo completo del bus I2C");
 1505              		.loc 1 1729 5 view .LVU322
 1506 0044 0F48     		ldr	r0, .L115+44
 1507 0046 FFF7FEFF 		bl	uart_send_line
 1508              	.LVL95:
1730:Core/Src/main_unique.c ****     uart_send_line(" ? : esta ayuda");
 1509              		.loc 1 1730 5 view .LVU323
 1510 004a 0F48     		ldr	r0, .L115+48
 1511 004c FFF7FEFF 		bl	uart_send_line
 1512              	.LVL96:
1731:Core/Src/main_unique.c ****     uart_send_line("======================================================");
 1513              		.loc 1 1731 5 view .LVU324
 1514 0050 0E48     		ldr	r0, .L115+52
 1515 0052 FFF7FEFF 		bl	uart_send_line
 1516              	.LVL97:
1732:Core/Src/main_unique.c **** }
 1517              		.loc 1 1732 1 is_stmt 0 view .LVU325
 1518 0056 08BD     		pop	{r3, pc}
 1519              	.L116:
 1520              		.align	2
ARM GAS  /tmp/ccjBgtoi.s 			page 62


 1521              	.L115:
 1522 0058 00000000 		.word	.LC7
 1523 005c 04000000 		.word	.LC8
 1524 0060 3C000000 		.word	.LC9
 1525 0064 5C000000 		.word	.LC10
 1526 0068 70000000 		.word	.LC11
 1527 006c 84000000 		.word	.LC12
 1528 0070 B4000000 		.word	.LC13
 1529 0074 E4000000 		.word	.LC14
 1530 0078 04010000 		.word	.LC15
 1531 007c 24010000 		.word	.LC16
 1532 0080 48010000 		.word	.LC17
 1533 0084 70010000 		.word	.LC18
 1534 0088 94010000 		.word	.LC19
 1535 008c A4010000 		.word	.LC20
 1536              		.cfi_endproc
 1537              	.LFE332:
 1539              		.section	.text.HAL_UART_TxCpltCallback,"ax",%progbits
 1540              		.align	1
 1541              		.global	HAL_UART_TxCpltCallback
 1542              		.syntax unified
 1543              		.thumb
 1544              		.thumb_func
 1546              	HAL_UART_TxCpltCallback:
 1547              	.LVL98:
 1548              	.LFB281:
 602:Core/Src/main_unique.c ****     if (huart->Instance != USART2) {
 1549              		.loc 1 602 1 is_stmt 1 view -0
 1550              		.cfi_startproc
 1551              		@ args = 0, pretend = 0, frame = 0
 1552              		@ frame_needed = 0, uses_anonymous_args = 0
 602:Core/Src/main_unique.c ****     if (huart->Instance != USART2) {
 1553              		.loc 1 602 1 is_stmt 0 view .LVU327
 1554 0000 08B5     		push	{r3, lr}
 1555              	.LCFI22:
 1556              		.cfi_def_cfa_offset 8
 1557              		.cfi_offset 3, -8
 1558              		.cfi_offset 14, -4
 603:Core/Src/main_unique.c ****         return;
 1559              		.loc 1 603 5 is_stmt 1 view .LVU328
 603:Core/Src/main_unique.c ****         return;
 1560              		.loc 1 603 14 is_stmt 0 view .LVU329
 1561 0002 0268     		ldr	r2, [r0]
 603:Core/Src/main_unique.c ****         return;
 1562              		.loc 1 603 8 view .LVU330
 1563 0004 044B     		ldr	r3, .L121
 1564 0006 9A42     		cmp	r2, r3
 1565 0008 00D0     		beq	.L120
 1566              	.LVL99:
 1567              	.L117:
 608:Core/Src/main_unique.c **** 
 1568              		.loc 1 608 1 view .LVU331
 1569 000a 08BD     		pop	{r3, pc}
 1570              	.LVL100:
 1571              	.L120:
 606:Core/Src/main_unique.c ****     uart_start_tx();
 1572              		.loc 1 606 5 is_stmt 1 view .LVU332
ARM GAS  /tmp/ccjBgtoi.s 			page 63


 606:Core/Src/main_unique.c ****     uart_start_tx();
 1573              		.loc 1 606 15 is_stmt 0 view .LVU333
 1574 000c 034B     		ldr	r3, .L121+4
 1575 000e 0022     		movs	r2, #0
 1576 0010 1A70     		strb	r2, [r3]
 607:Core/Src/main_unique.c **** }
 1577              		.loc 1 607 5 is_stmt 1 view .LVU334
 1578 0012 FFF7FEFF 		bl	uart_start_tx
 1579              	.LVL101:
 607:Core/Src/main_unique.c **** }
 1580              		.loc 1 607 5 is_stmt 0 view .LVU335
 1581 0016 F8E7     		b	.L117
 1582              	.L122:
 1583              		.align	2
 1584              	.L121:
 1585 0018 00440040 		.word	1073759232
 1586 001c 00000000 		.word	s_tx_busy
 1587              		.cfi_endproc
 1588              	.LFE281:
 1590              		.section	.text.HAL_UART_ErrorCallback,"ax",%progbits
 1591              		.align	1
 1592              		.global	HAL_UART_ErrorCallback
 1593              		.syntax unified
 1594              		.thumb
 1595              		.thumb_func
 1597              	HAL_UART_ErrorCallback:
 1598              	.LVL102:
 1599              	.LFB283:
 654:Core/Src/main_unique.c ****     if (huart->Instance == USART2) {
 1600              		.loc 1 654 1 is_stmt 1 view -0
 1601              		.cfi_startproc
 1602              		@ args = 0, pretend = 0, frame = 8
 1603              		@ frame_needed = 0, uses_anonymous_args = 0
 655:Core/Src/main_unique.c ****         __HAL_UART_CLEAR_OREFLAG(huart);   /* limpia el error de desbordamiento */
 1604              		.loc 1 655 5 view .LVU337
 655:Core/Src/main_unique.c ****         __HAL_UART_CLEAR_OREFLAG(huart);   /* limpia el error de desbordamiento */
 1605              		.loc 1 655 14 is_stmt 0 view .LVU338
 1606 0000 0368     		ldr	r3, [r0]
 655:Core/Src/main_unique.c ****         __HAL_UART_CLEAR_OREFLAG(huart);   /* limpia el error de desbordamiento */
 1607              		.loc 1 655 8 view .LVU339
 1608 0002 0A4A     		ldr	r2, .L130
 1609 0004 9342     		cmp	r3, r2
 1610 0006 00D0     		beq	.L129
 1611 0008 7047     		bx	lr
 1612              	.L129:
 654:Core/Src/main_unique.c ****     if (huart->Instance == USART2) {
 1613              		.loc 1 654 1 view .LVU340
 1614 000a 00B5     		push	{lr}
 1615              	.LCFI23:
 1616              		.cfi_def_cfa_offset 4
 1617              		.cfi_offset 14, -4
 1618 000c 83B0     		sub	sp, sp, #12
 1619              	.LCFI24:
 1620              		.cfi_def_cfa_offset 16
 656:Core/Src/main_unique.c ****         HAL_UART_Receive_IT(&huart2, (uint8_t *)&s_rx_byte, 1U);
 1621              		.loc 1 656 9 is_stmt 1 view .LVU341
 1622              	.LBB7:
ARM GAS  /tmp/ccjBgtoi.s 			page 64


 656:Core/Src/main_unique.c ****         HAL_UART_Receive_IT(&huart2, (uint8_t *)&s_rx_byte, 1U);
 1623              		.loc 1 656 9 view .LVU342
 1624 000e 0022     		movs	r2, #0
 1625 0010 0192     		str	r2, [sp, #4]
 656:Core/Src/main_unique.c ****         HAL_UART_Receive_IT(&huart2, (uint8_t *)&s_rx_byte, 1U);
 1626              		.loc 1 656 9 view .LVU343
 1627 0012 1A68     		ldr	r2, [r3]
 1628 0014 0192     		str	r2, [sp, #4]
 656:Core/Src/main_unique.c ****         HAL_UART_Receive_IT(&huart2, (uint8_t *)&s_rx_byte, 1U);
 1629              		.loc 1 656 9 view .LVU344
 1630 0016 5B68     		ldr	r3, [r3, #4]
 1631 0018 0193     		str	r3, [sp, #4]
 656:Core/Src/main_unique.c ****         HAL_UART_Receive_IT(&huart2, (uint8_t *)&s_rx_byte, 1U);
 1632              		.loc 1 656 9 view .LVU345
 1633 001a 019B     		ldr	r3, [sp, #4]
 1634              	.LBE7:
 656:Core/Src/main_unique.c ****         HAL_UART_Receive_IT(&huart2, (uint8_t *)&s_rx_byte, 1U);
 1635              		.loc 1 656 9 view .LVU346
 657:Core/Src/main_unique.c ****     }
 1636              		.loc 1 657 9 view .LVU347
 1637 001c 0122     		movs	r2, #1
 1638 001e 0449     		ldr	r1, .L130+4
 1639 0020 0448     		ldr	r0, .L130+8
 1640              	.LVL103:
 657:Core/Src/main_unique.c ****     }
 1641              		.loc 1 657 9 is_stmt 0 view .LVU348
 1642 0022 FFF7FEFF 		bl	HAL_UART_Receive_IT
 1643              	.LVL104:
 659:Core/Src/main_unique.c **** 
 1644              		.loc 1 659 1 view .LVU349
 1645 0026 03B0     		add	sp, sp, #12
 1646              	.LCFI25:
 1647              		.cfi_def_cfa_offset 4
 1648              		@ sp needed
 1649 0028 00BD     		pop	{pc}
 1650              	.L131:
 1651 002a 00BF     		.align	2
 1652              	.L130:
 1653 002c 00440040 		.word	1073759232
 1654 0030 00000000 		.word	s_rx_byte
 1655 0034 00000000 		.word	huart2
 1656              		.cfi_endproc
 1657              	.LFE283:
 1659              		.section	.text.adc_joystick_raw_x,"ax",%progbits
 1660              		.align	1
 1661              		.global	adc_joystick_raw_x
 1662              		.syntax unified
 1663              		.thumb
 1664              		.thumb_func
 1666              	adc_joystick_raw_x:
 1667              	.LFB288:
 785:Core/Src/main_unique.c **** uint16_t adc_joystick_raw_y(void) { return s_raw_y; }
 1668              		.loc 1 785 35 is_stmt 1 view -0
 1669              		.cfi_startproc
 1670              		@ args = 0, pretend = 0, frame = 0
 1671              		@ frame_needed = 0, uses_anonymous_args = 0
 1672              		@ link register save eliminated.
ARM GAS  /tmp/ccjBgtoi.s 			page 65


 785:Core/Src/main_unique.c **** uint16_t adc_joystick_raw_y(void) { return s_raw_y; }
 1673              		.loc 1 785 37 view .LVU351
 785:Core/Src/main_unique.c **** uint16_t adc_joystick_raw_y(void) { return s_raw_y; }
 1674              		.loc 1 785 53 is_stmt 0 view .LVU352
 1675 0000 014B     		ldr	r3, .L133
 1676 0002 1888     		ldrh	r0, [r3]
 1677 0004 7047     		bx	lr
 1678              	.L134:
 1679 0006 00BF     		.align	2
 1680              	.L133:
 1681 0008 00000000 		.word	s_raw_x
 1682              		.cfi_endproc
 1683              	.LFE288:
 1685              		.section	.text.adc_joystick_raw_y,"ax",%progbits
 1686              		.align	1
 1687              		.global	adc_joystick_raw_y
 1688              		.syntax unified
 1689              		.thumb
 1690              		.thumb_func
 1692              	adc_joystick_raw_y:
 1693              	.LFB289:
 786:Core/Src/main_unique.c **** 
 1694              		.loc 1 786 35 is_stmt 1 view -0
 1695              		.cfi_startproc
 1696              		@ args = 0, pretend = 0, frame = 0
 1697              		@ frame_needed = 0, uses_anonymous_args = 0
 1698              		@ link register save eliminated.
 786:Core/Src/main_unique.c **** 
 1699              		.loc 1 786 37 view .LVU354
 786:Core/Src/main_unique.c **** 
 1700              		.loc 1 786 53 is_stmt 0 view .LVU355
 1701 0000 014B     		ldr	r3, .L136
 1702 0002 1888     		ldrh	r0, [r3]
 1703 0004 7047     		bx	lr
 1704              	.L137:
 1705 0006 00BF     		.align	2
 1706              	.L136:
 1707 0008 00000000 		.word	s_raw_y
 1708              		.cfi_endproc
 1709              	.LFE289:
 1711              		.section	.text.adc_joystick_dir_x,"ax",%progbits
 1712              		.align	1
 1713              		.global	adc_joystick_dir_x
 1714              		.syntax unified
 1715              		.thumb
 1716              		.thumb_func
 1718              	adc_joystick_dir_x:
 1719              	.LFB291:
 800:Core/Src/main_unique.c **** int8_t adc_joystick_dir_y(void) { return adc_dir(s_raw_y); }
 1720              		.loc 1 800 33 is_stmt 1 view -0
 1721              		.cfi_startproc
 1722              		@ args = 0, pretend = 0, frame = 0
 1723              		@ frame_needed = 0, uses_anonymous_args = 0
 1724 0000 08B5     		push	{r3, lr}
 1725              	.LCFI26:
 1726              		.cfi_def_cfa_offset 8
 1727              		.cfi_offset 3, -8
ARM GAS  /tmp/ccjBgtoi.s 			page 66


 1728              		.cfi_offset 14, -4
 800:Core/Src/main_unique.c **** int8_t adc_joystick_dir_y(void) { return adc_dir(s_raw_y); }
 1729              		.loc 1 800 35 view .LVU357
 800:Core/Src/main_unique.c **** int8_t adc_joystick_dir_y(void) { return adc_dir(s_raw_y); }
 1730              		.loc 1 800 42 is_stmt 0 view .LVU358
 1731 0002 024B     		ldr	r3, .L140
 1732 0004 1888     		ldrh	r0, [r3]
 1733 0006 FFF7FEFF 		bl	adc_dir
 1734              	.LVL105:
 800:Core/Src/main_unique.c **** int8_t adc_joystick_dir_y(void) { return adc_dir(s_raw_y); }
 1735              		.loc 1 800 60 view .LVU359
 1736 000a 08BD     		pop	{r3, pc}
 1737              	.L141:
 1738              		.align	2
 1739              	.L140:
 1740 000c 00000000 		.word	s_raw_x
 1741              		.cfi_endproc
 1742              	.LFE291:
 1744              		.section	.text.adc_joystick_dir_y,"ax",%progbits
 1745              		.align	1
 1746              		.global	adc_joystick_dir_y
 1747              		.syntax unified
 1748              		.thumb
 1749              		.thumb_func
 1751              	adc_joystick_dir_y:
 1752              	.LFB292:
 801:Core/Src/main_unique.c **** 
 1753              		.loc 1 801 33 is_stmt 1 view -0
 1754              		.cfi_startproc
 1755              		@ args = 0, pretend = 0, frame = 0
 1756              		@ frame_needed = 0, uses_anonymous_args = 0
 1757 0000 08B5     		push	{r3, lr}
 1758              	.LCFI27:
 1759              		.cfi_def_cfa_offset 8
 1760              		.cfi_offset 3, -8
 1761              		.cfi_offset 14, -4
 801:Core/Src/main_unique.c **** 
 1762              		.loc 1 801 35 view .LVU361
 801:Core/Src/main_unique.c **** 
 1763              		.loc 1 801 42 is_stmt 0 view .LVU362
 1764 0002 024B     		ldr	r3, .L144
 1765 0004 1888     		ldrh	r0, [r3]
 1766 0006 FFF7FEFF 		bl	adc_dir
 1767              	.LVL106:
 801:Core/Src/main_unique.c **** 
 1768              		.loc 1 801 60 view .LVU363
 1769 000a 08BD     		pop	{r3, pc}
 1770              	.L145:
 1771              		.align	2
 1772              	.L144:
 1773 000c 00000000 		.word	s_raw_y
 1774              		.cfi_endproc
 1775              	.LFE292:
 1777              		.section	.text.apply_joystick,"ax",%progbits
 1778              		.align	1
 1779              		.syntax unified
 1780              		.thumb
ARM GAS  /tmp/ccjBgtoi.s 			page 67


 1781              		.thumb_func
 1783              	apply_joystick:
 1784              	.LFB331:
1703:Core/Src/main_unique.c ****     int8_t dx = adc_joystick_dir_x();
 1785              		.loc 1 1703 1 is_stmt 1 view -0
 1786              		.cfi_startproc
 1787              		@ args = 0, pretend = 0, frame = 0
 1788              		@ frame_needed = 0, uses_anonymous_args = 0
 1789 0000 38B5     		push	{r3, r4, r5, lr}
 1790              	.LCFI28:
 1791              		.cfi_def_cfa_offset 16
 1792              		.cfi_offset 3, -16
 1793              		.cfi_offset 4, -12
 1794              		.cfi_offset 5, -8
 1795              		.cfi_offset 14, -4
1704:Core/Src/main_unique.c ****     int8_t dy = adc_joystick_dir_y();
 1796              		.loc 1 1704 5 view .LVU365
1704:Core/Src/main_unique.c ****     int8_t dy = adc_joystick_dir_y();
 1797              		.loc 1 1704 17 is_stmt 0 view .LVU366
 1798 0002 FFF7FEFF 		bl	adc_joystick_dir_x
 1799              	.LVL107:
 1800 0006 0446     		mov	r4, r0
 1801              	.LVL108:
1705:Core/Src/main_unique.c **** 
 1802              		.loc 1 1705 5 is_stmt 1 view .LVU367
1705:Core/Src/main_unique.c **** 
 1803              		.loc 1 1705 17 is_stmt 0 view .LVU368
 1804 0008 FFF7FEFF 		bl	adc_joystick_dir_y
 1805              	.LVL109:
 1806 000c 0546     		mov	r5, r0
 1807              	.LVL110:
1707:Core/Src/main_unique.c ****         s_coord_x = clamp_coord((int32_t)s_coord_x + dx);
 1808              		.loc 1 1707 5 is_stmt 1 view .LVU369
1707:Core/Src/main_unique.c ****         s_coord_x = clamp_coord((int32_t)s_coord_x + dx);
 1809              		.loc 1 1707 8 is_stmt 0 view .LVU370
 1810 000e 3CB1     		cbz	r4, .L147
 1811 0010 2346     		mov	r3, r4
1708:Core/Src/main_unique.c ****     }
 1812              		.loc 1 1708 9 is_stmt 1 view .LVU371
1708:Core/Src/main_unique.c ****     }
 1813              		.loc 1 1708 33 is_stmt 0 view .LVU372
 1814 0012 084C     		ldr	r4, .L150
 1815              	.LVL111:
1708:Core/Src/main_unique.c ****     }
 1816              		.loc 1 1708 33 view .LVU373
 1817 0014 B4F90000 		ldrsh	r0, [r4]
1708:Core/Src/main_unique.c ****     }
 1818              		.loc 1 1708 21 view .LVU374
 1819 0018 1844     		add	r0, r0, r3
 1820 001a FFF7FEFF 		bl	clamp_coord
 1821              	.LVL112:
1708:Core/Src/main_unique.c ****     }
 1822              		.loc 1 1708 19 discriminator 1 view .LVU375
 1823 001e 2080     		strh	r0, [r4]	@ movhi
 1824              	.L147:
1710:Core/Src/main_unique.c ****         s_coord_y = clamp_coord((int32_t)s_coord_y + dy);
 1825              		.loc 1 1710 5 is_stmt 1 view .LVU376
ARM GAS  /tmp/ccjBgtoi.s 			page 68


1710:Core/Src/main_unique.c ****         s_coord_y = clamp_coord((int32_t)s_coord_y + dy);
 1826              		.loc 1 1710 8 is_stmt 0 view .LVU377
 1827 0020 35B1     		cbz	r5, .L146
1711:Core/Src/main_unique.c ****     }
 1828              		.loc 1 1711 9 is_stmt 1 view .LVU378
1711:Core/Src/main_unique.c ****     }
 1829              		.loc 1 1711 33 is_stmt 0 view .LVU379
 1830 0022 054C     		ldr	r4, .L150+4
 1831 0024 B4F90000 		ldrsh	r0, [r4]
1711:Core/Src/main_unique.c ****     }
 1832              		.loc 1 1711 21 view .LVU380
 1833 0028 2844     		add	r0, r0, r5
 1834 002a FFF7FEFF 		bl	clamp_coord
 1835              	.LVL113:
1711:Core/Src/main_unique.c ****     }
 1836              		.loc 1 1711 19 discriminator 1 view .LVU381
 1837 002e 2080     		strh	r0, [r4]	@ movhi
 1838              	.L146:
1713:Core/Src/main_unique.c **** 
 1839              		.loc 1 1713 1 view .LVU382
 1840 0030 38BD     		pop	{r3, r4, r5, pc}
 1841              	.LVL114:
 1842              	.L151:
1713:Core/Src/main_unique.c **** 
 1843              		.loc 1 1713 1 view .LVU383
 1844 0032 00BF     		.align	2
 1845              	.L150:
 1846 0034 00000000 		.word	s_coord_x
 1847 0038 00000000 		.word	s_coord_y
 1848              		.cfi_endproc
 1849              	.LFE331:
 1851              		.section	.text.rtc_get_time,"ax",%progbits
 1852              		.align	1
 1853              		.global	rtc_get_time
 1854              		.syntax unified
 1855              		.thumb
 1856              		.thumb_func
 1858              	rtc_get_time:
 1859              	.LVL115:
 1860              	.LFB298:
 977:Core/Src/main_unique.c ****     HAL_RTC_GetTime(&hrtc, t, RTC_FORMAT_BIN);
 1861              		.loc 1 977 1 is_stmt 1 view -0
 1862              		.cfi_startproc
 1863              		@ args = 0, pretend = 0, frame = 0
 1864              		@ frame_needed = 0, uses_anonymous_args = 0
 977:Core/Src/main_unique.c ****     HAL_RTC_GetTime(&hrtc, t, RTC_FORMAT_BIN);
 1865              		.loc 1 977 1 is_stmt 0 view .LVU385
 1866 0000 38B5     		push	{r3, r4, r5, lr}
 1867              	.LCFI29:
 1868              		.cfi_def_cfa_offset 16
 1869              		.cfi_offset 3, -16
 1870              		.cfi_offset 4, -12
 1871              		.cfi_offset 5, -8
 1872              		.cfi_offset 14, -4
 1873 0002 0D46     		mov	r5, r1
 978:Core/Src/main_unique.c ****     HAL_RTC_GetDate(&hrtc, d, RTC_FORMAT_BIN);
 1874              		.loc 1 978 5 is_stmt 1 view .LVU386
ARM GAS  /tmp/ccjBgtoi.s 			page 69


 1875 0004 054C     		ldr	r4, .L154
 1876 0006 0022     		movs	r2, #0
 1877 0008 0146     		mov	r1, r0
 1878              	.LVL116:
 978:Core/Src/main_unique.c ****     HAL_RTC_GetDate(&hrtc, d, RTC_FORMAT_BIN);
 1879              		.loc 1 978 5 is_stmt 0 view .LVU387
 1880 000a 2046     		mov	r0, r4
 1881              	.LVL117:
 978:Core/Src/main_unique.c ****     HAL_RTC_GetDate(&hrtc, d, RTC_FORMAT_BIN);
 1882              		.loc 1 978 5 view .LVU388
 1883 000c FFF7FEFF 		bl	HAL_RTC_GetTime
 1884              	.LVL118:
 979:Core/Src/main_unique.c **** }
 1885              		.loc 1 979 5 is_stmt 1 view .LVU389
 1886 0010 0022     		movs	r2, #0
 1887 0012 2946     		mov	r1, r5
 1888 0014 2046     		mov	r0, r4
 1889 0016 FFF7FEFF 		bl	HAL_RTC_GetDate
 1890              	.LVL119:
 980:Core/Src/main_unique.c **** 
 1891              		.loc 1 980 1 is_stmt 0 view .LVU390
 1892 001a 38BD     		pop	{r3, r4, r5, pc}
 1893              	.LVL120:
 1894              	.L155:
 980:Core/Src/main_unique.c **** 
 1895              		.loc 1 980 1 view .LVU391
 1896              		.align	2
 1897              	.L154:
 1898 001c 00000000 		.word	hrtc
 1899              		.cfi_endproc
 1900              	.LFE298:
 1902              		.section	.rodata.rtc_format_line.str1.4,"aMS",%progbits,1
 1903              		.align	2
 1904              	.LC21:
 1905 0000 25303275 		.ascii	"%02u:%02u:%02u %02u-%02u\000"
 1905      3A253032 
 1905      753A2530 
 1905      32752025 
 1905      3032752D 
 1906              		.section	.text.rtc_format_line,"ax",%progbits
 1907              		.align	1
 1908              		.global	rtc_format_line
 1909              		.syntax unified
 1910              		.thumb
 1911              		.thumb_func
 1913              	rtc_format_line:
 1914              	.LVL121:
 1915              	.LFB299:
 987:Core/Src/main_unique.c ****     RTC_TimeTypeDef t;
 1916              		.loc 1 987 1 is_stmt 1 view -0
 1917              		.cfi_startproc
 1918              		@ args = 0, pretend = 0, frame = 24
 1919              		@ frame_needed = 0, uses_anonymous_args = 0
 987:Core/Src/main_unique.c ****     RTC_TimeTypeDef t;
 1920              		.loc 1 987 1 is_stmt 0 view .LVU393
 1921 0000 30B5     		push	{r4, r5, lr}
 1922              	.LCFI30:
ARM GAS  /tmp/ccjBgtoi.s 			page 70


 1923              		.cfi_def_cfa_offset 12
 1924              		.cfi_offset 4, -12
 1925              		.cfi_offset 5, -8
 1926              		.cfi_offset 14, -4
 1927 0002 8BB0     		sub	sp, sp, #44
 1928              	.LCFI31:
 1929              		.cfi_def_cfa_offset 56
 1930 0004 0546     		mov	r5, r0
 1931 0006 0C46     		mov	r4, r1
 988:Core/Src/main_unique.c ****     RTC_DateTypeDef d;
 1932              		.loc 1 988 5 is_stmt 1 view .LVU394
 989:Core/Src/main_unique.c **** 
 1933              		.loc 1 989 5 view .LVU395
 991:Core/Src/main_unique.c **** 
 1934              		.loc 1 991 5 view .LVU396
 1935 0008 04A9     		add	r1, sp, #16
 1936              	.LVL122:
 991:Core/Src/main_unique.c **** 
 1937              		.loc 1 991 5 is_stmt 0 view .LVU397
 1938 000a 05A8     		add	r0, sp, #20
 1939              	.LVL123:
 991:Core/Src/main_unique.c **** 
 1940              		.loc 1 991 5 view .LVU398
 1941 000c FFF7FEFF 		bl	rtc_get_time
 1942              	.LVL124:
 993:Core/Src/main_unique.c ****              (unsigned)t.Hours, (unsigned)t.Minutes, (unsigned)t.Seconds,
 1943              		.loc 1 993 5 is_stmt 1 view .LVU399
 994:Core/Src/main_unique.c ****              (unsigned)d.Date,  (unsigned)d.Month);
 1944              		.loc 1 994 44 is_stmt 0 view .LVU400
 1945 0010 9DF81530 		ldrb	r3, [sp, #21]	@ zero_extendqisi2
 994:Core/Src/main_unique.c ****              (unsigned)d.Date,  (unsigned)d.Month);
 1946              		.loc 1 994 65 view .LVU401
 1947 0014 9DF81620 		ldrb	r2, [sp, #22]	@ zero_extendqisi2
 995:Core/Src/main_unique.c **** }
 1948              		.loc 1 995 25 view .LVU402
 1949 0018 9DF81210 		ldrb	r1, [sp, #18]	@ zero_extendqisi2
 995:Core/Src/main_unique.c **** }
 1950              		.loc 1 995 44 view .LVU403
 1951 001c 9DF81100 		ldrb	r0, [sp, #17]	@ zero_extendqisi2
 993:Core/Src/main_unique.c ****              (unsigned)t.Hours, (unsigned)t.Minutes, (unsigned)t.Seconds,
 1952              		.loc 1 993 5 view .LVU404
 1953 0020 0390     		str	r0, [sp, #12]
 1954 0022 0291     		str	r1, [sp, #8]
 1955 0024 0192     		str	r2, [sp, #4]
 1956 0026 0093     		str	r3, [sp]
 1957 0028 9DF81430 		ldrb	r3, [sp, #20]	@ zero_extendqisi2
 1958 002c 034A     		ldr	r2, .L158
 1959 002e 2146     		mov	r1, r4
 1960 0030 2846     		mov	r0, r5
 1961 0032 FFF7FEFF 		bl	snprintf
 1962              	.LVL125:
 996:Core/Src/main_unique.c **** 
 1963              		.loc 1 996 1 view .LVU405
 1964 0036 0BB0     		add	sp, sp, #44
 1965              	.LCFI32:
 1966              		.cfi_def_cfa_offset 12
 1967              		@ sp needed
ARM GAS  /tmp/ccjBgtoi.s 			page 71


 1968 0038 30BD     		pop	{r4, r5, pc}
 1969              	.LVL126:
 1970              	.L159:
 996:Core/Src/main_unique.c **** 
 1971              		.loc 1 996 1 view .LVU406
 1972 003a 00BF     		.align	2
 1973              	.L158:
 1974 003c 00000000 		.word	.LC21
 1975              		.cfi_endproc
 1976              	.LFE299:
 1978              		.section	.text.HAL_RTCEx_WakeUpTimerEventCallback,"ax",%progbits
 1979              		.align	1
 1980              		.global	HAL_RTCEx_WakeUpTimerEventCallback
 1981              		.syntax unified
 1982              		.thumb
 1983              		.thumb_func
 1985              	HAL_RTCEx_WakeUpTimerEventCallback:
 1986              	.LVL127:
 1987              	.LFB300:
1005:Core/Src/main_unique.c ****     (void)h;                    /* parametro no usado: evita un aviso */
 1988              		.loc 1 1005 1 is_stmt 1 view -0
 1989              		.cfi_startproc
 1990              		@ args = 0, pretend = 0, frame = 0
 1991              		@ frame_needed = 0, uses_anonymous_args = 0
 1992              		@ link register save eliminated.
1006:Core/Src/main_unique.c ****     g_rtc_second_flag = 1U;
 1993              		.loc 1 1006 5 view .LVU408
1007:Core/Src/main_unique.c **** }
 1994              		.loc 1 1007 5 view .LVU409
1007:Core/Src/main_unique.c **** }
 1995              		.loc 1 1007 23 is_stmt 0 view .LVU410
 1996 0000 014B     		ldr	r3, .L161
 1997 0002 0122     		movs	r2, #1
 1998 0004 1A70     		strb	r2, [r3]
1008:Core/Src/main_unique.c **** 
 1999              		.loc 1 1008 1 view .LVU411
 2000 0006 7047     		bx	lr
 2001              	.L162:
 2002              		.align	2
 2003              	.L161:
 2004 0008 00000000 		.word	g_rtc_second_flag
 2005              		.cfi_endproc
 2006              	.LFE300:
 2008              		.section	.rodata.lcd_bus_scan_report.str1.4,"aMS",%progbits,1
 2009              		.align	2
 2010              	.LC22:
 2011 0000 2D2D2D20 		.ascii	"--- Sondeo del bus I2C1 ---\000"
 2011      536F6E64 
 2011      656F2064 
 2011      656C2062 
 2011      75732049 
 2012              		.align	2
 2013              	.LC23:
 2014 001c 20206469 		.ascii	"  dispositivo en 0x%02X\000"
 2014      73706F73 
 2014      69746976 
 2014      6F20656E 
ARM GAS  /tmp/ccjBgtoi.s 			page 72


 2014      20307825 
 2015              		.align	2
 2016              	.LC24:
 2017 0034 20204E49 		.ascii	"  NINGUN dispositivo responde.\000"
 2017      4E47554E 
 2017      20646973 
 2017      706F7369 
 2017      7469766F 
 2018 0053 00       		.align	2
 2019              	.LC25:
 2020 0054 20205265 		.ascii	"  Revisar: alimentacion del modulo, SDA/SCL sin cru"
 2020      76697361 
 2020      723A2061 
 2020      6C696D65 
 2020      6E746163 
 2021 0087 7A61722C 		.ascii	"zar,\000"
 2021      00
 2022              		.align	2
 2023              	.LC26:
 2024 008c 2020474E 		.ascii	"  GND comun y resistencias de pull-up.\000"
 2024      4420636F 
 2024      6D756E20 
 2024      79207265 
 2024      73697374 
 2025 00b3 00       		.align	2
 2026              	.LC27:
 2027 00b4 2020746F 		.ascii	"  total: %u dispositivo(s)\000"
 2027      74616C3A 
 2027      20257520 
 2027      64697370 
 2027      6F736974 
 2028 00cf 00       		.align	2
 2029              	.LC28:
 2030 00d0 2D2D2D2D 		.ascii	"---------------------------\000"
 2030      2D2D2D2D 
 2030      2D2D2D2D 
 2030      2D2D2D2D 
 2030      2D2D2D2D 
 2031              		.section	.text.lcd_bus_scan_report,"ax",%progbits
 2032              		.align	1
 2033              		.global	lcd_bus_scan_report
 2034              		.syntax unified
 2035              		.thumb
 2036              		.thumb_func
 2038              	lcd_bus_scan_report:
 2039              	.LFB309:
1165:Core/Src/main_unique.c ****     char    buf[48];
 2040              		.loc 1 1165 1 is_stmt 1 view -0
 2041              		.cfi_startproc
 2042              		@ args = 0, pretend = 0, frame = 48
 2043              		@ frame_needed = 0, uses_anonymous_args = 0
 2044 0000 70B5     		push	{r4, r5, r6, lr}
 2045              	.LCFI33:
 2046              		.cfi_def_cfa_offset 16
 2047              		.cfi_offset 4, -16
 2048              		.cfi_offset 5, -12
 2049              		.cfi_offset 6, -8
ARM GAS  /tmp/ccjBgtoi.s 			page 73


 2050              		.cfi_offset 14, -4
 2051 0002 8CB0     		sub	sp, sp, #48
 2052              	.LCFI34:
 2053              		.cfi_def_cfa_offset 64
1166:Core/Src/main_unique.c ****     uint8_t found = 0U;
 2054              		.loc 1 1166 5 view .LVU413
1167:Core/Src/main_unique.c ****     uint8_t a;
 2055              		.loc 1 1167 5 view .LVU414
 2056              	.LVL128:
1168:Core/Src/main_unique.c **** 
 2057              		.loc 1 1168 5 view .LVU415
1170:Core/Src/main_unique.c ****     uart_send_line("--- Sondeo del bus I2C1 ---");
 2058              		.loc 1 1170 5 view .LVU416
 2059 0004 1C48     		ldr	r0, .L171
 2060 0006 FFF7FEFF 		bl	uart_send_line
 2061              	.LVL129:
1171:Core/Src/main_unique.c **** 
 2062              		.loc 1 1171 5 view .LVU417
 2063 000a 1C48     		ldr	r0, .L171+4
 2064 000c FFF7FEFF 		bl	uart_send_line
 2065              	.LVL130:
1174:Core/Src/main_unique.c ****         if (HAL_I2C_IsDeviceReady(&hi2c1, (uint16_t)(a << 1), 2U, 5U) == HAL_OK) {
 2066              		.loc 1 1174 5 view .LVU418
1174:Core/Src/main_unique.c ****         if (HAL_I2C_IsDeviceReady(&hi2c1, (uint16_t)(a << 1), 2U, 5U) == HAL_OK) {
 2067              		.loc 1 1174 12 is_stmt 0 view .LVU419
 2068 0010 0824     		movs	r4, #8
1167:Core/Src/main_unique.c ****     uint8_t a;
 2069              		.loc 1 1167 13 view .LVU420
 2070 0012 0025     		movs	r5, #0
1174:Core/Src/main_unique.c ****         if (HAL_I2C_IsDeviceReady(&hi2c1, (uint16_t)(a << 1), 2U, 5U) == HAL_OK) {
 2071              		.loc 1 1174 5 view .LVU421
 2072 0014 01E0     		b	.L164
 2073              	.LVL131:
 2074              	.L165:
1174:Core/Src/main_unique.c ****         if (HAL_I2C_IsDeviceReady(&hi2c1, (uint16_t)(a << 1), 2U, 5U) == HAL_OK) {
 2075              		.loc 1 1174 34 is_stmt 1 discriminator 1 view .LVU422
 2076 0016 0134     		adds	r4, r4, #1
 2077              	.LVL132:
1174:Core/Src/main_unique.c ****         if (HAL_I2C_IsDeviceReady(&hi2c1, (uint16_t)(a << 1), 2U, 5U) == HAL_OK) {
 2078              		.loc 1 1174 34 is_stmt 0 discriminator 1 view .LVU423
 2079 0018 E4B2     		uxtb	r4, r4
 2080              	.LVL133:
 2081              	.L164:
1174:Core/Src/main_unique.c ****         if (HAL_I2C_IsDeviceReady(&hi2c1, (uint16_t)(a << 1), 2U, 5U) == HAL_OK) {
 2082              		.loc 1 1174 23 is_stmt 1 discriminator 2 view .LVU424
 2083 001a 772C     		cmp	r4, #119
 2084 001c 13D8     		bhi	.L170
1175:Core/Src/main_unique.c ****             snprintf(buf, sizeof(buf), "  dispositivo en 0x%02X", (unsigned)a);
 2085              		.loc 1 1175 9 view .LVU425
1175:Core/Src/main_unique.c ****             snprintf(buf, sizeof(buf), "  dispositivo en 0x%02X", (unsigned)a);
 2086              		.loc 1 1175 13 is_stmt 0 view .LVU426
 2087 001e 0523     		movs	r3, #5
 2088 0020 0222     		movs	r2, #2
 2089 0022 6100     		lsls	r1, r4, #1
 2090 0024 1648     		ldr	r0, .L171+8
 2091 0026 FFF7FEFF 		bl	HAL_I2C_IsDeviceReady
 2092              	.LVL134:
ARM GAS  /tmp/ccjBgtoi.s 			page 74


1175:Core/Src/main_unique.c ****             snprintf(buf, sizeof(buf), "  dispositivo en 0x%02X", (unsigned)a);
 2093              		.loc 1 1175 12 discriminator 1 view .LVU427
 2094 002a 0028     		cmp	r0, #0
 2095 002c F3D1     		bne	.L165
1176:Core/Src/main_unique.c ****             uart_send_line(buf);
 2096              		.loc 1 1176 13 is_stmt 1 view .LVU428
 2097 002e 2346     		mov	r3, r4
 2098 0030 144A     		ldr	r2, .L171+12
 2099 0032 3021     		movs	r1, #48
 2100 0034 6846     		mov	r0, sp
 2101 0036 FFF7FEFF 		bl	snprintf
 2102              	.LVL135:
1177:Core/Src/main_unique.c ****             found++;
 2103              		.loc 1 1177 13 view .LVU429
 2104 003a 6846     		mov	r0, sp
 2105 003c FFF7FEFF 		bl	uart_send_line
 2106              	.LVL136:
1178:Core/Src/main_unique.c ****         }
 2107              		.loc 1 1178 13 view .LVU430
1178:Core/Src/main_unique.c ****         }
 2108              		.loc 1 1178 18 is_stmt 0 view .LVU431
 2109 0040 0135     		adds	r5, r5, #1
 2110              	.LVL137:
1178:Core/Src/main_unique.c ****         }
 2111              		.loc 1 1178 18 view .LVU432
 2112 0042 EDB2     		uxtb	r5, r5
 2113              	.LVL138:
1178:Core/Src/main_unique.c ****         }
 2114              		.loc 1 1178 18 view .LVU433
 2115 0044 E7E7     		b	.L165
 2116              	.LVL139:
 2117              	.L170:
1182:Core/Src/main_unique.c ****         uart_send_line("  NINGUN dispositivo responde.");
 2118              		.loc 1 1182 5 is_stmt 1 view .LVU434
1182:Core/Src/main_unique.c ****         uart_send_line("  NINGUN dispositivo responde.");
 2119              		.loc 1 1182 8 is_stmt 0 view .LVU435
 2120 0046 6DB9     		cbnz	r5, .L167
1183:Core/Src/main_unique.c ****         uart_send_line("  Revisar: alimentacion del modulo, SDA/SCL sin cruzar,");
 2121              		.loc 1 1183 9 is_stmt 1 view .LVU436
 2122 0048 0F48     		ldr	r0, .L171+16
 2123 004a FFF7FEFF 		bl	uart_send_line
 2124              	.LVL140:
1184:Core/Src/main_unique.c ****         uart_send_line("  GND comun y resistencias de pull-up.");
 2125              		.loc 1 1184 9 view .LVU437
 2126 004e 0F48     		ldr	r0, .L171+20
 2127 0050 FFF7FEFF 		bl	uart_send_line
 2128              	.LVL141:
1185:Core/Src/main_unique.c ****     } else {
 2129              		.loc 1 1185 9 view .LVU438
 2130 0054 0E48     		ldr	r0, .L171+24
 2131 0056 FFF7FEFF 		bl	uart_send_line
 2132              	.LVL142:
 2133              	.L168:
1190:Core/Src/main_unique.c **** }
 2134              		.loc 1 1190 5 view .LVU439
 2135 005a 0E48     		ldr	r0, .L171+28
 2136 005c FFF7FEFF 		bl	uart_send_line
ARM GAS  /tmp/ccjBgtoi.s 			page 75


 2137              	.LVL143:
1191:Core/Src/main_unique.c **** 
 2138              		.loc 1 1191 1 is_stmt 0 view .LVU440
 2139 0060 0CB0     		add	sp, sp, #48
 2140              	.LCFI35:
 2141              		.cfi_remember_state
 2142              		.cfi_def_cfa_offset 16
 2143              		@ sp needed
 2144 0062 70BD     		pop	{r4, r5, r6, pc}
 2145              	.LVL144:
 2146              	.L167:
 2147              	.LCFI36:
 2148              		.cfi_restore_state
1187:Core/Src/main_unique.c ****         uart_send_line(buf);
 2149              		.loc 1 1187 9 is_stmt 1 view .LVU441
 2150 0064 2B46     		mov	r3, r5
 2151 0066 0C4A     		ldr	r2, .L171+32
 2152 0068 3021     		movs	r1, #48
 2153 006a 6846     		mov	r0, sp
 2154 006c FFF7FEFF 		bl	snprintf
 2155              	.LVL145:
1188:Core/Src/main_unique.c ****     }
 2156              		.loc 1 1188 9 view .LVU442
 2157 0070 6846     		mov	r0, sp
 2158 0072 FFF7FEFF 		bl	uart_send_line
 2159              	.LVL146:
 2160 0076 F0E7     		b	.L168
 2161              	.L172:
 2162              		.align	2
 2163              	.L171:
 2164 0078 00000000 		.word	.LC7
 2165 007c 00000000 		.word	.LC22
 2166 0080 00000000 		.word	hi2c1
 2167 0084 1C000000 		.word	.LC23
 2168 0088 34000000 		.word	.LC24
 2169 008c 54000000 		.word	.LC25
 2170 0090 8C000000 		.word	.LC26
 2171 0094 D0000000 		.word	.LC28
 2172 0098 B4000000 		.word	.LC27
 2173              		.cfi_endproc
 2174              	.LFE309:
 2176              		.section	.text.lcd_clear,"ax",%progbits
 2177              		.align	1
 2178              		.global	lcd_clear
 2179              		.syntax unified
 2180              		.thumb
 2181              		.thumb_func
 2183              	lcd_clear:
 2184              	.LFB311:
1259:Core/Src/main_unique.c ****     if (!s_present) return;
 2185              		.loc 1 1259 1 view -0
 2186              		.cfi_startproc
 2187              		@ args = 0, pretend = 0, frame = 0
 2188              		@ frame_needed = 0, uses_anonymous_args = 0
 2189 0000 08B5     		push	{r3, lr}
 2190              	.LCFI37:
 2191              		.cfi_def_cfa_offset 8
ARM GAS  /tmp/ccjBgtoi.s 			page 76


 2192              		.cfi_offset 3, -8
 2193              		.cfi_offset 14, -4
1260:Core/Src/main_unique.c ****     lcd_command(0x01U);
 2194              		.loc 1 1260 5 view .LVU444
1260:Core/Src/main_unique.c ****     lcd_command(0x01U);
 2195              		.loc 1 1260 9 is_stmt 0 view .LVU445
 2196 0002 054B     		ldr	r3, .L177
 2197 0004 1B78     		ldrb	r3, [r3]	@ zero_extendqisi2
1260:Core/Src/main_unique.c ****     lcd_command(0x01U);
 2198              		.loc 1 1260 8 view .LVU446
 2199 0006 03B9     		cbnz	r3, .L176
 2200              	.L173:
1263:Core/Src/main_unique.c **** 
 2201              		.loc 1 1263 1 view .LVU447
 2202 0008 08BD     		pop	{r3, pc}
 2203              	.L176:
1261:Core/Src/main_unique.c ****     HAL_Delay(2);
 2204              		.loc 1 1261 5 is_stmt 1 view .LVU448
 2205 000a 0120     		movs	r0, #1
 2206 000c FFF7FEFF 		bl	lcd_command
 2207              	.LVL147:
1262:Core/Src/main_unique.c **** }
 2208              		.loc 1 1262 5 view .LVU449
 2209 0010 0220     		movs	r0, #2
 2210 0012 FFF7FEFF 		bl	HAL_Delay
 2211              	.LVL148:
 2212 0016 F7E7     		b	.L173
 2213              	.L178:
 2214              		.align	2
 2215              	.L177:
 2216 0018 00000000 		.word	s_present
 2217              		.cfi_endproc
 2218              	.LFE311:
 2220              		.section	.text.lcd_set_cursor,"ax",%progbits
 2221              		.align	1
 2222              		.global	lcd_set_cursor
 2223              		.syntax unified
 2224              		.thumb
 2225              		.thumb_func
 2227              	lcd_set_cursor:
 2228              	.LVL149:
 2229              	.LFB312:
1266:Core/Src/main_unique.c ****     if (!s_present) return;
 2230              		.loc 1 1266 1 view -0
 2231              		.cfi_startproc
 2232              		@ args = 0, pretend = 0, frame = 0
 2233              		@ frame_needed = 0, uses_anonymous_args = 0
1266:Core/Src/main_unique.c ****     if (!s_present) return;
 2234              		.loc 1 1266 1 is_stmt 0 view .LVU451
 2235 0000 08B5     		push	{r3, lr}
 2236              	.LCFI38:
 2237              		.cfi_def_cfa_offset 8
 2238              		.cfi_offset 3, -8
 2239              		.cfi_offset 14, -4
1267:Core/Src/main_unique.c ****     if (row >= LCD_ROWS) row = LCD_ROWS - 1U;
 2240              		.loc 1 1267 5 is_stmt 1 view .LVU452
1267:Core/Src/main_unique.c ****     if (row >= LCD_ROWS) row = LCD_ROWS - 1U;
ARM GAS  /tmp/ccjBgtoi.s 			page 77


 2241              		.loc 1 1267 9 is_stmt 0 view .LVU453
 2242 0002 094B     		ldr	r3, .L186
 2243 0004 1B78     		ldrb	r3, [r3]	@ zero_extendqisi2
1267:Core/Src/main_unique.c ****     if (row >= LCD_ROWS) row = LCD_ROWS - 1U;
 2244              		.loc 1 1267 8 view .LVU454
 2245 0006 6BB1     		cbz	r3, .L179
1268:Core/Src/main_unique.c ****     if (col >= LCD_COLS) col = LCD_COLS - 1U;
 2246              		.loc 1 1268 5 is_stmt 1 view .LVU455
1268:Core/Src/main_unique.c ****     if (col >= LCD_COLS) col = LCD_COLS - 1U;
 2247              		.loc 1 1268 8 is_stmt 0 view .LVU456
 2248 0008 0328     		cmp	r0, #3
 2249 000a 00D9     		bls	.L181
1268:Core/Src/main_unique.c ****     if (col >= LCD_COLS) col = LCD_COLS - 1U;
 2250              		.loc 1 1268 30 discriminator 1 view .LVU457
 2251 000c 0320     		movs	r0, #3
 2252              	.LVL150:
 2253              	.L181:
1269:Core/Src/main_unique.c **** 
 2254              		.loc 1 1269 5 is_stmt 1 view .LVU458
1269:Core/Src/main_unique.c **** 
 2255              		.loc 1 1269 8 is_stmt 0 view .LVU459
 2256 000e 1329     		cmp	r1, #19
 2257 0010 00D9     		bls	.L182
1269:Core/Src/main_unique.c **** 
 2258              		.loc 1 1269 30 discriminator 1 view .LVU460
 2259 0012 1321     		movs	r1, #19
 2260              	.LVL151:
 2261              	.L182:
1272:Core/Src/main_unique.c **** }
 2262              		.loc 1 1272 5 is_stmt 1 view .LVU461
1272:Core/Src/main_unique.c **** }
 2263              		.loc 1 1272 48 is_stmt 0 view .LVU462
 2264 0014 054B     		ldr	r3, .L186+4
 2265 0016 185C     		ldrb	r0, [r3, r0]	@ zero_extendqisi2
 2266              	.LVL152:
1272:Core/Src/main_unique.c **** }
 2267              		.loc 1 1272 54 view .LVU463
 2268 0018 0844     		add	r0, r0, r1
1272:Core/Src/main_unique.c **** }
 2269              		.loc 1 1272 17 view .LVU464
 2270 001a 60F07F00 		orn	r0, r0, #127
1272:Core/Src/main_unique.c **** }
 2271              		.loc 1 1272 5 view .LVU465
 2272 001e C0B2     		uxtb	r0, r0
 2273 0020 FFF7FEFF 		bl	lcd_command
 2274              	.LVL153:
 2275              	.L179:
1273:Core/Src/main_unique.c **** 
 2276              		.loc 1 1273 1 view .LVU466
 2277 0024 08BD     		pop	{r3, pc}
 2278              	.L187:
 2279 0026 00BF     		.align	2
 2280              	.L186:
 2281 0028 00000000 		.word	s_present
 2282 002c 00000000 		.word	s_row_offset
 2283              		.cfi_endproc
 2284              	.LFE312:
ARM GAS  /tmp/ccjBgtoi.s 			page 78


 2286              		.section	.text.lcd_print,"ax",%progbits
 2287              		.align	1
 2288              		.global	lcd_print
 2289              		.syntax unified
 2290              		.thumb
 2291              		.thumb_func
 2293              	lcd_print:
 2294              	.LVL154:
 2295              	.LFB313:
1276:Core/Src/main_unique.c ****     if (!s_present) return;
 2296              		.loc 1 1276 1 is_stmt 1 view -0
 2297              		.cfi_startproc
 2298              		@ args = 0, pretend = 0, frame = 0
 2299              		@ frame_needed = 0, uses_anonymous_args = 0
1276:Core/Src/main_unique.c ****     if (!s_present) return;
 2300              		.loc 1 1276 1 is_stmt 0 view .LVU468
 2301 0000 10B5     		push	{r4, lr}
 2302              	.LCFI39:
 2303              		.cfi_def_cfa_offset 8
 2304              		.cfi_offset 4, -8
 2305              		.cfi_offset 14, -4
 2306 0002 0446     		mov	r4, r0
1277:Core/Src/main_unique.c ****     while (*s != '\0') {
 2307              		.loc 1 1277 5 is_stmt 1 view .LVU469
1277:Core/Src/main_unique.c ****     while (*s != '\0') {
 2308              		.loc 1 1277 9 is_stmt 0 view .LVU470
 2309 0004 054B     		ldr	r3, .L193
 2310 0006 1B78     		ldrb	r3, [r3]	@ zero_extendqisi2
1277:Core/Src/main_unique.c ****     while (*s != '\0') {
 2311              		.loc 1 1277 8 view .LVU471
 2312 0008 1BB9     		cbnz	r3, .L190
 2313 000a 05E0     		b	.L188
 2314              	.LVL155:
 2315              	.L191:
1279:Core/Src/main_unique.c ****     }
 2316              		.loc 1 1279 9 is_stmt 1 view .LVU472
1279:Core/Src/main_unique.c ****     }
 2317              		.loc 1 1279 29 is_stmt 0 view .LVU473
 2318 000c 0134     		adds	r4, r4, #1
 2319              	.LVL156:
1279:Core/Src/main_unique.c ****     }
 2320              		.loc 1 1279 9 view .LVU474
 2321 000e FFF7FEFF 		bl	lcd_data
 2322              	.LVL157:
 2323              	.L190:
1278:Core/Src/main_unique.c ****         lcd_data((uint8_t)*s++);
 2324              		.loc 1 1278 15 is_stmt 1 discriminator 1 view .LVU475
1278:Core/Src/main_unique.c ****         lcd_data((uint8_t)*s++);
 2325              		.loc 1 1278 12 is_stmt 0 discriminator 1 view .LVU476
 2326 0012 2078     		ldrb	r0, [r4]	@ zero_extendqisi2
1278:Core/Src/main_unique.c ****         lcd_data((uint8_t)*s++);
 2327              		.loc 1 1278 15 discriminator 1 view .LVU477
 2328 0014 0028     		cmp	r0, #0
 2329 0016 F9D1     		bne	.L191
 2330              	.L188:
1281:Core/Src/main_unique.c **** 
 2331              		.loc 1 1281 1 view .LVU478
ARM GAS  /tmp/ccjBgtoi.s 			page 79


 2332 0018 10BD     		pop	{r4, pc}
 2333              	.LVL158:
 2334              	.L194:
1281:Core/Src/main_unique.c **** 
 2335              		.loc 1 1281 1 view .LVU479
 2336 001a 00BF     		.align	2
 2337              	.L193:
 2338 001c 00000000 		.word	s_present
 2339              		.cfi_endproc
 2340              	.LFE313:
 2342              		.section	.text.lcd_print_line,"ax",%progbits
 2343              		.align	1
 2344              		.global	lcd_print_line
 2345              		.syntax unified
 2346              		.thumb
 2347              		.thumb_func
 2349              	lcd_print_line:
 2350              	.LVL159:
 2351              	.LFB314:
1290:Core/Src/main_unique.c ****     uint8_t i;
 2352              		.loc 1 1290 1 is_stmt 1 view -0
 2353              		.cfi_startproc
 2354              		@ args = 0, pretend = 0, frame = 0
 2355              		@ frame_needed = 0, uses_anonymous_args = 0
1291:Core/Src/main_unique.c ****     uint8_t end = 0U;   /* 1 cuando ya se alcanzo el fin de la cadena */
 2356              		.loc 1 1291 5 view .LVU481
1292:Core/Src/main_unique.c **** 
 2357              		.loc 1 1292 5 view .LVU482
1294:Core/Src/main_unique.c **** 
 2358              		.loc 1 1294 5 view .LVU483
1294:Core/Src/main_unique.c **** 
 2359              		.loc 1 1294 9 is_stmt 0 view .LVU484
 2360 0000 0D4B     		ldr	r3, .L207
 2361 0002 1B78     		ldrb	r3, [r3]	@ zero_extendqisi2
1294:Core/Src/main_unique.c **** 
 2362              		.loc 1 1294 8 view .LVU485
 2363 0004 03B9     		cbnz	r3, .L205
 2364 0006 7047     		bx	lr
 2365              	.L205:
1290:Core/Src/main_unique.c ****     uint8_t i;
 2366              		.loc 1 1290 1 view .LVU486
 2367 0008 70B5     		push	{r4, r5, r6, lr}
 2368              	.LCFI40:
 2369              		.cfi_def_cfa_offset 16
 2370              		.cfi_offset 4, -16
 2371              		.cfi_offset 5, -12
 2372              		.cfi_offset 6, -8
 2373              		.cfi_offset 14, -4
 2374 000a 0E46     		mov	r6, r1
1296:Core/Src/main_unique.c **** 
 2375              		.loc 1 1296 5 is_stmt 1 view .LVU487
 2376 000c 0021     		movs	r1, #0
 2377              	.LVL160:
1296:Core/Src/main_unique.c **** 
 2378              		.loc 1 1296 5 is_stmt 0 view .LVU488
 2379 000e FFF7FEFF 		bl	lcd_set_cursor
 2380              	.LVL161:
ARM GAS  /tmp/ccjBgtoi.s 			page 80


1298:Core/Src/main_unique.c ****         if (!end && (s[i] == '\0')) {
 2381              		.loc 1 1298 5 is_stmt 1 view .LVU489
1292:Core/Src/main_unique.c **** 
 2382              		.loc 1 1292 13 is_stmt 0 view .LVU490
 2383 0012 0025     		movs	r5, #0
1298:Core/Src/main_unique.c ****         if (!end && (s[i] == '\0')) {
 2384              		.loc 1 1298 12 view .LVU491
 2385 0014 2C46     		mov	r4, r5
1298:Core/Src/main_unique.c ****         if (!end && (s[i] == '\0')) {
 2386              		.loc 1 1298 5 view .LVU492
 2387 0016 04E0     		b	.L197
 2388              	.LVL162:
 2389              	.L200:
1302:Core/Src/main_unique.c ****     }
 2390              		.loc 1 1302 9 discriminator 2 view .LVU493
 2391 0018 2020     		movs	r0, #32
 2392              	.LVL163:
 2393              	.L198:
1302:Core/Src/main_unique.c ****     }
 2394              		.loc 1 1302 9 discriminator 3 view .LVU494
 2395 001a FFF7FEFF 		bl	lcd_data
 2396              	.LVL164:
1298:Core/Src/main_unique.c ****         if (!end && (s[i] == '\0')) {
 2397              		.loc 1 1298 33 is_stmt 1 discriminator 1 view .LVU495
 2398 001e 0134     		adds	r4, r4, #1
 2399              	.LVL165:
1298:Core/Src/main_unique.c ****         if (!end && (s[i] == '\0')) {
 2400              		.loc 1 1298 33 is_stmt 0 discriminator 1 view .LVU496
 2401 0020 E4B2     		uxtb	r4, r4
 2402              	.LVL166:
 2403              	.L197:
1298:Core/Src/main_unique.c ****         if (!end && (s[i] == '\0')) {
 2404              		.loc 1 1298 20 is_stmt 1 discriminator 2 view .LVU497
 2405 0022 132C     		cmp	r4, #19
 2406 0024 07D8     		bhi	.L206
1299:Core/Src/main_unique.c ****             end = 1U;
 2407              		.loc 1 1299 9 view .LVU498
1299:Core/Src/main_unique.c ****             end = 1U;
 2408              		.loc 1 1299 12 is_stmt 0 view .LVU499
 2409 0026 002D     		cmp	r5, #0
 2410 0028 F6D1     		bne	.L200
1299:Core/Src/main_unique.c ****             end = 1U;
 2411              		.loc 1 1299 23 discriminator 1 view .LVU500
 2412 002a 305D     		ldrb	r0, [r6, r4]	@ zero_extendqisi2
1299:Core/Src/main_unique.c ****             end = 1U;
 2413              		.loc 1 1299 18 discriminator 1 view .LVU501
 2414 002c 0028     		cmp	r0, #0
 2415 002e F4D1     		bne	.L198
1300:Core/Src/main_unique.c ****         }
 2416              		.loc 1 1300 17 view .LVU502
 2417 0030 0125     		movs	r5, #1
 2418              	.LVL167:
1302:Core/Src/main_unique.c ****     }
 2419              		.loc 1 1302 9 discriminator 2 view .LVU503
 2420 0032 2020     		movs	r0, #32
 2421 0034 F1E7     		b	.L198
 2422              	.LVL168:
ARM GAS  /tmp/ccjBgtoi.s 			page 81


 2423              	.L206:
1304:Core/Src/main_unique.c **** 
 2424              		.loc 1 1304 1 view .LVU504
 2425 0036 70BD     		pop	{r4, r5, r6, pc}
 2426              	.LVL169:
 2427              	.L208:
1304:Core/Src/main_unique.c **** 
 2428              		.loc 1 1304 1 view .LVU505
 2429              		.align	2
 2430              	.L207:
 2431 0038 00000000 		.word	s_present
 2432              		.cfi_endproc
 2433              	.LFE314:
 2435              		.section	.text.lcd_update,"ax",%progbits
 2436              		.align	1
 2437              		.syntax unified
 2438              		.thumb
 2439              		.thumb_func
 2441              	lcd_update:
 2442              	.LVL170:
 2443              	.LFB323:
1530:Core/Src/main_unique.c ****     char norm[LCD_COLS + 1U];
 2444              		.loc 1 1530 1 is_stmt 1 view -0
 2445              		.cfi_startproc
 2446              		@ args = 0, pretend = 0, frame = 24
 2447              		@ frame_needed = 0, uses_anonymous_args = 0
1530:Core/Src/main_unique.c ****     char norm[LCD_COLS + 1U];
 2448              		.loc 1 1530 1 is_stmt 0 view .LVU507
 2449 0000 70B5     		push	{r4, r5, r6, lr}
 2450              	.LCFI41:
 2451              		.cfi_def_cfa_offset 16
 2452              		.cfi_offset 4, -16
 2453              		.cfi_offset 5, -12
 2454              		.cfi_offset 6, -8
 2455              		.cfi_offset 14, -4
 2456 0002 86B0     		sub	sp, sp, #24
 2457              	.LCFI42:
 2458              		.cfi_def_cfa_offset 40
 2459 0004 0446     		mov	r4, r0
1531:Core/Src/main_unique.c ****     uint8_t i, end = 0U;
 2460              		.loc 1 1531 5 is_stmt 1 view .LVU508
1532:Core/Src/main_unique.c **** 
 2461              		.loc 1 1532 5 view .LVU509
 2462              	.LVL171:
1536:Core/Src/main_unique.c ****         if (!end && (txt[i] == '\0')) end = 1U;
 2463              		.loc 1 1536 5 view .LVU510
1532:Core/Src/main_unique.c **** 
 2464              		.loc 1 1532 16 is_stmt 0 view .LVU511
 2465 0006 0020     		movs	r0, #0
 2466              	.LVL172:
1536:Core/Src/main_unique.c ****         if (!end && (txt[i] == '\0')) end = 1U;
 2467              		.loc 1 1536 12 view .LVU512
 2468 0008 0346     		mov	r3, r0
1536:Core/Src/main_unique.c ****         if (!end && (txt[i] == '\0')) end = 1U;
 2469              		.loc 1 1536 5 view .LVU513
 2470 000a 08E0     		b	.L210
 2471              	.LVL173:
ARM GAS  /tmp/ccjBgtoi.s 			page 82


 2472              	.L215:
1538:Core/Src/main_unique.c ****     }
 2473              		.loc 1 1538 17 discriminator 2 view .LVU514
 2474 000c 2022     		movs	r2, #32
 2475              	.LVL174:
 2476              	.L211:
1538:Core/Src/main_unique.c ****     }
 2477              		.loc 1 1538 17 discriminator 3 view .LVU515
 2478 000e 03F11805 		add	r5, r3, #24
 2479 0012 0DEB050C 		add	ip, sp, r5
 2480 0016 0CF8182C 		strb	r2, [ip, #-24]
1536:Core/Src/main_unique.c ****         if (!end && (txt[i] == '\0')) end = 1U;
 2481              		.loc 1 1536 33 is_stmt 1 discriminator 1 view .LVU516
 2482 001a 0133     		adds	r3, r3, #1
 2483              	.LVL175:
1536:Core/Src/main_unique.c ****         if (!end && (txt[i] == '\0')) end = 1U;
 2484              		.loc 1 1536 33 is_stmt 0 discriminator 1 view .LVU517
 2485 001c DBB2     		uxtb	r3, r3
 2486              	.LVL176:
 2487              	.L210:
1536:Core/Src/main_unique.c ****         if (!end && (txt[i] == '\0')) end = 1U;
 2488              		.loc 1 1536 20 is_stmt 1 discriminator 2 view .LVU518
 2489 001e 132B     		cmp	r3, #19
 2490 0020 07D8     		bhi	.L217
1537:Core/Src/main_unique.c ****         norm[i] = end ? ' ' : txt[i];
 2491              		.loc 1 1537 9 view .LVU519
1537:Core/Src/main_unique.c ****         norm[i] = end ? ' ' : txt[i];
 2492              		.loc 1 1537 12 is_stmt 0 view .LVU520
 2493 0022 0028     		cmp	r0, #0
 2494 0024 F2D1     		bne	.L215
1537:Core/Src/main_unique.c ****         norm[i] = end ? ' ' : txt[i];
 2495              		.loc 1 1537 25 discriminator 1 view .LVU521
 2496 0026 CA5C     		ldrb	r2, [r1, r3]	@ zero_extendqisi2
1537:Core/Src/main_unique.c ****         norm[i] = end ? ' ' : txt[i];
 2497              		.loc 1 1537 18 discriminator 1 view .LVU522
 2498 0028 002A     		cmp	r2, #0
 2499 002a F0D1     		bne	.L211
1537:Core/Src/main_unique.c ****         norm[i] = end ? ' ' : txt[i];
 2500              		.loc 1 1537 43 discriminator 2 view .LVU523
 2501 002c 0120     		movs	r0, #1
 2502              	.LVL177:
1538:Core/Src/main_unique.c ****     }
 2503              		.loc 1 1538 17 discriminator 2 view .LVU524
 2504 002e 2022     		movs	r2, #32
 2505 0030 EDE7     		b	.L211
 2506              	.LVL178:
 2507              	.L217:
1540:Core/Src/main_unique.c **** 
 2508              		.loc 1 1540 5 is_stmt 1 view .LVU525
1540:Core/Src/main_unique.c **** 
 2509              		.loc 1 1540 20 is_stmt 0 view .LVU526
 2510 0032 0023     		movs	r3, #0
 2511              	.LVL179:
1540:Core/Src/main_unique.c **** 
 2512              		.loc 1 1540 20 view .LVU527
 2513 0034 8DF81430 		strb	r3, [sp, #20]
1542:Core/Src/main_unique.c ****         return;                       /* sin cambios: no se toca el bus */
ARM GAS  /tmp/ccjBgtoi.s 			page 83


 2514              		.loc 1 1542 5 is_stmt 1 view .LVU528
1542:Core/Src/main_unique.c ****         return;                       /* sin cambios: no se toca el bus */
 2515              		.loc 1 1542 31 is_stmt 0 view .LVU529
 2516 0038 04EB4401 		add	r1, r4, r4, lsl #1
 2517              	.LVL180:
1542:Core/Src/main_unique.c ****         return;                       /* sin cambios: no se toca el bus */
 2518              		.loc 1 1542 31 view .LVU530
 2519 003c C1EBC101 		rsb	r1, r1, r1, lsl #3
1542:Core/Src/main_unique.c ****         return;                       /* sin cambios: no se toca el bus */
 2520              		.loc 1 1542 9 view .LVU531
 2521 0040 1422     		movs	r2, #20
 2522 0042 134B     		ldr	r3, .L219
 2523 0044 1944     		add	r1, r1, r3
 2524 0046 6846     		mov	r0, sp
 2525              	.LVL181:
1542:Core/Src/main_unique.c ****         return;                       /* sin cambios: no se toca el bus */
 2526              		.loc 1 1542 9 view .LVU532
 2527 0048 FFF7FEFF 		bl	strncmp
 2528              	.LVL182:
1542:Core/Src/main_unique.c ****         return;                       /* sin cambios: no se toca el bus */
 2529              		.loc 1 1542 8 discriminator 1 view .LVU533
 2530 004c 08B9     		cbnz	r0, .L218
 2531              	.L209:
1547:Core/Src/main_unique.c **** 
 2532              		.loc 1 1547 1 view .LVU534
 2533 004e 06B0     		add	sp, sp, #24
 2534              	.LCFI43:
 2535              		.cfi_remember_state
 2536              		.cfi_def_cfa_offset 16
 2537              		@ sp needed
 2538 0050 70BD     		pop	{r4, r5, r6, pc}
 2539              	.LVL183:
 2540              	.L218:
 2541              	.LCFI44:
 2542              		.cfi_restore_state
1545:Core/Src/main_unique.c ****     lcd_print_line(row, norm);
 2543              		.loc 1 1545 5 is_stmt 1 view .LVU535
 2544 0052 04EB4403 		add	r3, r4, r4, lsl #1
 2545 0056 C3EBC305 		rsb	r5, r3, r3, lsl #3
 2546 005a 0D4E     		ldr	r6, .L219
 2547 005c 06EB050E 		add	lr, r6, r5
 2548 0060 EC46     		mov	ip, sp
 2549 0062 BCE80F00 		ldmia	ip!, {r0, r1, r2, r3}
 2550 0066 7051     		str	r0, [r6, r5]	@ unaligned
 2551 0068 CEF80410 		str	r1, [lr, #4]	@ unaligned
 2552 006c CEF80820 		str	r2, [lr, #8]	@ unaligned
 2553 0070 CEF80C30 		str	r3, [lr, #12]	@ unaligned
 2554 0074 DCF80000 		ldr	r0, [ip]
 2555 0078 CEF81000 		str	r0, [lr, #16]	@ unaligned
 2556 007c 9CF80430 		ldrb	r3, [ip, #4]	@ zero_extendqisi2
 2557 0080 8EF81430 		strb	r3, [lr, #20]
1546:Core/Src/main_unique.c **** }
 2558              		.loc 1 1546 5 view .LVU536
 2559 0084 6946     		mov	r1, sp
 2560 0086 2046     		mov	r0, r4
 2561 0088 FFF7FEFF 		bl	lcd_print_line
 2562              	.LVL184:
ARM GAS  /tmp/ccjBgtoi.s 			page 84


 2563 008c DFE7     		b	.L209
 2564              	.L220:
 2565 008e 00BF     		.align	2
 2566              	.L219:
 2567 0090 00000000 		.word	s_shadow
 2568              		.cfi_endproc
 2569              	.LFE323:
 2571              		.section	.text.render_time,"ax",%progbits
 2572              		.align	1
 2573              		.syntax unified
 2574              		.thumb
 2575              		.thumb_func
 2577              	render_time:
 2578              	.LFB326:
1597:Core/Src/main_unique.c ****     char buf[LCD_COLS + 1U];
 2579              		.loc 1 1597 1 view -0
 2580              		.cfi_startproc
 2581              		@ args = 0, pretend = 0, frame = 24
 2582              		@ frame_needed = 0, uses_anonymous_args = 0
 2583 0000 10B5     		push	{r4, lr}
 2584              	.LCFI45:
 2585              		.cfi_def_cfa_offset 8
 2586              		.cfi_offset 4, -8
 2587              		.cfi_offset 14, -4
 2588 0002 86B0     		sub	sp, sp, #24
 2589              	.LCFI46:
 2590              		.cfi_def_cfa_offset 32
1598:Core/Src/main_unique.c **** 
 2591              		.loc 1 1598 5 view .LVU538
1600:Core/Src/main_unique.c ****     lcd_update(0U, buf);
 2592              		.loc 1 1600 5 view .LVU539
 2593 0004 1521     		movs	r1, #21
 2594 0006 6846     		mov	r0, sp
 2595 0008 FFF7FEFF 		bl	rtc_format_line
 2596              	.LVL185:
1601:Core/Src/main_unique.c **** }
 2597              		.loc 1 1601 5 view .LVU540
 2598 000c 6946     		mov	r1, sp
 2599 000e 0020     		movs	r0, #0
 2600 0010 FFF7FEFF 		bl	lcd_update
 2601              	.LVL186:
1602:Core/Src/main_unique.c **** 
 2602              		.loc 1 1602 1 is_stmt 0 view .LVU541
 2603 0014 06B0     		add	sp, sp, #24
 2604              	.LCFI47:
 2605              		.cfi_def_cfa_offset 8
 2606              		@ sp needed
 2607 0016 10BD     		pop	{r4, pc}
 2608              		.cfi_endproc
 2609              	.LFE326:
 2611              		.section	.text.render_line2,"ax",%progbits
 2612              		.align	1
 2613              		.syntax unified
 2614              		.thumb
 2615              		.thumb_func
 2617              	render_line2:
 2618              	.LFB325:
ARM GAS  /tmp/ccjBgtoi.s 			page 85


1566:Core/Src/main_unique.c ****     char     win[LCD_COLS + 1U];
 2619              		.loc 1 1566 1 is_stmt 1 view -0
 2620              		.cfi_startproc
 2621              		@ args = 0, pretend = 0, frame = 24
 2622              		@ frame_needed = 0, uses_anonymous_args = 0
 2623 0000 10B5     		push	{r4, lr}
 2624              	.LCFI48:
 2625              		.cfi_def_cfa_offset 8
 2626              		.cfi_offset 4, -8
 2627              		.cfi_offset 14, -4
 2628 0002 86B0     		sub	sp, sp, #24
 2629              	.LCFI49:
 2630              		.cfi_def_cfa_offset 32
1567:Core/Src/main_unique.c ****     uint16_t len, total, i, idx;
 2631              		.loc 1 1567 5 view .LVU543
1568:Core/Src/main_unique.c **** 
 2632              		.loc 1 1568 5 view .LVU544
1570:Core/Src/main_unique.c ****         return;
 2633              		.loc 1 1570 5 view .LVU545
1570:Core/Src/main_unique.c ****         return;
 2634              		.loc 1 1570 17 is_stmt 0 view .LVU546
 2635 0004 1B4B     		ldr	r3, .L234
 2636 0006 1C68     		ldr	r4, [r3]
1570:Core/Src/main_unique.c ****         return;
 2637              		.loc 1 1570 8 view .LVU547
 2638 0008 8CB3     		cbz	r4, .L223
1574:Core/Src/main_unique.c **** 
 2639              		.loc 1 1574 5 is_stmt 1 view .LVU548
1574:Core/Src/main_unique.c **** 
 2640              		.loc 1 1574 21 is_stmt 0 view .LVU549
 2641 000a 2046     		mov	r0, r4
 2642 000c FFF7FEFF 		bl	strlen
 2643              	.LVL187:
1574:Core/Src/main_unique.c **** 
 2644              		.loc 1 1574 9 discriminator 1 view .LVU550
 2645 0010 80B2     		uxth	r0, r0
 2646              	.LVL188:
1576:Core/Src/main_unique.c ****         lcd_update(1U, s_line2);   /* cabe entero: sin desplazamiento */
 2647              		.loc 1 1576 5 is_stmt 1 view .LVU551
1576:Core/Src/main_unique.c ****         lcd_update(1U, s_line2);   /* cabe entero: sin desplazamiento */
 2648              		.loc 1 1576 8 is_stmt 0 view .LVU552
 2649 0012 1428     		cmp	r0, #20
 2650 0014 05D9     		bls	.L232
1581:Core/Src/main_unique.c **** 
 2651              		.loc 1 1581 5 is_stmt 1 view .LVU553
1581:Core/Src/main_unique.c **** 
 2652              		.loc 1 1581 11 is_stmt 0 view .LVU554
 2653 0016 00F1030C 		add	ip, r0, #3
 2654 001a 1FFA8CFC 		uxth	ip, ip
 2655              	.LVL189:
1583:Core/Src/main_unique.c ****         idx = (uint16_t)((s_scroll + i) % total);
 2656              		.loc 1 1583 5 is_stmt 1 view .LVU555
1583:Core/Src/main_unique.c ****         idx = (uint16_t)((s_scroll + i) % total);
 2657              		.loc 1 1583 12 is_stmt 0 view .LVU556
 2658 001e 0022     		movs	r2, #0
1583:Core/Src/main_unique.c ****         idx = (uint16_t)((s_scroll + i) % total);
 2659              		.loc 1 1583 5 view .LVU557
ARM GAS  /tmp/ccjBgtoi.s 			page 86


 2660 0020 0DE0     		b	.L226
 2661              	.LVL190:
 2662              	.L232:
1577:Core/Src/main_unique.c ****         return;
 2663              		.loc 1 1577 9 is_stmt 1 view .LVU558
 2664 0022 2146     		mov	r1, r4
 2665 0024 0120     		movs	r0, #1
 2666              	.LVL191:
1577:Core/Src/main_unique.c ****         return;
 2667              		.loc 1 1577 9 is_stmt 0 view .LVU559
 2668 0026 FFF7FEFF 		bl	lcd_update
 2669              	.LVL192:
1578:Core/Src/main_unique.c ****     }
 2670              		.loc 1 1578 9 is_stmt 1 view .LVU560
 2671 002a 20E0     		b	.L223
 2672              	.LVL193:
 2673              	.L230:
1585:Core/Src/main_unique.c ****     }
 2674              		.loc 1 1585 16 is_stmt 0 discriminator 2 view .LVU561
 2675 002c 4FF0200E 		mov	lr, #32
 2676              	.LVL194:
 2677              	.L227:
1585:Core/Src/main_unique.c ****     }
 2678              		.loc 1 1585 16 discriminator 3 view .LVU562
 2679 0030 01F11803 		add	r3, r1, #24
 2680              	.LVL195:
1585:Core/Src/main_unique.c ****     }
 2681              		.loc 1 1585 16 discriminator 3 view .LVU563
 2682 0034 6B44     		add	r3, sp, r3
 2683 0036 03F818EC 		strb	lr, [r3, #-24]
1583:Core/Src/main_unique.c ****         idx = (uint16_t)((s_scroll + i) % total);
 2684              		.loc 1 1583 33 is_stmt 1 discriminator 1 view .LVU564
 2685 003a 0132     		adds	r2, r2, #1
 2686              	.LVL196:
1583:Core/Src/main_unique.c ****         idx = (uint16_t)((s_scroll + i) % total);
 2687              		.loc 1 1583 33 is_stmt 0 discriminator 1 view .LVU565
 2688 003c 92B2     		uxth	r2, r2
 2689              	.LVL197:
 2690              	.L226:
1583:Core/Src/main_unique.c ****         idx = (uint16_t)((s_scroll + i) % total);
 2691              		.loc 1 1583 20 is_stmt 1 discriminator 2 view .LVU566
 2692 003e 132A     		cmp	r2, #19
 2693 0040 0ED8     		bhi	.L233
1584:Core/Src/main_unique.c ****         win[i] = (idx < len) ? s_line2[idx] : ' ';
 2694              		.loc 1 1584 9 view .LVU567
1584:Core/Src/main_unique.c ****         win[i] = (idx < len) ? s_line2[idx] : ' ';
 2695              		.loc 1 1584 36 is_stmt 0 view .LVU568
 2696 0042 1146     		mov	r1, r2
 2697 0044 0C4B     		ldr	r3, .L234+4
 2698 0046 1B88     		ldrh	r3, [r3]
 2699 0048 1344     		add	r3, r3, r2
1584:Core/Src/main_unique.c ****         win[i] = (idx < len) ? s_line2[idx] : ' ';
 2700              		.loc 1 1584 41 view .LVU569
 2701 004a 93FBFCFE 		sdiv	lr, r3, ip
 2702 004e 0CFB1E33 		mls	r3, ip, lr, r3
1584:Core/Src/main_unique.c ****         win[i] = (idx < len) ? s_line2[idx] : ' ';
 2703              		.loc 1 1584 13 view .LVU570
ARM GAS  /tmp/ccjBgtoi.s 			page 87


 2704 0052 1FFA83FE 		uxth	lr, r3
 2705              	.LVL198:
1585:Core/Src/main_unique.c ****     }
 2706              		.loc 1 1585 9 is_stmt 1 view .LVU571
1585:Core/Src/main_unique.c ****     }
 2707              		.loc 1 1585 16 is_stmt 0 view .LVU572
 2708 0056 7045     		cmp	r0, lr
 2709 0058 E8D9     		bls	.L230
1585:Core/Src/main_unique.c ****     }
 2710              		.loc 1 1585 16 discriminator 1 view .LVU573
 2711 005a 14F80EE0 		ldrb	lr, [r4, lr]	@ zero_extendqisi2
 2712              	.LVL199:
1585:Core/Src/main_unique.c ****     }
 2713              		.loc 1 1585 16 discriminator 1 view .LVU574
 2714 005e E7E7     		b	.L227
 2715              	.LVL200:
 2716              	.L233:
1587:Core/Src/main_unique.c **** 
 2717              		.loc 1 1587 5 is_stmt 1 view .LVU575
1587:Core/Src/main_unique.c **** 
 2718              		.loc 1 1587 19 is_stmt 0 view .LVU576
 2719 0060 0023     		movs	r3, #0
 2720 0062 8DF81430 		strb	r3, [sp, #20]
1589:Core/Src/main_unique.c **** }
 2721              		.loc 1 1589 5 is_stmt 1 view .LVU577
 2722 0066 6946     		mov	r1, sp
 2723 0068 0120     		movs	r0, #1
 2724              	.LVL201:
1589:Core/Src/main_unique.c **** }
 2725              		.loc 1 1589 5 is_stmt 0 view .LVU578
 2726 006a FFF7FEFF 		bl	lcd_update
 2727              	.LVL202:
 2728              	.L223:
1590:Core/Src/main_unique.c **** 
 2729              		.loc 1 1590 1 view .LVU579
 2730 006e 06B0     		add	sp, sp, #24
 2731              	.LCFI50:
 2732              		.cfi_def_cfa_offset 8
 2733              		@ sp needed
 2734 0070 10BD     		pop	{r4, pc}
 2735              	.L235:
 2736 0072 00BF     		.align	2
 2737              	.L234:
 2738 0074 00000000 		.word	s_line2
 2739 0078 00000000 		.word	s_scroll
 2740              		.cfi_endproc
 2741              	.LFE325:
 2743              		.section	.text.show_message,"ax",%progbits
 2744              		.align	1
 2745              		.syntax unified
 2746              		.thumb
 2747              		.thumb_func
 2749              	show_message:
 2750              	.LVL203:
 2751              	.LFB328:
1630:Core/Src/main_unique.c ****     if (s_state != ST_MESSAGE) {
 2752              		.loc 1 1630 1 is_stmt 1 view -0
ARM GAS  /tmp/ccjBgtoi.s 			page 88


 2753              		.cfi_startproc
 2754              		@ args = 0, pretend = 0, frame = 0
 2755              		@ frame_needed = 0, uses_anonymous_args = 0
1630:Core/Src/main_unique.c ****     if (s_state != ST_MESSAGE) {
 2756              		.loc 1 1630 1 is_stmt 0 view .LVU581
 2757 0000 08B5     		push	{r3, lr}
 2758              	.LCFI51:
 2759              		.cfi_def_cfa_offset 8
 2760              		.cfi_offset 3, -8
 2761              		.cfi_offset 14, -4
1631:Core/Src/main_unique.c ****         s_prev = s_state;      /* memoriza a donde volver */
 2762              		.loc 1 1631 5 is_stmt 1 view .LVU582
1631:Core/Src/main_unique.c ****         s_prev = s_state;      /* memoriza a donde volver */
 2763              		.loc 1 1631 17 is_stmt 0 view .LVU583
 2764 0002 084B     		ldr	r3, .L239
 2765 0004 1B78     		ldrb	r3, [r3]	@ zero_extendqisi2
1631:Core/Src/main_unique.c ****         s_prev = s_state;      /* memoriza a donde volver */
 2766              		.loc 1 1631 8 view .LVU584
 2767 0006 042B     		cmp	r3, #4
 2768 0008 01D0     		beq	.L237
1632:Core/Src/main_unique.c ****     }
 2769              		.loc 1 1632 9 is_stmt 1 view .LVU585
1632:Core/Src/main_unique.c ****     }
 2770              		.loc 1 1632 16 is_stmt 0 view .LVU586
 2771 000a 074A     		ldr	r2, .L239+4
 2772 000c 1370     		strb	r3, [r2]
 2773              	.L237:
1634:Core/Src/main_unique.c ****     s_msg_timeout = MSG_DURATION_TICKS;
 2774              		.loc 1 1634 5 is_stmt 1 view .LVU587
1634:Core/Src/main_unique.c ****     s_msg_timeout = MSG_DURATION_TICKS;
 2775              		.loc 1 1634 19 is_stmt 0 view .LVU588
 2776 000e 054B     		ldr	r3, .L239
 2777 0010 0422     		movs	r2, #4
 2778 0012 1A70     		strb	r2, [r3]
1635:Core/Src/main_unique.c ****     set_line2(txt);
 2779              		.loc 1 1635 5 is_stmt 1 view .LVU589
1635:Core/Src/main_unique.c ****     set_line2(txt);
 2780              		.loc 1 1635 19 is_stmt 0 view .LVU590
 2781 0014 054B     		ldr	r3, .L239+8
 2782 0016 1E22     		movs	r2, #30
 2783 0018 1A80     		strh	r2, [r3]	@ movhi
1636:Core/Src/main_unique.c ****     render_line2();
 2784              		.loc 1 1636 5 is_stmt 1 view .LVU591
 2785 001a FFF7FEFF 		bl	set_line2
 2786              	.LVL204:
1637:Core/Src/main_unique.c **** }
 2787              		.loc 1 1637 5 view .LVU592
 2788 001e FFF7FEFF 		bl	render_line2
 2789              	.LVL205:
1638:Core/Src/main_unique.c **** 
 2790              		.loc 1 1638 1 is_stmt 0 view .LVU593
 2791 0022 08BD     		pop	{r3, pc}
 2792              	.L240:
 2793              		.align	2
 2794              	.L239:
 2795 0024 00000000 		.word	s_state
 2796 0028 00000000 		.word	s_prev
ARM GAS  /tmp/ccjBgtoi.s 			page 89


 2797 002c 00000000 		.word	s_msg_timeout
 2798              		.cfi_endproc
 2799              	.LFE328:
 2801              		.section	.text.restore_line2,"ax",%progbits
 2802              		.align	1
 2803              		.syntax unified
 2804              		.thumb
 2805              		.thumb_func
 2807              	restore_line2:
 2808              	.LFB329:
1645:Core/Src/main_unique.c ****     switch (s_state) {
 2809              		.loc 1 1645 1 is_stmt 1 view -0
 2810              		.cfi_startproc
 2811              		@ args = 0, pretend = 0, frame = 0
 2812              		@ frame_needed = 0, uses_anonymous_args = 0
 2813 0000 08B5     		push	{r3, lr}
 2814              	.LCFI52:
 2815              		.cfi_def_cfa_offset 8
 2816              		.cfi_offset 3, -8
 2817              		.cfi_offset 14, -4
1646:Core/Src/main_unique.c ****     case ST_MODE_X: set_line2(TXT_MODE_X); break;
 2818              		.loc 1 1646 5 view .LVU595
 2819 0002 0A4B     		ldr	r3, .L248
 2820 0004 1B78     		ldrb	r3, [r3]	@ zero_extendqisi2
 2821 0006 022B     		cmp	r3, #2
 2822 0008 05D0     		beq	.L242
 2823 000a 032B     		cmp	r3, #3
 2824 000c 09D0     		beq	.L243
1649:Core/Src/main_unique.c ****     }
 2825              		.loc 1 1649 21 view .LVU596
 2826 000e 0848     		ldr	r0, .L248+4
 2827 0010 FFF7FEFF 		bl	set_line2
 2828              	.LVL206:
1649:Core/Src/main_unique.c ****     }
 2829              		.loc 1 1649 44 discriminator 1 view .LVU597
 2830 0014 02E0     		b	.L245
 2831              	.L242:
1647:Core/Src/main_unique.c ****     case ST_MODE_Y: set_line2(TXT_MODE_Y); break;
 2832              		.loc 1 1647 21 view .LVU598
 2833 0016 0748     		ldr	r0, .L248+8
 2834 0018 FFF7FEFF 		bl	set_line2
 2835              	.LVL207:
1647:Core/Src/main_unique.c ****     case ST_MODE_Y: set_line2(TXT_MODE_Y); break;
 2836              		.loc 1 1647 44 discriminator 1 view .LVU599
 2837              	.L245:
1651:Core/Src/main_unique.c **** }
 2838              		.loc 1 1651 5 view .LVU600
 2839 001c FFF7FEFF 		bl	render_line2
 2840              	.LVL208:
1652:Core/Src/main_unique.c **** 
 2841              		.loc 1 1652 1 is_stmt 0 view .LVU601
 2842 0020 08BD     		pop	{r3, pc}
 2843              	.L243:
1648:Core/Src/main_unique.c ****     default:        set_line2(TXT_BANNER); break;
 2844              		.loc 1 1648 21 is_stmt 1 view .LVU602
 2845 0022 0548     		ldr	r0, .L248+12
 2846 0024 FFF7FEFF 		bl	set_line2
ARM GAS  /tmp/ccjBgtoi.s 			page 90


 2847              	.LVL209:
1648:Core/Src/main_unique.c ****     default:        set_line2(TXT_BANNER); break;
 2848              		.loc 1 1648 44 discriminator 1 view .LVU603
 2849 0028 F8E7     		b	.L245
 2850              	.L249:
 2851 002a 00BF     		.align	2
 2852              	.L248:
 2853 002c 00000000 		.word	s_state
 2854 0030 00000000 		.word	TXT_BANNER
 2855 0034 00000000 		.word	TXT_MODE_X
 2856 0038 00000000 		.word	TXT_MODE_Y
 2857              		.cfi_endproc
 2858              	.LFE329:
 2860              		.section	.rodata.render_coords.str1.4,"aMS",%progbits,1
 2861              		.align	2
 2862              	.LC29:
 2863 0000 583A252B 		.ascii	"X:%+04d ADC:%04u\000"
 2863      30346420 
 2863      4144433A 
 2863      25303475 
 2863      00
 2864 0011 000000   		.align	2
 2865              	.LC30:
 2866 0014 593A252B 		.ascii	"Y:%+04d ADC:%04u\000"
 2866      30346420 
 2866      4144433A 
 2866      25303475 
 2866      00
 2867              		.section	.text.render_coords,"ax",%progbits
 2868              		.align	1
 2869              		.syntax unified
 2870              		.thumb
 2871              		.thumb_func
 2873              	render_coords:
 2874              	.LFB327:
1610:Core/Src/main_unique.c ****     /* El buffer se dimensiona con holgura para que el compilador pueda
 2875              		.loc 1 1610 1 view -0
 2876              		.cfi_startproc
 2877              		@ args = 0, pretend = 0, frame = 24
 2878              		@ frame_needed = 0, uses_anonymous_args = 0
 2879 0000 30B5     		push	{r4, r5, lr}
 2880              	.LCFI53:
 2881              		.cfi_def_cfa_offset 12
 2882              		.cfi_offset 4, -12
 2883              		.cfi_offset 5, -8
 2884              		.cfi_offset 14, -4
 2885 0002 89B0     		sub	sp, sp, #36
 2886              	.LCFI54:
 2887              		.cfi_def_cfa_offset 48
1613:Core/Src/main_unique.c **** 
 2888              		.loc 1 1613 5 view .LVU605
1615:Core/Src/main_unique.c ****              (int)s_coord_x, (unsigned)adc_joystick_raw_x());
 2889              		.loc 1 1615 5 view .LVU606
 2890 0004 124B     		ldr	r3, .L252
 2891 0006 B3F90030 		ldrsh	r3, [r3]
 2892 000a 1D46     		mov	r5, r3
1616:Core/Src/main_unique.c ****     lcd_update(2U, buf);
ARM GAS  /tmp/ccjBgtoi.s 			page 91


 2893              		.loc 1 1616 40 is_stmt 0 view .LVU607
 2894 000c FFF7FEFF 		bl	adc_joystick_raw_x
 2895              	.LVL210:
1615:Core/Src/main_unique.c ****              (int)s_coord_x, (unsigned)adc_joystick_raw_x());
 2896              		.loc 1 1615 5 discriminator 1 view .LVU608
 2897 0010 02AC     		add	r4, sp, #8
 2898 0012 0090     		str	r0, [sp]
 2899 0014 2B46     		mov	r3, r5
 2900 0016 0F4A     		ldr	r2, .L252+4
 2901 0018 1821     		movs	r1, #24
 2902 001a 2046     		mov	r0, r4
 2903 001c FFF7FEFF 		bl	snprintf
 2904              	.LVL211:
1617:Core/Src/main_unique.c **** 
 2905              		.loc 1 1617 5 is_stmt 1 view .LVU609
 2906 0020 2146     		mov	r1, r4
 2907 0022 0220     		movs	r0, #2
 2908 0024 FFF7FEFF 		bl	lcd_update
 2909              	.LVL212:
1619:Core/Src/main_unique.c ****              (int)s_coord_y, (unsigned)adc_joystick_raw_y());
 2910              		.loc 1 1619 5 view .LVU610
 2911 0028 0B4B     		ldr	r3, .L252+8
 2912 002a B3F90030 		ldrsh	r3, [r3]
 2913 002e 1D46     		mov	r5, r3
1620:Core/Src/main_unique.c ****     lcd_update(3U, buf);
 2914              		.loc 1 1620 40 is_stmt 0 view .LVU611
 2915 0030 FFF7FEFF 		bl	adc_joystick_raw_y
 2916              	.LVL213:
1619:Core/Src/main_unique.c ****              (int)s_coord_y, (unsigned)adc_joystick_raw_y());
 2917              		.loc 1 1619 5 discriminator 1 view .LVU612
 2918 0034 0090     		str	r0, [sp]
 2919 0036 2B46     		mov	r3, r5
 2920 0038 084A     		ldr	r2, .L252+12
 2921 003a 1821     		movs	r1, #24
 2922 003c 2046     		mov	r0, r4
 2923 003e FFF7FEFF 		bl	snprintf
 2924              	.LVL214:
1621:Core/Src/main_unique.c **** }
 2925              		.loc 1 1621 5 is_stmt 1 view .LVU613
 2926 0042 2146     		mov	r1, r4
 2927 0044 0320     		movs	r0, #3
 2928 0046 FFF7FEFF 		bl	lcd_update
 2929              	.LVL215:
1622:Core/Src/main_unique.c **** 
 2930              		.loc 1 1622 1 is_stmt 0 view .LVU614
 2931 004a 09B0     		add	sp, sp, #36
 2932              	.LCFI55:
 2933              		.cfi_def_cfa_offset 12
 2934              		@ sp needed
 2935 004c 30BD     		pop	{r4, r5, pc}
 2936              	.L253:
 2937 004e 00BF     		.align	2
 2938              	.L252:
 2939 0050 00000000 		.word	s_coord_x
 2940 0054 00000000 		.word	.LC29
 2941 0058 00000000 		.word	s_coord_y
 2942 005c 14000000 		.word	.LC30
ARM GAS  /tmp/ccjBgtoi.s 			page 92


 2943              		.cfi_endproc
 2944              	.LFE327:
 2946              		.section	.rodata.coord_step.str1.4,"aMS",%progbits,1
 2947              		.align	2
 2948              	.LC31:
 2949 0000 4552524F 		.ascii	"ERROR: seleccione modo con 'x' o 'y'\000"
 2949      523A2073 
 2949      656C6563 
 2949      63696F6E 
 2949      65206D6F 
 2950              		.section	.text.coord_step,"ax",%progbits
 2951              		.align	1
 2952              		.syntax unified
 2953              		.thumb
 2954              		.thumb_func
 2956              	coord_step:
 2957              	.LVL216:
 2958              	.LFB330:
1662:Core/Src/main_unique.c ****     switch (s_state) {
 2959              		.loc 1 1662 1 is_stmt 1 view -0
 2960              		.cfi_startproc
 2961              		@ args = 0, pretend = 0, frame = 0
 2962              		@ frame_needed = 0, uses_anonymous_args = 0
1662:Core/Src/main_unique.c ****     switch (s_state) {
 2963              		.loc 1 1662 1 is_stmt 0 view .LVU616
 2964 0000 10B5     		push	{r4, lr}
 2965              	.LCFI56:
 2966              		.cfi_def_cfa_offset 8
 2967              		.cfi_offset 4, -8
 2968              		.cfi_offset 14, -4
1663:Core/Src/main_unique.c **** 
 2969              		.loc 1 1663 5 is_stmt 1 view .LVU617
 2970 0002 204B     		ldr	r3, .L264
 2971 0004 1B78     		ldrb	r3, [r3]	@ zero_extendqisi2
 2972 0006 032B     		cmp	r3, #3
 2973 0008 0DD0     		beq	.L255
 2974 000a 042B     		cmp	r3, #4
 2975 000c 15D0     		beq	.L256
 2976 000e 022B     		cmp	r3, #2
 2977 0010 31D1     		bne	.L257
1666:Core/Src/main_unique.c ****         render_coords();
 2978              		.loc 1 1666 9 view .LVU618
1666:Core/Src/main_unique.c ****         render_coords();
 2979              		.loc 1 1666 33 is_stmt 0 view .LVU619
 2980 0012 1D4C     		ldr	r4, .L264+4
 2981 0014 B4F90030 		ldrsh	r3, [r4]
1666:Core/Src/main_unique.c ****         render_coords();
 2982              		.loc 1 1666 21 view .LVU620
 2983 0018 1844     		add	r0, r0, r3
 2984              	.LVL217:
1666:Core/Src/main_unique.c ****         render_coords();
 2985              		.loc 1 1666 21 view .LVU621
 2986 001a FFF7FEFF 		bl	clamp_coord
 2987              	.LVL218:
1666:Core/Src/main_unique.c ****         render_coords();
 2988              		.loc 1 1666 19 discriminator 1 view .LVU622
 2989 001e 2080     		strh	r0, [r4]	@ movhi
ARM GAS  /tmp/ccjBgtoi.s 			page 93


1667:Core/Src/main_unique.c ****         break;
 2990              		.loc 1 1667 9 is_stmt 1 view .LVU623
 2991 0020 FFF7FEFF 		bl	render_coords
 2992              	.LVL219:
1668:Core/Src/main_unique.c **** 
 2993              		.loc 1 1668 9 view .LVU624
 2994              	.L254:
1694:Core/Src/main_unique.c **** 
 2995              		.loc 1 1694 1 is_stmt 0 view .LVU625
 2996 0024 10BD     		pop	{r4, pc}
 2997              	.LVL220:
 2998              	.L255:
1671:Core/Src/main_unique.c ****         render_coords();
 2999              		.loc 1 1671 9 is_stmt 1 view .LVU626
1671:Core/Src/main_unique.c ****         render_coords();
 3000              		.loc 1 1671 33 is_stmt 0 view .LVU627
 3001 0026 194C     		ldr	r4, .L264+8
 3002 0028 B4F90030 		ldrsh	r3, [r4]
1671:Core/Src/main_unique.c ****         render_coords();
 3003              		.loc 1 1671 21 view .LVU628
 3004 002c 1844     		add	r0, r0, r3
 3005              	.LVL221:
1671:Core/Src/main_unique.c ****         render_coords();
 3006              		.loc 1 1671 21 view .LVU629
 3007 002e FFF7FEFF 		bl	clamp_coord
 3008              	.LVL222:
1671:Core/Src/main_unique.c ****         render_coords();
 3009              		.loc 1 1671 19 discriminator 1 view .LVU630
 3010 0032 2080     		strh	r0, [r4]	@ movhi
1672:Core/Src/main_unique.c ****         break;
 3011              		.loc 1 1672 9 is_stmt 1 view .LVU631
 3012 0034 FFF7FEFF 		bl	render_coords
 3013              	.LVL223:
1673:Core/Src/main_unique.c **** 
 3014              		.loc 1 1673 9 view .LVU632
 3015 0038 F4E7     		b	.L254
 3016              	.LVL224:
 3017              	.L256:
1678:Core/Src/main_unique.c ****             s_coord_x = clamp_coord((int32_t)s_coord_x + delta);
 3018              		.loc 1 1678 9 view .LVU633
1678:Core/Src/main_unique.c ****             s_coord_x = clamp_coord((int32_t)s_coord_x + delta);
 3019              		.loc 1 1678 20 is_stmt 0 view .LVU634
 3020 003a 154B     		ldr	r3, .L264+12
 3021 003c 1B78     		ldrb	r3, [r3]	@ zero_extendqisi2
1678:Core/Src/main_unique.c ****             s_coord_x = clamp_coord((int32_t)s_coord_x + delta);
 3022              		.loc 1 1678 12 view .LVU635
 3023 003e 022B     		cmp	r3, #2
 3024 0040 05D0     		beq	.L262
1681:Core/Src/main_unique.c ****             s_coord_y = clamp_coord((int32_t)s_coord_y + delta);
 3025              		.loc 1 1681 16 is_stmt 1 view .LVU636
1681:Core/Src/main_unique.c ****             s_coord_y = clamp_coord((int32_t)s_coord_y + delta);
 3026              		.loc 1 1681 19 is_stmt 0 view .LVU637
 3027 0042 032B     		cmp	r3, #3
 3028 0044 0DD0     		beq	.L263
1685:Core/Src/main_unique.c ****         }
 3029              		.loc 1 1685 13 is_stmt 1 view .LVU638
1685:Core/Src/main_unique.c ****         }
ARM GAS  /tmp/ccjBgtoi.s 			page 94


 3030              		.loc 1 1685 27 is_stmt 0 view .LVU639
 3031 0046 134B     		ldr	r3, .L264+16
 3032 0048 1E22     		movs	r2, #30
 3033 004a 1A80     		strh	r2, [r3]	@ movhi
 3034 004c EAE7     		b	.L254
 3035              	.L262:
1679:Core/Src/main_unique.c ****             render_coords();
 3036              		.loc 1 1679 13 is_stmt 1 view .LVU640
1679:Core/Src/main_unique.c ****             render_coords();
 3037              		.loc 1 1679 37 is_stmt 0 view .LVU641
 3038 004e 0E4C     		ldr	r4, .L264+4
 3039 0050 B4F90030 		ldrsh	r3, [r4]
1679:Core/Src/main_unique.c ****             render_coords();
 3040              		.loc 1 1679 25 view .LVU642
 3041 0054 1844     		add	r0, r0, r3
 3042              	.LVL225:
1679:Core/Src/main_unique.c ****             render_coords();
 3043              		.loc 1 1679 25 view .LVU643
 3044 0056 FFF7FEFF 		bl	clamp_coord
 3045              	.LVL226:
1679:Core/Src/main_unique.c ****             render_coords();
 3046              		.loc 1 1679 23 discriminator 1 view .LVU644
 3047 005a 2080     		strh	r0, [r4]	@ movhi
1680:Core/Src/main_unique.c ****         } else if (s_prev == ST_MODE_Y) {
 3048              		.loc 1 1680 13 is_stmt 1 view .LVU645
 3049 005c FFF7FEFF 		bl	render_coords
 3050              	.LVL227:
 3051 0060 E0E7     		b	.L254
 3052              	.LVL228:
 3053              	.L263:
1682:Core/Src/main_unique.c ****             render_coords();
 3054              		.loc 1 1682 13 view .LVU646
1682:Core/Src/main_unique.c ****             render_coords();
 3055              		.loc 1 1682 37 is_stmt 0 view .LVU647
 3056 0062 0A4C     		ldr	r4, .L264+8
 3057 0064 B4F90030 		ldrsh	r3, [r4]
1682:Core/Src/main_unique.c ****             render_coords();
 3058              		.loc 1 1682 25 view .LVU648
 3059 0068 1844     		add	r0, r0, r3
 3060              	.LVL229:
1682:Core/Src/main_unique.c ****             render_coords();
 3061              		.loc 1 1682 25 view .LVU649
 3062 006a FFF7FEFF 		bl	clamp_coord
 3063              	.LVL230:
1682:Core/Src/main_unique.c ****             render_coords();
 3064              		.loc 1 1682 23 discriminator 1 view .LVU650
 3065 006e 2080     		strh	r0, [r4]	@ movhi
1683:Core/Src/main_unique.c ****         } else {
 3066              		.loc 1 1683 13 is_stmt 1 view .LVU651
 3067 0070 FFF7FEFF 		bl	render_coords
 3068              	.LVL231:
 3069 0074 D6E7     		b	.L254
 3070              	.LVL232:
 3071              	.L257:
1690:Core/Src/main_unique.c ****         uart_send_line("ERROR: seleccione modo con 'x' o 'y'");
 3072              		.loc 1 1690 9 view .LVU652
 3073 0076 0848     		ldr	r0, .L264+20
ARM GAS  /tmp/ccjBgtoi.s 			page 95


 3074              	.LVL233:
1690:Core/Src/main_unique.c ****         uart_send_line("ERROR: seleccione modo con 'x' o 'y'");
 3075              		.loc 1 1690 9 is_stmt 0 view .LVU653
 3076 0078 FFF7FEFF 		bl	show_message
 3077              	.LVL234:
1691:Core/Src/main_unique.c ****         break;
 3078              		.loc 1 1691 9 is_stmt 1 view .LVU654
 3079 007c 0748     		ldr	r0, .L264+24
 3080 007e FFF7FEFF 		bl	uart_send_line
 3081              	.LVL235:
1692:Core/Src/main_unique.c ****     }
 3082              		.loc 1 1692 9 view .LVU655
1694:Core/Src/main_unique.c **** 
 3083              		.loc 1 1694 1 is_stmt 0 view .LVU656
 3084 0082 CFE7     		b	.L254
 3085              	.L265:
 3086              		.align	2
 3087              	.L264:
 3088 0084 00000000 		.word	s_state
 3089 0088 00000000 		.word	s_coord_x
 3090 008c 00000000 		.word	s_coord_y
 3091 0090 00000000 		.word	s_prev
 3092 0094 00000000 		.word	s_msg_timeout
 3093 0098 00000000 		.word	TXT_NO_MODE
 3094 009c 00000000 		.word	.LC31
 3095              		.cfi_endproc
 3096              	.LFE330:
 3098              		.section	.text.lcd_is_present,"ax",%progbits
 3099              		.align	1
 3100              		.global	lcd_is_present
 3101              		.syntax unified
 3102              		.thumb
 3103              		.thumb_func
 3105              	lcd_is_present:
 3106              	.LFB315:
1307:Core/Src/main_unique.c **** uint8_t  lcd_address(void)     { return s_addr7;   }
 3107              		.loc 1 1307 32 is_stmt 1 view -0
 3108              		.cfi_startproc
 3109              		@ args = 0, pretend = 0, frame = 0
 3110              		@ frame_needed = 0, uses_anonymous_args = 0
 3111              		@ link register save eliminated.
1307:Core/Src/main_unique.c **** uint8_t  lcd_address(void)     { return s_addr7;   }
 3112              		.loc 1 1307 34 view .LVU658
1307:Core/Src/main_unique.c **** uint8_t  lcd_address(void)     { return s_addr7;   }
 3113              		.loc 1 1307 52 is_stmt 0 view .LVU659
 3114 0000 014B     		ldr	r3, .L267
 3115 0002 1878     		ldrb	r0, [r3]	@ zero_extendqisi2
 3116 0004 7047     		bx	lr
 3117              	.L268:
 3118 0006 00BF     		.align	2
 3119              	.L267:
 3120 0008 00000000 		.word	s_present
 3121              		.cfi_endproc
 3122              	.LFE315:
 3124              		.section	.text.lcd_address,"ax",%progbits
 3125              		.align	1
 3126              		.global	lcd_address
ARM GAS  /tmp/ccjBgtoi.s 			page 96


 3127              		.syntax unified
 3128              		.thumb
 3129              		.thumb_func
 3131              	lcd_address:
 3132              	.LFB316:
1308:Core/Src/main_unique.c **** uint32_t lcd_error_count(void) { return s_errors;  }
 3133              		.loc 1 1308 32 is_stmt 1 view -0
 3134              		.cfi_startproc
 3135              		@ args = 0, pretend = 0, frame = 0
 3136              		@ frame_needed = 0, uses_anonymous_args = 0
 3137              		@ link register save eliminated.
1308:Core/Src/main_unique.c **** uint32_t lcd_error_count(void) { return s_errors;  }
 3138              		.loc 1 1308 34 view .LVU661
1308:Core/Src/main_unique.c **** uint32_t lcd_error_count(void) { return s_errors;  }
 3139              		.loc 1 1308 52 is_stmt 0 view .LVU662
 3140 0000 014B     		ldr	r3, .L270
 3141 0002 1878     		ldrb	r0, [r3]	@ zero_extendqisi2
 3142 0004 7047     		bx	lr
 3143              	.L271:
 3144 0006 00BF     		.align	2
 3145              	.L270:
 3146 0008 00000000 		.word	s_addr7
 3147              		.cfi_endproc
 3148              	.LFE316:
 3150              		.section	.text.lcd_error_count,"ax",%progbits
 3151              		.align	1
 3152              		.global	lcd_error_count
 3153              		.syntax unified
 3154              		.thumb
 3155              		.thumb_func
 3157              	lcd_error_count:
 3158              	.LFB317:
1309:Core/Src/main_unique.c **** 
 3159              		.loc 1 1309 32 is_stmt 1 view -0
 3160              		.cfi_startproc
 3161              		@ args = 0, pretend = 0, frame = 0
 3162              		@ frame_needed = 0, uses_anonymous_args = 0
 3163              		@ link register save eliminated.
1309:Core/Src/main_unique.c **** 
 3164              		.loc 1 1309 34 view .LVU664
1309:Core/Src/main_unique.c **** 
 3165              		.loc 1 1309 52 is_stmt 0 view .LVU665
 3166 0000 014B     		ldr	r3, .L273
 3167 0002 1868     		ldr	r0, [r3]
 3168 0004 7047     		bx	lr
 3169              	.L274:
 3170 0006 00BF     		.align	2
 3171              	.L273:
 3172 0008 00000000 		.word	s_errors
 3173              		.cfi_endproc
 3174              	.LFE317:
 3176              		.section	.rodata.print_diagnostics.str1.4,"aMS",%progbits,1
 3177              		.align	2
 3178              	.LC32:
 3179 0000 20437269 		.ascii	" Cristal LSE   : OK (32768 Hz)\000"
 3179      7374616C 
 3179      204C5345 
ARM GAS  /tmp/ccjBgtoi.s 			page 97


 3179      2020203A 
 3179      204F4B20 
 3180 001f 00       		.align	2
 3181              	.LC33:
 3182 0020 20437269 		.ascii	" Cristal LSE   : NO ARRANCA -> RTC sobre LSI\000"
 3182      7374616C 
 3182      204C5345 
 3182      2020203A 
 3182      204E4F20 
 3183 004d 000000   		.align	2
 3184              	.LC34:
 3185 0050 2D2D2D20 		.ascii	"--- Diagnostico del sistema ---\000"
 3185      44696167 
 3185      6E6F7374 
 3185      69636F20 
 3185      64656C20 
 3186              		.align	2
 3187              	.LC35:
 3188 0070 20535953 		.ascii	" SYSCLK        : %lu Hz\000"
 3188      434C4B20 
 3188      20202020 
 3188      2020203A 
 3188      20256C75 
 3189              		.align	2
 3190              	.LC36:
 3191 0088 204D434F 		.ascii	" MCO1 (PA8)    : %s\000"
 3191      31202850 
 3191      41382920 
 3191      2020203A 
 3191      20257300 
 3192              		.align	2
 3193              	.LC37:
 3194 009c 204C4344 		.ascii	" LCD I2C       : OK en 0x%02X, %lu fallos\000"
 3194      20493243 
 3194      20202020 
 3194      2020203A 
 3194      204F4B20 
 3195 00c6 0000     		.align	2
 3196              	.LC38:
 3197 00c8 204C4344 		.ascii	" LCD I2C       : NO DETECTADO\000"
 3197      20493243 
 3197      20202020 
 3197      2020203A 
 3197      204E4F20 
 3198 00e6 0000     		.align	2
 3199              	.LC39:
 3200 00e8 204A6F79 		.ascii	" Joystick ADC  : X=%u  Y=%u\000"
 3200      73746963 
 3200      6B204144 
 3200      4320203A 
 3200      20583D25 
 3201              		.align	2
 3202              	.LC40:
 3203 0104 2D2D2D2D 		.ascii	"-------------------------------\000"
 3203      2D2D2D2D 
 3203      2D2D2D2D 
 3203      2D2D2D2D 
ARM GAS  /tmp/ccjBgtoi.s 			page 98


 3203      2D2D2D2D 
 3204              		.section	.text.print_diagnostics,"ax",%progbits
 3205              		.align	1
 3206              		.syntax unified
 3207              		.thumb
 3208              		.thumb_func
 3210              	print_diagnostics:
 3211              	.LFB333:
1733:Core/Src/main_unique.c **** 
1734:Core/Src/main_unique.c **** /*
1735:Core/Src/main_unique.c ****  * print_diagnostics
1736:Core/Src/main_unique.c ****  * Informe de estado de los perifericos criticos. Se emite al arrancar y bajo
1737:Core/Src/main_unique.c ****  * demanda con el comando 'd'. Permite localizar un fallo de montaje sin
1738:Core/Src/main_unique.c ****  * depurador y sin osciloscopio.
1739:Core/Src/main_unique.c ****  */
1740:Core/Src/main_unique.c **** static void print_diagnostics(void)
1741:Core/Src/main_unique.c **** {
 3212              		.loc 1 1741 1 is_stmt 1 view -0
 3213              		.cfi_startproc
 3214              		@ args = 0, pretend = 0, frame = 64
 3215              		@ frame_needed = 0, uses_anonymous_args = 0
 3216 0000 30B5     		push	{r4, r5, lr}
 3217              	.LCFI57:
 3218              		.cfi_def_cfa_offset 12
 3219              		.cfi_offset 4, -12
 3220              		.cfi_offset 5, -8
 3221              		.cfi_offset 14, -4
 3222 0002 93B0     		sub	sp, sp, #76
 3223              	.LCFI58:
 3224              		.cfi_def_cfa_offset 88
1742:Core/Src/main_unique.c ****     char buf[64];
 3225              		.loc 1 1742 5 view .LVU667
1743:Core/Src/main_unique.c **** 
1744:Core/Src/main_unique.c ****     uart_send_line("");
 3226              		.loc 1 1744 5 view .LVU668
 3227 0004 2C48     		ldr	r0, .L281
 3228 0006 FFF7FEFF 		bl	uart_send_line
 3229              	.LVL236:
1745:Core/Src/main_unique.c ****     uart_send_line("--- Diagnostico del sistema ---");
 3230              		.loc 1 1745 5 view .LVU669
 3231 000a 2C48     		ldr	r0, .L281+4
 3232 000c FFF7FEFF 		bl	uart_send_line
 3233              	.LVL237:
1746:Core/Src/main_unique.c **** 
1747:Core/Src/main_unique.c ****     snprintf(buf, sizeof(buf), " SYSCLK        : %lu Hz",
 3234              		.loc 1 1747 5 view .LVU670
1748:Core/Src/main_unique.c ****              (unsigned long)HAL_RCC_GetSysClockFreq());
 3235              		.loc 1 1748 29 is_stmt 0 view .LVU671
 3236 0010 FFF7FEFF 		bl	HAL_RCC_GetSysClockFreq
 3237              	.LVL238:
 3238 0014 0346     		mov	r3, r0
1747:Core/Src/main_unique.c ****              (unsigned long)HAL_RCC_GetSysClockFreq());
 3239              		.loc 1 1747 5 discriminator 1 view .LVU672
 3240 0016 02AC     		add	r4, sp, #8
 3241 0018 294A     		ldr	r2, .L281+8
 3242 001a 4021     		movs	r1, #64
 3243 001c 2046     		mov	r0, r4
ARM GAS  /tmp/ccjBgtoi.s 			page 99


 3244 001e FFF7FEFF 		bl	snprintf
 3245              	.LVL239:
1749:Core/Src/main_unique.c ****     uart_send_line(buf);
 3246              		.loc 1 1749 5 is_stmt 1 view .LVU673
 3247 0022 2046     		mov	r0, r4
 3248 0024 FFF7FEFF 		bl	uart_send_line
 3249              	.LVL240:
1750:Core/Src/main_unique.c **** 
1751:Core/Src/main_unique.c ****     snprintf(buf, sizeof(buf), " MCO1 (PA8)    : %s", system_clock_mco_label());
 3250              		.loc 1 1751 5 view .LVU674
 3251 0028 FFF7FEFF 		bl	system_clock_mco_label
 3252              	.LVL241:
 3253 002c 0346     		mov	r3, r0
 3254              		.loc 1 1751 5 is_stmt 0 discriminator 1 view .LVU675
 3255 002e 254A     		ldr	r2, .L281+12
 3256 0030 4021     		movs	r1, #64
 3257 0032 2046     		mov	r0, r4
 3258 0034 FFF7FEFF 		bl	snprintf
 3259              	.LVL242:
1752:Core/Src/main_unique.c ****     uart_send_line(buf);
 3260              		.loc 1 1752 5 is_stmt 1 view .LVU676
 3261 0038 2046     		mov	r0, r4
 3262 003a FFF7FEFF 		bl	uart_send_line
 3263              	.LVL243:
1753:Core/Src/main_unique.c **** 
1754:Core/Src/main_unique.c ****     uart_send_line(system_clock_lse_ok()
 3264              		.loc 1 1754 5 view .LVU677
 3265              		.loc 1 1754 20 is_stmt 0 view .LVU678
 3266 003e FFF7FEFF 		bl	system_clock_lse_ok
 3267              	.LVL244:
 3268              		.loc 1 1754 5 discriminator 1 view .LVU679
 3269 0042 48B3     		cbz	r0, .L279
 3270              		.loc 1 1754 5 discriminator 2 view .LVU680
 3271 0044 2048     		ldr	r0, .L281+16
 3272              	.L276:
 3273              		.loc 1 1754 5 discriminator 4 view .LVU681
 3274 0046 FFF7FEFF 		bl	uart_send_line
 3275              	.LVL245:
1755:Core/Src/main_unique.c ****                    ? " Cristal LSE   : OK (32768 Hz)"
1756:Core/Src/main_unique.c ****                    : " Cristal LSE   : NO ARRANCA -> RTC sobre LSI");
1757:Core/Src/main_unique.c **** 
1758:Core/Src/main_unique.c ****     if (lcd_is_present()) {
 3276              		.loc 1 1758 5 is_stmt 1 view .LVU682
 3277              		.loc 1 1758 9 is_stmt 0 view .LVU683
 3278 004a FFF7FEFF 		bl	lcd_is_present
 3279              	.LVL246:
 3280              		.loc 1 1758 8 discriminator 1 view .LVU684
 3281 004e 28B3     		cbz	r0, .L277
1759:Core/Src/main_unique.c ****         snprintf(buf, sizeof(buf), " LCD I2C       : OK en 0x%02X, %lu fallos",
 3282              		.loc 1 1759 9 is_stmt 1 view .LVU685
1760:Core/Src/main_unique.c ****                  (unsigned)lcd_address(), (unsigned long)lcd_error_count());
 3283              		.loc 1 1760 28 is_stmt 0 view .LVU686
 3284 0050 FFF7FEFF 		bl	lcd_address
 3285              	.LVL247:
 3286 0054 0446     		mov	r4, r0
 3287              		.loc 1 1760 58 discriminator 1 view .LVU687
 3288 0056 FFF7FEFF 		bl	lcd_error_count
ARM GAS  /tmp/ccjBgtoi.s 			page 100


 3289              	.LVL248:
1759:Core/Src/main_unique.c ****         snprintf(buf, sizeof(buf), " LCD I2C       : OK en 0x%02X, %lu fallos",
 3290              		.loc 1 1759 9 discriminator 2 view .LVU688
 3291 005a 0090     		str	r0, [sp]
 3292 005c 2346     		mov	r3, r4
 3293 005e 1B4A     		ldr	r2, .L281+20
 3294 0060 4021     		movs	r1, #64
 3295 0062 02A8     		add	r0, sp, #8
 3296 0064 FFF7FEFF 		bl	snprintf
 3297              	.LVL249:
 3298              	.L278:
1761:Core/Src/main_unique.c ****     } else {
1762:Core/Src/main_unique.c ****         snprintf(buf, sizeof(buf), " LCD I2C       : NO DETECTADO");
1763:Core/Src/main_unique.c ****     }
1764:Core/Src/main_unique.c ****     uart_send_line(buf);
 3299              		.loc 1 1764 5 is_stmt 1 view .LVU689
 3300 0068 02AC     		add	r4, sp, #8
 3301 006a 2046     		mov	r0, r4
 3302 006c FFF7FEFF 		bl	uart_send_line
 3303              	.LVL250:
1765:Core/Src/main_unique.c **** 
1766:Core/Src/main_unique.c ****     snprintf(buf, sizeof(buf), " Joystick ADC  : X=%u  Y=%u",
 3304              		.loc 1 1766 5 view .LVU690
1767:Core/Src/main_unique.c ****              (unsigned)adc_joystick_raw_x(), (unsigned)adc_joystick_raw_y());
 3305              		.loc 1 1767 24 is_stmt 0 view .LVU691
 3306 0070 FFF7FEFF 		bl	adc_joystick_raw_x
 3307              	.LVL251:
 3308 0074 0546     		mov	r5, r0
 3309              		.loc 1 1767 56 discriminator 1 view .LVU692
 3310 0076 FFF7FEFF 		bl	adc_joystick_raw_y
 3311              	.LVL252:
1766:Core/Src/main_unique.c ****              (unsigned)adc_joystick_raw_x(), (unsigned)adc_joystick_raw_y());
 3312              		.loc 1 1766 5 discriminator 2 view .LVU693
 3313 007a 0090     		str	r0, [sp]
 3314 007c 2B46     		mov	r3, r5
 3315 007e 144A     		ldr	r2, .L281+24
 3316 0080 4021     		movs	r1, #64
 3317 0082 2046     		mov	r0, r4
 3318 0084 FFF7FEFF 		bl	snprintf
 3319              	.LVL253:
1768:Core/Src/main_unique.c ****     uart_send_line(buf);
 3320              		.loc 1 1768 5 is_stmt 1 view .LVU694
 3321 0088 2046     		mov	r0, r4
 3322 008a FFF7FEFF 		bl	uart_send_line
 3323              	.LVL254:
1769:Core/Src/main_unique.c ****     uart_send_line("-------------------------------");
 3324              		.loc 1 1769 5 view .LVU695
 3325 008e 1148     		ldr	r0, .L281+28
 3326 0090 FFF7FEFF 		bl	uart_send_line
 3327              	.LVL255:
1770:Core/Src/main_unique.c **** }
 3328              		.loc 1 1770 1 is_stmt 0 view .LVU696
 3329 0094 13B0     		add	sp, sp, #76
 3330              	.LCFI59:
 3331              		.cfi_remember_state
 3332              		.cfi_def_cfa_offset 12
 3333              		@ sp needed
ARM GAS  /tmp/ccjBgtoi.s 			page 101


 3334 0096 30BD     		pop	{r4, r5, pc}
 3335              	.L279:
 3336              	.LCFI60:
 3337              		.cfi_restore_state
1754:Core/Src/main_unique.c ****                    ? " Cristal LSE   : OK (32768 Hz)"
 3338              		.loc 1 1754 5 discriminator 3 view .LVU697
 3339 0098 0F48     		ldr	r0, .L281+32
 3340 009a D4E7     		b	.L276
 3341              	.L277:
1762:Core/Src/main_unique.c ****     }
 3342              		.loc 1 1762 9 is_stmt 1 view .LVU698
 3343 009c 0DF1080C 		add	ip, sp, #8
 3344 00a0 0E4C     		ldr	r4, .L281+36
 3345 00a2 0FCC     		ldmia	r4!, {r0, r1, r2, r3}
 3346 00a4 ACE80F00 		stmia	ip!, {r0, r1, r2, r3}
 3347 00a8 94E80F00 		ldm	r4, {r0, r1, r2, r3}
 3348 00ac ACE80700 		stmia	ip!, {r0, r1, r2}
 3349 00b0 ACF80030 		strh	r3, [ip]	@ movhi
 3350 00b4 D8E7     		b	.L278
 3351              	.L282:
 3352 00b6 00BF     		.align	2
 3353              	.L281:
 3354 00b8 00000000 		.word	.LC7
 3355 00bc 50000000 		.word	.LC34
 3356 00c0 70000000 		.word	.LC35
 3357 00c4 88000000 		.word	.LC36
 3358 00c8 00000000 		.word	.LC32
 3359 00cc 9C000000 		.word	.LC37
 3360 00d0 E8000000 		.word	.LC39
 3361 00d4 04010000 		.word	.LC40
 3362 00d8 20000000 		.word	.LC33
 3363 00dc C8000000 		.word	.LC38
 3364              		.cfi_endproc
 3365              	.LFE333:
 3367              		.section	.text.fsm_post_event,"ax",%progbits
 3368              		.align	1
 3369              		.global	fsm_post_event
 3370              		.syntax unified
 3371              		.thumb
 3372              		.thumb_func
 3374              	fsm_post_event:
 3375              	.LVL256:
 3376              	.LFB320:
1486:Core/Src/main_unique.c ****     uint8_t next = (uint8_t)((s_evq_head + 1U) % EVQ_SIZE);
 3377              		.loc 1 1486 1 view -0
 3378              		.cfi_startproc
 3379              		@ args = 0, pretend = 0, frame = 0
 3380              		@ frame_needed = 0, uses_anonymous_args = 0
 3381              		@ link register save eliminated.
1487:Core/Src/main_unique.c **** 
 3382              		.loc 1 1487 5 view .LVU700
1487:Core/Src/main_unique.c **** 
 3383              		.loc 1 1487 20 is_stmt 0 view .LVU701
 3384 0000 084B     		ldr	r3, .L285
 3385 0002 1B78     		ldrb	r3, [r3]	@ zero_extendqisi2
 3386 0004 0133     		adds	r3, r3, #1
1487:Core/Src/main_unique.c **** 
ARM GAS  /tmp/ccjBgtoi.s 			page 102


 3387              		.loc 1 1487 13 view .LVU702
 3388 0006 03F01F03 		and	r3, r3, #31
 3389              	.LVL257:
1489:Core/Src/main_unique.c ****         return;   /* cola llena */
 3390              		.loc 1 1489 5 is_stmt 1 view .LVU703
1489:Core/Src/main_unique.c ****         return;   /* cola llena */
 3391              		.loc 1 1489 14 is_stmt 0 view .LVU704
 3392 000a 074A     		ldr	r2, .L285+4
 3393 000c 1278     		ldrb	r2, [r2]	@ zero_extendqisi2
1489:Core/Src/main_unique.c ****         return;   /* cola llena */
 3394              		.loc 1 1489 8 view .LVU705
 3395 000e 9A42     		cmp	r2, r3
 3396 0010 06D0     		beq	.L283
1492:Core/Src/main_unique.c ****     s_evq_head = next;
 3397              		.loc 1 1492 5 is_stmt 1 view .LVU706
1492:Core/Src/main_unique.c ****     s_evq_head = next;
 3398              		.loc 1 1492 10 is_stmt 0 view .LVU707
 3399 0012 044A     		ldr	r2, .L285
 3400 0014 1178     		ldrb	r1, [r2]	@ zero_extendqisi2
1492:Core/Src/main_unique.c ****     s_evq_head = next;
 3401              		.loc 1 1492 23 view .LVU708
 3402 0016 DFF814C0 		ldr	ip, .L285+8
 3403 001a 0CF80100 		strb	r0, [ip, r1]
1493:Core/Src/main_unique.c **** }
 3404              		.loc 1 1493 5 is_stmt 1 view .LVU709
1493:Core/Src/main_unique.c **** }
 3405              		.loc 1 1493 16 is_stmt 0 view .LVU710
 3406 001e 1370     		strb	r3, [r2]
 3407              	.L283:
1494:Core/Src/main_unique.c **** 
 3408              		.loc 1 1494 1 view .LVU711
 3409 0020 7047     		bx	lr
 3410              	.L286:
 3411 0022 00BF     		.align	2
 3412              	.L285:
 3413 0024 00000000 		.word	s_evq_head
 3414 0028 00000000 		.word	s_evq_tail
 3415 002c 00000000 		.word	s_evq
 3416              		.cfi_endproc
 3417              	.LFE320:
 3419              		.section	.text.HAL_UART_RxCpltCallback,"ax",%progbits
 3420              		.align	1
 3421              		.global	HAL_UART_RxCpltCallback
 3422              		.syntax unified
 3423              		.thumb
 3424              		.thumb_func
 3426              	HAL_UART_RxCpltCallback:
 3427              	.LVL258:
 3428              	.LFB282:
 618:Core/Src/main_unique.c ****     uint8_t c;
 3429              		.loc 1 618 1 is_stmt 1 view -0
 3430              		.cfi_startproc
 3431              		@ args = 0, pretend = 0, frame = 0
 3432              		@ frame_needed = 0, uses_anonymous_args = 0
 618:Core/Src/main_unique.c ****     uint8_t c;
 3433              		.loc 1 618 1 is_stmt 0 view .LVU713
 3434 0000 08B5     		push	{r3, lr}
ARM GAS  /tmp/ccjBgtoi.s 			page 103


 3435              	.LCFI61:
 3436              		.cfi_def_cfa_offset 8
 3437              		.cfi_offset 3, -8
 3438              		.cfi_offset 14, -4
 619:Core/Src/main_unique.c **** 
 3439              		.loc 1 619 5 is_stmt 1 view .LVU714
 621:Core/Src/main_unique.c ****         return;
 3440              		.loc 1 621 5 view .LVU715
 621:Core/Src/main_unique.c ****         return;
 3441              		.loc 1 621 14 is_stmt 0 view .LVU716
 3442 0002 0268     		ldr	r2, [r0]
 621:Core/Src/main_unique.c ****         return;
 3443              		.loc 1 621 8 view .LVU717
 3444 0004 314B     		ldr	r3, .L305
 3445 0006 9A42     		cmp	r2, r3
 3446 0008 00D0     		beq	.L304
 3447              	.LVL259:
 3448              	.L287:
 646:Core/Src/main_unique.c **** 
 3449              		.loc 1 646 1 view .LVU718
 3450 000a 08BD     		pop	{r3, pc}
 3451              	.LVL260:
 3452              	.L304:
 625:Core/Src/main_unique.c **** 
 3453              		.loc 1 625 5 is_stmt 1 view .LVU719
 625:Core/Src/main_unique.c **** 
 3454              		.loc 1 625 7 is_stmt 0 view .LVU720
 3455 000c 304B     		ldr	r3, .L305+4
 3456 000e 1B78     		ldrb	r3, [r3]	@ zero_extendqisi2
 3457              	.LVL261:
 627:Core/Src/main_unique.c ****     case 'c': case 'C': fsm_post_event(EV_CMD_CLEAR);   break;
 3458              		.loc 1 627 5 is_stmt 1 view .LVU721
 3459 0010 2B3B     		subs	r3, r3, #43
 3460              	.LVL262:
 627:Core/Src/main_unique.c ****     case 'c': case 'C': fsm_post_event(EV_CMD_CLEAR);   break;
 3461              		.loc 1 627 5 is_stmt 0 view .LVU722
 3462 0012 4E2B     		cmp	r3, #78
 3463 0014 2CD8     		bhi	.L289
 3464 0016 DFE803F0 		tbb	[pc, r3]
 3465              	.L291:
 3466 001a 39       		.byte	(.L301-.L291)/2
 3467 001b 2B       		.byte	(.L289-.L291)/2
 3468 001c 3D       		.byte	(.L300-.L291)/2
 3469 001d 2B       		.byte	(.L289-.L291)/2
 3470 001e 2B       		.byte	(.L289-.L291)/2
 3471 001f 2B       		.byte	(.L289-.L291)/2
 3472 0020 2B       		.byte	(.L289-.L291)/2
 3473 0021 2B       		.byte	(.L289-.L291)/2
 3474 0022 2B       		.byte	(.L289-.L291)/2
 3475 0023 2B       		.byte	(.L289-.L291)/2
 3476 0024 2B       		.byte	(.L289-.L291)/2
 3477 0025 2B       		.byte	(.L289-.L291)/2
 3478 0026 2B       		.byte	(.L289-.L291)/2
 3479 0027 2B       		.byte	(.L289-.L291)/2
 3480 0028 2B       		.byte	(.L289-.L291)/2
 3481 0029 2B       		.byte	(.L289-.L291)/2
 3482 002a 2B       		.byte	(.L289-.L291)/2
ARM GAS  /tmp/ccjBgtoi.s 			page 104


 3483 002b 2B       		.byte	(.L289-.L291)/2
 3484 002c 2B       		.byte	(.L289-.L291)/2
 3485 002d 2B       		.byte	(.L289-.L291)/2
 3486 002e 55       		.byte	(.L299-.L291)/2
 3487 002f 2B       		.byte	(.L289-.L291)/2
 3488 0030 2B       		.byte	(.L289-.L291)/2
 3489 0031 2B       		.byte	(.L289-.L291)/2
 3490 0032 28       		.byte	(.L298-.L291)/2
 3491 0033 4D       		.byte	(.L297-.L291)/2
 3492 0034 2B       		.byte	(.L289-.L291)/2
 3493 0035 2B       		.byte	(.L289-.L291)/2
 3494 0036 2B       		.byte	(.L289-.L291)/2
 3495 0037 41       		.byte	(.L296-.L291)/2
 3496 0038 2B       		.byte	(.L289-.L291)/2
 3497 0039 2B       		.byte	(.L289-.L291)/2
 3498 003a 2B       		.byte	(.L289-.L291)/2
 3499 003b 45       		.byte	(.L295-.L291)/2
 3500 003c 2B       		.byte	(.L289-.L291)/2
 3501 003d 2B       		.byte	(.L289-.L291)/2
 3502 003e 2B       		.byte	(.L289-.L291)/2
 3503 003f 49       		.byte	(.L294-.L291)/2
 3504 0040 2B       		.byte	(.L289-.L291)/2
 3505 0041 2B       		.byte	(.L289-.L291)/2
 3506 0042 51       		.byte	(.L293-.L291)/2
 3507 0043 2B       		.byte	(.L289-.L291)/2
 3508 0044 2B       		.byte	(.L289-.L291)/2
 3509 0045 2B       		.byte	(.L289-.L291)/2
 3510 0046 2B       		.byte	(.L289-.L291)/2
 3511 0047 31       		.byte	(.L292-.L291)/2
 3512 0048 35       		.byte	(.L290-.L291)/2
 3513 0049 2B       		.byte	(.L289-.L291)/2
 3514 004a 2B       		.byte	(.L289-.L291)/2
 3515 004b 2B       		.byte	(.L289-.L291)/2
 3516 004c 2B       		.byte	(.L289-.L291)/2
 3517 004d 2B       		.byte	(.L289-.L291)/2
 3518 004e 2B       		.byte	(.L289-.L291)/2
 3519 004f 2B       		.byte	(.L289-.L291)/2
 3520 0050 2B       		.byte	(.L289-.L291)/2
 3521 0051 2B       		.byte	(.L289-.L291)/2
 3522 0052 28       		.byte	(.L298-.L291)/2
 3523 0053 4D       		.byte	(.L297-.L291)/2
 3524 0054 2B       		.byte	(.L289-.L291)/2
 3525 0055 2B       		.byte	(.L289-.L291)/2
 3526 0056 2B       		.byte	(.L289-.L291)/2
 3527 0057 41       		.byte	(.L296-.L291)/2
 3528 0058 2B       		.byte	(.L289-.L291)/2
 3529 0059 2B       		.byte	(.L289-.L291)/2
 3530 005a 2B       		.byte	(.L289-.L291)/2
 3531 005b 45       		.byte	(.L295-.L291)/2
 3532 005c 2B       		.byte	(.L289-.L291)/2
 3533 005d 2B       		.byte	(.L289-.L291)/2
 3534 005e 2B       		.byte	(.L289-.L291)/2
 3535 005f 49       		.byte	(.L294-.L291)/2
 3536 0060 2B       		.byte	(.L289-.L291)/2
 3537 0061 2B       		.byte	(.L289-.L291)/2
 3538 0062 51       		.byte	(.L293-.L291)/2
 3539 0063 2B       		.byte	(.L289-.L291)/2
ARM GAS  /tmp/ccjBgtoi.s 			page 105


 3540 0064 2B       		.byte	(.L289-.L291)/2
 3541 0065 2B       		.byte	(.L289-.L291)/2
 3542 0066 2B       		.byte	(.L289-.L291)/2
 3543 0067 31       		.byte	(.L292-.L291)/2
 3544 0068 35       		.byte	(.L290-.L291)/2
 3545 0069 00       		.p2align 1
 3546              	.L298:
 628:Core/Src/main_unique.c ****     case 'x': case 'X': fsm_post_event(EV_CMD_MODE_X);  break;
 3547              		.loc 1 628 25 is_stmt 1 view .LVU723
 3548 006a 0120     		movs	r0, #1
 3549              	.LVL263:
 628:Core/Src/main_unique.c ****     case 'x': case 'X': fsm_post_event(EV_CMD_MODE_X);  break;
 3550              		.loc 1 628 25 is_stmt 0 view .LVU724
 3551 006c FFF7FEFF 		bl	fsm_post_event
 3552              	.LVL264:
 628:Core/Src/main_unique.c ****     case 'x': case 'X': fsm_post_event(EV_CMD_MODE_X);  break;
 3553              		.loc 1 628 57 is_stmt 1 discriminator 1 view .LVU725
 3554              	.L289:
 645:Core/Src/main_unique.c **** }
 3555              		.loc 1 645 5 view .LVU726
 3556 0070 0122     		movs	r2, #1
 3557 0072 1749     		ldr	r1, .L305+4
 3558 0074 1748     		ldr	r0, .L305+8
 3559 0076 FFF7FEFF 		bl	HAL_UART_Receive_IT
 3560              	.LVL265:
 3561 007a C6E7     		b	.L287
 3562              	.LVL266:
 3563              	.L292:
 629:Core/Src/main_unique.c ****     case 'y': case 'Y': fsm_post_event(EV_CMD_MODE_Y);  break;
 3564              		.loc 1 629 25 view .LVU727
 3565 007c 0220     		movs	r0, #2
 3566              	.LVL267:
 629:Core/Src/main_unique.c ****     case 'y': case 'Y': fsm_post_event(EV_CMD_MODE_Y);  break;
 3567              		.loc 1 629 25 is_stmt 0 view .LVU728
 3568 007e FFF7FEFF 		bl	fsm_post_event
 3569              	.LVL268:
 629:Core/Src/main_unique.c ****     case 'y': case 'Y': fsm_post_event(EV_CMD_MODE_Y);  break;
 3570              		.loc 1 629 57 is_stmt 1 discriminator 1 view .LVU729
 3571 0082 F5E7     		b	.L289
 3572              	.LVL269:
 3573              	.L290:
 630:Core/Src/main_unique.c ****     case '+':           fsm_post_event(EV_CMD_INC);     break;
 3574              		.loc 1 630 25 view .LVU730
 3575 0084 0320     		movs	r0, #3
 3576              	.LVL270:
 630:Core/Src/main_unique.c ****     case '+':           fsm_post_event(EV_CMD_INC);     break;
 3577              		.loc 1 630 25 is_stmt 0 view .LVU731
 3578 0086 FFF7FEFF 		bl	fsm_post_event
 3579              	.LVL271:
 630:Core/Src/main_unique.c ****     case '+':           fsm_post_event(EV_CMD_INC);     break;
 3580              		.loc 1 630 57 is_stmt 1 discriminator 1 view .LVU732
 3581 008a F1E7     		b	.L289
 3582              	.LVL272:
 3583              	.L301:
 631:Core/Src/main_unique.c ****     case '-':           fsm_post_event(EV_CMD_DEC);     break;
 3584              		.loc 1 631 25 view .LVU733
 3585 008c 0420     		movs	r0, #4
ARM GAS  /tmp/ccjBgtoi.s 			page 106


 3586              	.LVL273:
 631:Core/Src/main_unique.c ****     case '-':           fsm_post_event(EV_CMD_DEC);     break;
 3587              		.loc 1 631 25 is_stmt 0 view .LVU734
 3588 008e FFF7FEFF 		bl	fsm_post_event
 3589              	.LVL274:
 631:Core/Src/main_unique.c ****     case '-':           fsm_post_event(EV_CMD_DEC);     break;
 3590              		.loc 1 631 57 is_stmt 1 discriminator 1 view .LVU735
 3591 0092 EDE7     		b	.L289
 3592              	.LVL275:
 3593              	.L300:
 632:Core/Src/main_unique.c ****     case 'h': case 'H': fsm_post_event(EV_CMD_MCO_HSI); break;
 3594              		.loc 1 632 25 view .LVU736
 3595 0094 0520     		movs	r0, #5
 3596              	.LVL276:
 632:Core/Src/main_unique.c ****     case 'h': case 'H': fsm_post_event(EV_CMD_MCO_HSI); break;
 3597              		.loc 1 632 25 is_stmt 0 view .LVU737
 3598 0096 FFF7FEFF 		bl	fsm_post_event
 3599              	.LVL277:
 632:Core/Src/main_unique.c ****     case 'h': case 'H': fsm_post_event(EV_CMD_MCO_HSI); break;
 3600              		.loc 1 632 57 is_stmt 1 discriminator 1 view .LVU738
 3601 009a E9E7     		b	.L289
 3602              	.LVL278:
 3603              	.L296:
 633:Core/Src/main_unique.c ****     case 'l': case 'L': fsm_post_event(EV_CMD_MCO_LSE); break;
 3604              		.loc 1 633 25 view .LVU739
 3605 009c 0620     		movs	r0, #6
 3606              	.LVL279:
 633:Core/Src/main_unique.c ****     case 'l': case 'L': fsm_post_event(EV_CMD_MCO_LSE); break;
 3607              		.loc 1 633 25 is_stmt 0 view .LVU740
 3608 009e FFF7FEFF 		bl	fsm_post_event
 3609              	.LVL280:
 633:Core/Src/main_unique.c ****     case 'l': case 'L': fsm_post_event(EV_CMD_MCO_LSE); break;
 3610              		.loc 1 633 57 is_stmt 1 discriminator 1 view .LVU741
 3611 00a2 E5E7     		b	.L289
 3612              	.LVL281:
 3613              	.L295:
 634:Core/Src/main_unique.c ****     case 'p': case 'P': fsm_post_event(EV_CMD_MCO_PLL); break;
 3614              		.loc 1 634 25 view .LVU742
 3615 00a4 0720     		movs	r0, #7
 3616              	.LVL282:
 634:Core/Src/main_unique.c ****     case 'p': case 'P': fsm_post_event(EV_CMD_MCO_PLL); break;
 3617              		.loc 1 634 25 is_stmt 0 view .LVU743
 3618 00a6 FFF7FEFF 		bl	fsm_post_event
 3619              	.LVL283:
 634:Core/Src/main_unique.c ****     case 'p': case 'P': fsm_post_event(EV_CMD_MCO_PLL); break;
 3620              		.loc 1 634 57 is_stmt 1 discriminator 1 view .LVU744
 3621 00aa E1E7     		b	.L289
 3622              	.LVL284:
 3623              	.L294:
 635:Core/Src/main_unique.c ****     case 'd': case 'D': fsm_post_event(EV_CMD_DIAG);    break;
 3624              		.loc 1 635 25 view .LVU745
 3625 00ac 0820     		movs	r0, #8
 3626              	.LVL285:
 635:Core/Src/main_unique.c ****     case 'd': case 'D': fsm_post_event(EV_CMD_DIAG);    break;
 3627              		.loc 1 635 25 is_stmt 0 view .LVU746
 3628 00ae FFF7FEFF 		bl	fsm_post_event
 3629              	.LVL286:
ARM GAS  /tmp/ccjBgtoi.s 			page 107


 635:Core/Src/main_unique.c ****     case 'd': case 'D': fsm_post_event(EV_CMD_DIAG);    break;
 3630              		.loc 1 635 57 is_stmt 1 discriminator 1 view .LVU747
 3631 00b2 DDE7     		b	.L289
 3632              	.LVL287:
 3633              	.L297:
 636:Core/Src/main_unique.c ****     case 's': case 'S': fsm_post_event(EV_CMD_SCAN);    break;
 3634              		.loc 1 636 25 view .LVU748
 3635 00b4 0A20     		movs	r0, #10
 3636              	.LVL288:
 636:Core/Src/main_unique.c ****     case 's': case 'S': fsm_post_event(EV_CMD_SCAN);    break;
 3637              		.loc 1 636 25 is_stmt 0 view .LVU749
 3638 00b6 FFF7FEFF 		bl	fsm_post_event
 3639              	.LVL289:
 636:Core/Src/main_unique.c ****     case 's': case 'S': fsm_post_event(EV_CMD_SCAN);    break;
 3640              		.loc 1 636 57 is_stmt 1 discriminator 1 view .LVU750
 3641 00ba D9E7     		b	.L289
 3642              	.LVL290:
 3643              	.L293:
 637:Core/Src/main_unique.c ****     case '?':           fsm_post_event(EV_CMD_HELP);    break;
 3644              		.loc 1 637 25 view .LVU751
 3645 00bc 0B20     		movs	r0, #11
 3646              	.LVL291:
 637:Core/Src/main_unique.c ****     case '?':           fsm_post_event(EV_CMD_HELP);    break;
 3647              		.loc 1 637 25 is_stmt 0 view .LVU752
 3648 00be FFF7FEFF 		bl	fsm_post_event
 3649              	.LVL292:
 637:Core/Src/main_unique.c ****     case '?':           fsm_post_event(EV_CMD_HELP);    break;
 3650              		.loc 1 637 57 is_stmt 1 discriminator 1 view .LVU753
 3651 00c2 D5E7     		b	.L289
 3652              	.LVL293:
 3653              	.L299:
 638:Core/Src/main_unique.c ****     default:            /* cualquier otro caracter se ignora */    break;
 3654              		.loc 1 638 25 view .LVU754
 3655 00c4 0920     		movs	r0, #9
 3656              	.LVL294:
 638:Core/Src/main_unique.c ****     default:            /* cualquier otro caracter se ignora */    break;
 3657              		.loc 1 638 25 is_stmt 0 view .LVU755
 3658 00c6 FFF7FEFF 		bl	fsm_post_event
 3659              	.LVL295:
 638:Core/Src/main_unique.c ****     default:            /* cualquier otro caracter se ignora */    break;
 3660              		.loc 1 638 57 is_stmt 1 discriminator 1 view .LVU756
 3661 00ca D1E7     		b	.L289
 3662              	.L306:
 3663              		.align	2
 3664              	.L305:
 3665 00cc 00440040 		.word	1073759232
 3666 00d0 00000000 		.word	s_rx_byte
 3667 00d4 00000000 		.word	huart2
 3668              		.cfi_endproc
 3669              	.LFE282:
 3671              		.section	.text.fsm_init,"ax",%progbits
 3672              		.align	1
 3673              		.global	fsm_init
 3674              		.syntax unified
 3675              		.thumb
 3676              		.thumb_func
 3678              	fsm_init:
ARM GAS  /tmp/ccjBgtoi.s 			page 108


 3679              	.LFB334:
1771:Core/Src/main_unique.c **** 
1772:Core/Src/main_unique.c **** /* ----------------------- Interfaz publica -------------------------------- */
1773:Core/Src/main_unique.c **** 
1774:Core/Src/main_unique.c **** void fsm_init(void)
1775:Core/Src/main_unique.c **** {
 3680              		.loc 1 1775 1 view -0
 3681              		.cfi_startproc
 3682              		@ args = 0, pretend = 0, frame = 0
 3683              		@ frame_needed = 0, uses_anonymous_args = 0
 3684 0000 08B5     		push	{r3, lr}
 3685              	.LCFI62:
 3686              		.cfi_def_cfa_offset 8
 3687              		.cfi_offset 3, -8
 3688              		.cfi_offset 14, -4
1776:Core/Src/main_unique.c ****     s_state   = ST_IDLE;
 3689              		.loc 1 1776 5 view .LVU758
 3690              		.loc 1 1776 15 is_stmt 0 view .LVU759
 3691 0002 0123     		movs	r3, #1
 3692 0004 0C4A     		ldr	r2, .L309
 3693 0006 1370     		strb	r3, [r2]
1777:Core/Src/main_unique.c ****     s_prev    = ST_IDLE;
 3694              		.loc 1 1777 5 is_stmt 1 view .LVU760
 3695              		.loc 1 1777 15 is_stmt 0 view .LVU761
 3696 0008 0C4A     		ldr	r2, .L309+4
 3697 000a 1370     		strb	r3, [r2]
1778:Core/Src/main_unique.c ****     s_coord_x = 0;
 3698              		.loc 1 1778 5 is_stmt 1 view .LVU762
 3699              		.loc 1 1778 15 is_stmt 0 view .LVU763
 3700 000c 0023     		movs	r3, #0
 3701 000e 0C4A     		ldr	r2, .L309+8
 3702 0010 1380     		strh	r3, [r2]	@ movhi
1779:Core/Src/main_unique.c ****     s_coord_y = 0;
 3703              		.loc 1 1779 5 is_stmt 1 view .LVU764
 3704              		.loc 1 1779 15 is_stmt 0 view .LVU765
 3705 0012 0C4A     		ldr	r2, .L309+12
 3706 0014 1380     		strh	r3, [r2]	@ movhi
1780:Core/Src/main_unique.c **** 
1781:Core/Src/main_unique.c ****     set_line2(TXT_BANNER);
 3707              		.loc 1 1781 5 is_stmt 1 view .LVU766
 3708 0016 0C48     		ldr	r0, .L309+16
 3709 0018 FFF7FEFF 		bl	set_line2
 3710              	.LVL296:
1782:Core/Src/main_unique.c **** 
1783:Core/Src/main_unique.c ****     lcd_clear();
 3711              		.loc 1 1783 5 view .LVU767
 3712 001c FFF7FEFF 		bl	lcd_clear
 3713              	.LVL297:
1784:Core/Src/main_unique.c ****     render_time();
 3714              		.loc 1 1784 5 view .LVU768
 3715 0020 FFF7FEFF 		bl	render_time
 3716              	.LVL298:
1785:Core/Src/main_unique.c ****     render_line2();
 3717              		.loc 1 1785 5 view .LVU769
 3718 0024 FFF7FEFF 		bl	render_line2
 3719              	.LVL299:
1786:Core/Src/main_unique.c ****     render_coords();
ARM GAS  /tmp/ccjBgtoi.s 			page 109


 3720              		.loc 1 1786 5 view .LVU770
 3721 0028 FFF7FEFF 		bl	render_coords
 3722              	.LVL300:
1787:Core/Src/main_unique.c **** 
1788:Core/Src/main_unique.c ****     print_help();
 3723              		.loc 1 1788 5 view .LVU771
 3724 002c FFF7FEFF 		bl	print_help
 3725              	.LVL301:
1789:Core/Src/main_unique.c ****     print_diagnostics();
 3726              		.loc 1 1789 5 view .LVU772
 3727 0030 FFF7FEFF 		bl	print_diagnostics
 3728              	.LVL302:
1790:Core/Src/main_unique.c **** }
 3729              		.loc 1 1790 1 is_stmt 0 view .LVU773
 3730 0034 08BD     		pop	{r3, pc}
 3731              	.L310:
 3732 0036 00BF     		.align	2
 3733              	.L309:
 3734 0038 00000000 		.word	s_state
 3735 003c 00000000 		.word	s_prev
 3736 0040 00000000 		.word	s_coord_x
 3737 0044 00000000 		.word	s_coord_y
 3738 0048 00000000 		.word	TXT_BANNER
 3739              		.cfi_endproc
 3740              	.LFE334:
 3742              		.section	.text.fsm_get_state,"ax",%progbits
 3743              		.align	1
 3744              		.global	fsm_get_state
 3745              		.syntax unified
 3746              		.thumb
 3747              		.thumb_func
 3749              	fsm_get_state:
 3750              	.LFB335:
1791:Core/Src/main_unique.c **** 
1792:Core/Src/main_unique.c **** fsm_state_t fsm_get_state(void)
1793:Core/Src/main_unique.c **** {
 3751              		.loc 1 1793 1 is_stmt 1 view -0
 3752              		.cfi_startproc
 3753              		@ args = 0, pretend = 0, frame = 0
 3754              		@ frame_needed = 0, uses_anonymous_args = 0
 3755              		@ link register save eliminated.
1794:Core/Src/main_unique.c ****     return s_state;
 3756              		.loc 1 1794 5 view .LVU775
1795:Core/Src/main_unique.c **** }
 3757              		.loc 1 1795 1 is_stmt 0 view .LVU776
 3758 0000 014B     		ldr	r3, .L312
 3759 0002 1878     		ldrb	r0, [r3]	@ zero_extendqisi2
 3760 0004 7047     		bx	lr
 3761              	.L313:
 3762 0006 00BF     		.align	2
 3763              	.L312:
 3764 0008 00000000 		.word	s_state
 3765              		.cfi_endproc
 3766              	.LFE335:
 3768              		.section	.rodata.fsm_run.str1.4,"aMS",%progbits,1
 3769              		.align	2
 3770              	.LC41:
ARM GAS  /tmp/ccjBgtoi.s 			page 110


 3771 0000 4F4B3A20 		.ascii	"OK: coordenadas a cero\000"
 3771      636F6F72 
 3771      64656E61 
 3771      64617320 
 3771      61206365 
 3772 0017 00       		.align	2
 3773              	.LC42:
 3774 0018 4F4B3A20 		.ascii	"OK: modo X\000"
 3774      6D6F646F 
 3774      205800
 3775 0023 00       		.align	2
 3776              	.LC43:
 3777 0024 4F4B3A20 		.ascii	"OK: modo Y\000"
 3777      6D6F646F 
 3777      205900
 3778 002f 00       		.align	2
 3779              	.LC44:
 3780 0030 4F4B3A20 		.ascii	"OK: MCO1 = HSI 16 MHz (prescaler /1)\000"
 3780      4D434F31 
 3780      203D2048 
 3780      53492031 
 3780      36204D48 
 3781 0055 000000   		.align	2
 3782              	.LC45:
 3783 0058 4F4B3A20 		.ascii	"OK: MCO1 = LSE 32768 Hz (prescaler /1)\000"
 3783      4D434F31 
 3783      203D204C 
 3783      53452033 
 3783      32373638 
 3784 007f 00       		.align	2
 3785              	.LC46:
 3786 0080 4F4B3A20 		.ascii	"OK: MCO1 = PLL 100 MHz / 5 = 20 MHz\000"
 3786      4D434F31 
 3786      203D2050 
 3786      4C4C2031 
 3786      3030204D 
 3787              		.align	2
 3788              	.LC47:
 3789 00a4 53573A20 		.ascii	"SW: cambio de modo\000"
 3789      63616D62 
 3789      696F2064 
 3789      65206D6F 
 3789      646F00
 3790              		.section	.text.fsm_run,"ax",%progbits
 3791              		.align	1
 3792              		.global	fsm_run
 3793              		.syntax unified
 3794              		.thumb
 3795              		.thumb_func
 3797              	fsm_run:
 3798              	.LFB336:
1796:Core/Src/main_unique.c **** 
1797:Core/Src/main_unique.c **** /*
1798:Core/Src/main_unique.c ****  * fsm_run
1799:Core/Src/main_unique.c ****  * Procesa todos los eventos pendientes. Se invoca sin cesar desde main().
1800:Core/Src/main_unique.c ****  */
1801:Core/Src/main_unique.c **** void fsm_run(void)
ARM GAS  /tmp/ccjBgtoi.s 			page 111


1802:Core/Src/main_unique.c **** {
 3799              		.loc 1 1802 1 is_stmt 1 view -0
 3800              		.cfi_startproc
 3801              		@ args = 0, pretend = 0, frame = 0
 3802              		@ frame_needed = 0, uses_anonymous_args = 0
 3803 0000 08B5     		push	{r3, lr}
 3804              	.LCFI63:
 3805              		.cfi_def_cfa_offset 8
 3806              		.cfi_offset 3, -8
 3807              		.cfi_offset 14, -4
1803:Core/Src/main_unique.c ****     fsm_event_t ev;
 3808              		.loc 1 1803 5 view .LVU778
1804:Core/Src/main_unique.c **** 
1805:Core/Src/main_unique.c ****     /* El despertador del RTC deja una bandera en lugar de un evento para no
1806:Core/Src/main_unique.c ****        depender del tamano de la cola si el bucle principal se retrasa. */
1807:Core/Src/main_unique.c ****     if (g_rtc_second_flag) {
 3809              		.loc 1 1807 5 view .LVU779
 3810              		.loc 1 1807 9 is_stmt 0 view .LVU780
 3811 0002 5F4B     		ldr	r3, .L345
 3812 0004 1B78     		ldrb	r3, [r3]	@ zero_extendqisi2
 3813              		.loc 1 1807 8 view .LVU781
 3814 0006 83B1     		cbz	r3, .L316
1808:Core/Src/main_unique.c ****         g_rtc_second_flag = 0U;
 3815              		.loc 1 1808 9 is_stmt 1 view .LVU782
 3816              		.loc 1 1808 27 is_stmt 0 view .LVU783
 3817 0008 5D4B     		ldr	r3, .L345
 3818 000a 0022     		movs	r2, #0
 3819 000c 1A70     		strb	r2, [r3]
1809:Core/Src/main_unique.c ****         fsm_post_event(EV_SECOND);
 3820              		.loc 1 1809 9 is_stmt 1 view .LVU784
 3821 000e 0E20     		movs	r0, #14
 3822 0010 FFF7FEFF 		bl	fsm_post_event
 3823              	.LVL303:
 3824 0014 09E0     		b	.L316
 3825              	.LVL304:
 3826              	.L331:
1810:Core/Src/main_unique.c ****     }
1811:Core/Src/main_unique.c **** 
1812:Core/Src/main_unique.c ****     while ((ev = fsm_get_event()) != EV_NONE) {
1813:Core/Src/main_unique.c **** 
1814:Core/Src/main_unique.c ****         switch (ev) {
1815:Core/Src/main_unique.c **** 
1816:Core/Src/main_unique.c ****         /* ---------- Comandos de coordenada ---------- */
1817:Core/Src/main_unique.c ****         case EV_CMD_CLEAR:
1818:Core/Src/main_unique.c ****             s_coord_x = 0;
 3827              		.loc 1 1818 13 view .LVU785
 3828              		.loc 1 1818 23 is_stmt 0 view .LVU786
 3829 0016 0023     		movs	r3, #0
 3830 0018 5A4A     		ldr	r2, .L345+4
 3831 001a 1380     		strh	r3, [r2]	@ movhi
1819:Core/Src/main_unique.c ****             s_coord_y = 0;
 3832              		.loc 1 1819 13 is_stmt 1 view .LVU787
 3833              		.loc 1 1819 23 is_stmt 0 view .LVU788
 3834 001c 5A4A     		ldr	r2, .L345+8
 3835 001e 1380     		strh	r3, [r2]	@ movhi
1820:Core/Src/main_unique.c ****             render_coords();
 3836              		.loc 1 1820 13 is_stmt 1 view .LVU789
ARM GAS  /tmp/ccjBgtoi.s 			page 112


 3837 0020 FFF7FEFF 		bl	render_coords
 3838              	.LVL305:
1821:Core/Src/main_unique.c ****             uart_send_line("OK: coordenadas a cero");
 3839              		.loc 1 1821 13 view .LVU790
 3840 0024 5948     		ldr	r0, .L345+12
 3841 0026 FFF7FEFF 		bl	uart_send_line
 3842              	.LVL306:
1822:Core/Src/main_unique.c ****             break;
 3843              		.loc 1 1822 13 view .LVU791
 3844              	.L316:
1812:Core/Src/main_unique.c **** 
 3845              		.loc 1 1812 35 discriminator 1 view .LVU792
1812:Core/Src/main_unique.c **** 
 3846              		.loc 1 1812 18 is_stmt 0 discriminator 1 view .LVU793
 3847 002a FFF7FEFF 		bl	fsm_get_event
 3848              	.LVL307:
1812:Core/Src/main_unique.c **** 
 3849              		.loc 1 1812 35 discriminator 2 view .LVU794
 3850 002e 0346     		mov	r3, r0
 3851 0030 0028     		cmp	r0, #0
 3852 0032 00F0A380 		beq	.L341
1814:Core/Src/main_unique.c **** 
 3853              		.loc 1 1814 9 is_stmt 1 view .LVU795
 3854 0036 013B     		subs	r3, r3, #1
 3855 0038 0D2B     		cmp	r3, #13
 3856 003a F6D8     		bhi	.L316
 3857 003c 01A2     		adr	r2, .L318
 3858 003e 52F823F0 		ldr	pc, [r2, r3, lsl #2]
 3859 0042 00BF     		.p2align 2
 3860              	.L318:
 3861 0044 17000000 		.word	.L331+1
 3862 0048 7D000000 		.word	.L330+1
 3863 004c 8F000000 		.word	.L329+1
 3864 0050 A1000000 		.word	.L328+1
 3865 0054 A9000000 		.word	.L327+1
 3866 0058 B3000000 		.word	.L326+1
 3867 005c C1000000 		.word	.L325+1
 3868 0060 CF000000 		.word	.L324+1
 3869 0064 DD000000 		.word	.L323+1
 3870 0068 E3000000 		.word	.L322+1
 3871 006c E9000000 		.word	.L321+1
 3872 0070 EF000000 		.word	.L320+1
 3873 0074 1D010000 		.word	.L319+1
 3874 0078 77010000 		.word	.L317+1
 3875              		.p2align 1
 3876              	.L330:
1823:Core/Src/main_unique.c **** 
1824:Core/Src/main_unique.c ****         case EV_CMD_MODE_X:
1825:Core/Src/main_unique.c ****             s_state = ST_MODE_X;
 3877              		.loc 1 1825 13 view .LVU796
 3878              		.loc 1 1825 21 is_stmt 0 view .LVU797
 3879 007c 444B     		ldr	r3, .L345+16
 3880 007e 0222     		movs	r2, #2
 3881 0080 1A70     		strb	r2, [r3]
1826:Core/Src/main_unique.c ****             restore_line2();
 3882              		.loc 1 1826 13 is_stmt 1 view .LVU798
 3883 0082 FFF7FEFF 		bl	restore_line2
ARM GAS  /tmp/ccjBgtoi.s 			page 113


 3884              	.LVL308:
1827:Core/Src/main_unique.c ****             uart_send_line("OK: modo X");
 3885              		.loc 1 1827 13 view .LVU799
 3886 0086 4348     		ldr	r0, .L345+20
 3887 0088 FFF7FEFF 		bl	uart_send_line
 3888              	.LVL309:
1828:Core/Src/main_unique.c ****             break;
 3889              		.loc 1 1828 13 view .LVU800
 3890 008c CDE7     		b	.L316
 3891              	.LVL310:
 3892              	.L329:
1829:Core/Src/main_unique.c **** 
1830:Core/Src/main_unique.c ****         case EV_CMD_MODE_Y:
1831:Core/Src/main_unique.c ****             s_state = ST_MODE_Y;
 3893              		.loc 1 1831 13 view .LVU801
 3894              		.loc 1 1831 21 is_stmt 0 view .LVU802
 3895 008e 404B     		ldr	r3, .L345+16
 3896 0090 0322     		movs	r2, #3
 3897 0092 1A70     		strb	r2, [r3]
1832:Core/Src/main_unique.c ****             restore_line2();
 3898              		.loc 1 1832 13 is_stmt 1 view .LVU803
 3899 0094 FFF7FEFF 		bl	restore_line2
 3900              	.LVL311:
1833:Core/Src/main_unique.c ****             uart_send_line("OK: modo Y");
 3901              		.loc 1 1833 13 view .LVU804
 3902 0098 3F48     		ldr	r0, .L345+24
 3903 009a FFF7FEFF 		bl	uart_send_line
 3904              	.LVL312:
1834:Core/Src/main_unique.c ****             break;
 3905              		.loc 1 1834 13 view .LVU805
 3906 009e C4E7     		b	.L316
 3907              	.LVL313:
 3908              	.L328:
1835:Core/Src/main_unique.c **** 
1836:Core/Src/main_unique.c ****         case EV_CMD_INC:
1837:Core/Src/main_unique.c ****             coord_step(+1);
 3909              		.loc 1 1837 13 view .LVU806
 3910 00a0 0120     		movs	r0, #1
 3911              	.LVL314:
 3912              		.loc 1 1837 13 is_stmt 0 view .LVU807
 3913 00a2 FFF7FEFF 		bl	coord_step
 3914              	.LVL315:
1838:Core/Src/main_unique.c ****             break;
 3915              		.loc 1 1838 13 is_stmt 1 view .LVU808
 3916 00a6 C0E7     		b	.L316
 3917              	.LVL316:
 3918              	.L327:
1839:Core/Src/main_unique.c **** 
1840:Core/Src/main_unique.c ****         case EV_CMD_DEC:
1841:Core/Src/main_unique.c ****             coord_step(-1);
 3919              		.loc 1 1841 13 view .LVU809
 3920 00a8 4FF0FF30 		mov	r0, #-1
 3921              	.LVL317:
 3922              		.loc 1 1841 13 is_stmt 0 view .LVU810
 3923 00ac FFF7FEFF 		bl	coord_step
 3924              	.LVL318:
1842:Core/Src/main_unique.c ****             break;
ARM GAS  /tmp/ccjBgtoi.s 			page 114


 3925              		.loc 1 1842 13 is_stmt 1 view .LVU811
 3926 00b0 BBE7     		b	.L316
 3927              	.LVL319:
 3928              	.L326:
1843:Core/Src/main_unique.c **** 
1844:Core/Src/main_unique.c ****         /* ---------- Conmutacion de la salida MCO1 ---------- */
1845:Core/Src/main_unique.c ****         case EV_CMD_MCO_HSI:
1846:Core/Src/main_unique.c ****             system_clock_mco_set(MCO_SRC_HSI);
 3929              		.loc 1 1846 13 view .LVU812
 3930 00b2 0020     		movs	r0, #0
 3931              	.LVL320:
 3932              		.loc 1 1846 13 is_stmt 0 view .LVU813
 3933 00b4 FFF7FEFF 		bl	system_clock_mco_set
 3934              	.LVL321:
1847:Core/Src/main_unique.c ****             uart_send_line("OK: MCO1 = HSI 16 MHz (prescaler /1)");
 3935              		.loc 1 1847 13 is_stmt 1 view .LVU814
 3936 00b8 3848     		ldr	r0, .L345+28
 3937 00ba FFF7FEFF 		bl	uart_send_line
 3938              	.LVL322:
1848:Core/Src/main_unique.c ****             break;
 3939              		.loc 1 1848 13 view .LVU815
 3940 00be B4E7     		b	.L316
 3941              	.LVL323:
 3942              	.L325:
1849:Core/Src/main_unique.c **** 
1850:Core/Src/main_unique.c ****         case EV_CMD_MCO_LSE:
1851:Core/Src/main_unique.c ****             system_clock_mco_set(MCO_SRC_LSE);
 3943              		.loc 1 1851 13 view .LVU816
 3944 00c0 0120     		movs	r0, #1
 3945              	.LVL324:
 3946              		.loc 1 1851 13 is_stmt 0 view .LVU817
 3947 00c2 FFF7FEFF 		bl	system_clock_mco_set
 3948              	.LVL325:
1852:Core/Src/main_unique.c ****             uart_send_line("OK: MCO1 = LSE 32768 Hz (prescaler /1)");
 3949              		.loc 1 1852 13 is_stmt 1 view .LVU818
 3950 00c6 3648     		ldr	r0, .L345+32
 3951 00c8 FFF7FEFF 		bl	uart_send_line
 3952              	.LVL326:
1853:Core/Src/main_unique.c ****             break;
 3953              		.loc 1 1853 13 view .LVU819
 3954 00cc ADE7     		b	.L316
 3955              	.LVL327:
 3956              	.L324:
1854:Core/Src/main_unique.c **** 
1855:Core/Src/main_unique.c ****         case EV_CMD_MCO_PLL:
1856:Core/Src/main_unique.c ****             system_clock_mco_set(MCO_SRC_PLL);
 3957              		.loc 1 1856 13 view .LVU820
 3958 00ce 0220     		movs	r0, #2
 3959              	.LVL328:
 3960              		.loc 1 1856 13 is_stmt 0 view .LVU821
 3961 00d0 FFF7FEFF 		bl	system_clock_mco_set
 3962              	.LVL329:
1857:Core/Src/main_unique.c ****             uart_send_line("OK: MCO1 = PLL 100 MHz / 5 = 20 MHz");
 3963              		.loc 1 1857 13 is_stmt 1 view .LVU822
 3964 00d4 3348     		ldr	r0, .L345+36
 3965 00d6 FFF7FEFF 		bl	uart_send_line
 3966              	.LVL330:
ARM GAS  /tmp/ccjBgtoi.s 			page 115


1858:Core/Src/main_unique.c ****             break;
 3967              		.loc 1 1858 13 view .LVU823
 3968 00da A6E7     		b	.L316
 3969              	.LVL331:
 3970              	.L323:
1859:Core/Src/main_unique.c **** 
1860:Core/Src/main_unique.c ****         case EV_CMD_HELP:
1861:Core/Src/main_unique.c ****             print_help();
 3971              		.loc 1 1861 13 view .LVU824
 3972 00dc FFF7FEFF 		bl	print_help
 3973              	.LVL332:
1862:Core/Src/main_unique.c ****             break;
 3974              		.loc 1 1862 13 view .LVU825
 3975 00e0 A3E7     		b	.L316
 3976              	.LVL333:
 3977              	.L322:
1863:Core/Src/main_unique.c **** 
1864:Core/Src/main_unique.c ****         /* ---------- Diagnostico ---------- */
1865:Core/Src/main_unique.c ****         case EV_CMD_DIAG:
1866:Core/Src/main_unique.c ****             print_diagnostics();
 3978              		.loc 1 1866 13 view .LVU826
 3979 00e2 FFF7FEFF 		bl	print_diagnostics
 3980              	.LVL334:
1867:Core/Src/main_unique.c ****             break;
 3981              		.loc 1 1867 13 view .LVU827
 3982 00e6 A0E7     		b	.L316
 3983              	.LVL335:
 3984              	.L321:
1868:Core/Src/main_unique.c **** 
1869:Core/Src/main_unique.c ****         case EV_CMD_SCAN:
1870:Core/Src/main_unique.c ****             lcd_bus_scan_report();
 3985              		.loc 1 1870 13 view .LVU828
 3986 00e8 FFF7FEFF 		bl	lcd_bus_scan_report
 3987              	.LVL336:
1871:Core/Src/main_unique.c ****             break;
 3988              		.loc 1 1871 13 view .LVU829
 3989 00ec 9DE7     		b	.L316
 3990              	.LVL337:
 3991              	.L320:
1872:Core/Src/main_unique.c **** 
1873:Core/Src/main_unique.c ****         /* ---------- Pulsador del joystick ---------- */
1874:Core/Src/main_unique.c ****         case EV_BUTTON:
1875:Core/Src/main_unique.c ****             /* Recorre ciclicamente los modos: ninguno -> X -> Y -> ninguno */
1876:Core/Src/main_unique.c ****             if (s_state == ST_MODE_X) {
 3992              		.loc 1 1876 13 view .LVU830
 3993              		.loc 1 1876 25 is_stmt 0 view .LVU831
 3994 00ee 284B     		ldr	r3, .L345+16
 3995 00f0 1B78     		ldrb	r3, [r3]	@ zero_extendqisi2
 3996              		.loc 1 1876 16 view .LVU832
 3997 00f2 022B     		cmp	r3, #2
 3998 00f4 0AD0     		beq	.L342
1877:Core/Src/main_unique.c ****                 s_state = ST_MODE_Y;
1878:Core/Src/main_unique.c ****             } else if (s_state == ST_MODE_Y) {
 3999              		.loc 1 1878 20 is_stmt 1 view .LVU833
 4000              		.loc 1 1878 23 is_stmt 0 view .LVU834
 4001 00f6 032B     		cmp	r3, #3
 4002 00f8 0CD0     		beq	.L343
ARM GAS  /tmp/ccjBgtoi.s 			page 116


1879:Core/Src/main_unique.c ****                 s_state = ST_IDLE;
1880:Core/Src/main_unique.c ****             } else {
1881:Core/Src/main_unique.c ****                 s_state = ST_MODE_X;
 4003              		.loc 1 1881 17 is_stmt 1 view .LVU835
 4004              		.loc 1 1881 25 is_stmt 0 view .LVU836
 4005 00fa 254B     		ldr	r3, .L345+16
 4006 00fc 0222     		movs	r2, #2
 4007 00fe 1A70     		strb	r2, [r3]
 4008              	.L334:
1882:Core/Src/main_unique.c ****             }
1883:Core/Src/main_unique.c ****             restore_line2();
 4009              		.loc 1 1883 13 is_stmt 1 view .LVU837
 4010 0100 FFF7FEFF 		bl	restore_line2
 4011              	.LVL338:
1884:Core/Src/main_unique.c ****             uart_send_line("SW: cambio de modo");
 4012              		.loc 1 1884 13 view .LVU838
 4013 0104 2848     		ldr	r0, .L345+40
 4014 0106 FFF7FEFF 		bl	uart_send_line
 4015              	.LVL339:
1885:Core/Src/main_unique.c ****             break;
 4016              		.loc 1 1885 13 view .LVU839
 4017 010a 8EE7     		b	.L316
 4018              	.LVL340:
 4019              	.L342:
1877:Core/Src/main_unique.c ****             } else if (s_state == ST_MODE_Y) {
 4020              		.loc 1 1877 17 view .LVU840
1877:Core/Src/main_unique.c ****             } else if (s_state == ST_MODE_Y) {
 4021              		.loc 1 1877 25 is_stmt 0 view .LVU841
 4022 010c 204B     		ldr	r3, .L345+16
 4023 010e 0322     		movs	r2, #3
 4024 0110 1A70     		strb	r2, [r3]
 4025 0112 F5E7     		b	.L334
 4026              	.L343:
1879:Core/Src/main_unique.c ****             } else {
 4027              		.loc 1 1879 17 is_stmt 1 view .LVU842
1879:Core/Src/main_unique.c ****             } else {
 4028              		.loc 1 1879 25 is_stmt 0 view .LVU843
 4029 0114 1E4B     		ldr	r3, .L345+16
 4030 0116 0122     		movs	r2, #1
 4031 0118 1A70     		strb	r2, [r3]
 4032 011a F1E7     		b	.L334
 4033              	.L319:
1886:Core/Src/main_unique.c **** 
1887:Core/Src/main_unique.c ****         /* ---------- Base de tiempo de 100 ms ---------- */
1888:Core/Src/main_unique.c ****         case EV_TICK_100MS:
1889:Core/Src/main_unique.c ****             apply_joystick();     /* la palanca desplaza las coordenadas */
 4034              		.loc 1 1889 13 is_stmt 1 view .LVU844
 4035 011c FFF7FEFF 		bl	apply_joystick
 4036              	.LVL341:
1890:Core/Src/main_unique.c ****             render_coords();      /* refresca las filas 2 y 3            */
 4037              		.loc 1 1890 13 view .LVU845
 4038 0120 FFF7FEFF 		bl	render_coords
 4039              	.LVL342:
1891:Core/Src/main_unique.c **** 
1892:Core/Src/main_unique.c ****             /* Desplaza el texto movil cada tercer tick, esto es, 300 ms */
1893:Core/Src/main_unique.c ****             if (++s_tick_scroll >= 3U) {
 4040              		.loc 1 1893 13 view .LVU846
ARM GAS  /tmp/ccjBgtoi.s 			page 117


 4041              		.loc 1 1893 17 is_stmt 0 view .LVU847
 4042 0124 214A     		ldr	r2, .L345+44
 4043 0126 1388     		ldrh	r3, [r2]
 4044 0128 0133     		adds	r3, r3, #1
 4045 012a 9BB2     		uxth	r3, r3
 4046              		.loc 1 1893 16 view .LVU848
 4047 012c 1380     		strh	r3, [r2]	@ movhi
 4048 012e 022B     		cmp	r3, #2
 4049 0130 17D8     		bhi	.L344
 4050              	.L336:
1894:Core/Src/main_unique.c ****                 s_tick_scroll = 0U;
1895:Core/Src/main_unique.c ****                 s_scroll++;
1896:Core/Src/main_unique.c ****                 render_line2();
1897:Core/Src/main_unique.c ****             }
1898:Core/Src/main_unique.c **** 
1899:Core/Src/main_unique.c ****             /* Vencimiento del mensaje temporal */
1900:Core/Src/main_unique.c ****             if ((s_state == ST_MESSAGE) && (s_msg_timeout > 0U)) {
 4051              		.loc 1 1900 13 is_stmt 1 view .LVU849
 4052              		.loc 1 1900 26 is_stmt 0 view .LVU850
 4053 0132 174B     		ldr	r3, .L345+16
 4054 0134 1B78     		ldrb	r3, [r3]	@ zero_extendqisi2
 4055              		.loc 1 1900 16 view .LVU851
 4056 0136 042B     		cmp	r3, #4
 4057 0138 7FF477AF 		bne	.L316
 4058              		.loc 1 1900 59 discriminator 1 view .LVU852
 4059 013c 1C4B     		ldr	r3, .L345+48
 4060 013e 1B88     		ldrh	r3, [r3]
 4061              		.loc 1 1900 41 discriminator 1 view .LVU853
 4062 0140 002B     		cmp	r3, #0
 4063 0142 3FF472AF 		beq	.L316
1901:Core/Src/main_unique.c ****                 if (--s_msg_timeout == 0U) {
 4064              		.loc 1 1901 17 is_stmt 1 view .LVU854
 4065              		.loc 1 1901 21 is_stmt 0 view .LVU855
 4066 0146 013B     		subs	r3, r3, #1
 4067 0148 9BB2     		uxth	r3, r3
 4068              		.loc 1 1901 20 view .LVU856
 4069 014a 194A     		ldr	r2, .L345+48
 4070 014c 1380     		strh	r3, [r2]	@ movhi
 4071 014e 002B     		cmp	r3, #0
 4072 0150 7FF46BAF 		bne	.L316
1902:Core/Src/main_unique.c ****                     s_state = s_prev;   /* vuelve al estado anterior */
 4073              		.loc 1 1902 21 is_stmt 1 view .LVU857
 4074              		.loc 1 1902 29 is_stmt 0 view .LVU858
 4075 0154 174B     		ldr	r3, .L345+52
 4076 0156 1A78     		ldrb	r2, [r3]	@ zero_extendqisi2
 4077 0158 0D4B     		ldr	r3, .L345+16
 4078 015a 1A70     		strb	r2, [r3]
1903:Core/Src/main_unique.c ****                     restore_line2();
 4079              		.loc 1 1903 21 is_stmt 1 view .LVU859
 4080 015c FFF7FEFF 		bl	restore_line2
 4081              	.LVL343:
 4082 0160 63E7     		b	.L316
 4083              	.L344:
1894:Core/Src/main_unique.c ****                 s_scroll++;
 4084              		.loc 1 1894 17 view .LVU860
1894:Core/Src/main_unique.c ****                 s_scroll++;
 4085              		.loc 1 1894 31 is_stmt 0 view .LVU861
ARM GAS  /tmp/ccjBgtoi.s 			page 118


 4086 0162 1346     		mov	r3, r2
 4087 0164 0022     		movs	r2, #0
 4088 0166 1A80     		strh	r2, [r3]	@ movhi
1895:Core/Src/main_unique.c ****                 render_line2();
 4089              		.loc 1 1895 17 is_stmt 1 view .LVU862
1895:Core/Src/main_unique.c ****                 render_line2();
 4090              		.loc 1 1895 25 is_stmt 0 view .LVU863
 4091 0168 134A     		ldr	r2, .L345+56
 4092 016a 1388     		ldrh	r3, [r2]
 4093 016c 0133     		adds	r3, r3, #1
 4094 016e 1380     		strh	r3, [r2]	@ movhi
1896:Core/Src/main_unique.c ****             }
 4095              		.loc 1 1896 17 is_stmt 1 view .LVU864
 4096 0170 FFF7FEFF 		bl	render_line2
 4097              	.LVL344:
 4098 0174 DDE7     		b	.L336
 4099              	.LVL345:
 4100              	.L317:
1904:Core/Src/main_unique.c ****                 }
1905:Core/Src/main_unique.c ****             }
1906:Core/Src/main_unique.c ****             break;
1907:Core/Src/main_unique.c **** 
1908:Core/Src/main_unique.c ****         /* ---------- Segundo del RTC ---------- */
1909:Core/Src/main_unique.c ****         case EV_SECOND:
1910:Core/Src/main_unique.c ****             render_time();
 4101              		.loc 1 1910 13 view .LVU865
 4102 0176 FFF7FEFF 		bl	render_time
 4103              	.LVL346:
1911:Core/Src/main_unique.c ****             break;
 4104              		.loc 1 1911 13 view .LVU866
 4105 017a 56E7     		b	.L316
 4106              	.LVL347:
 4107              	.L341:
1912:Core/Src/main_unique.c **** 
1913:Core/Src/main_unique.c ****         default:
1914:Core/Src/main_unique.c ****             break;
1915:Core/Src/main_unique.c ****         }
1916:Core/Src/main_unique.c ****     }
1917:Core/Src/main_unique.c **** }
 4108              		.loc 1 1917 1 is_stmt 0 view .LVU867
 4109 017c 08BD     		pop	{r3, pc}
 4110              	.L346:
 4111 017e 00BF     		.align	2
 4112              	.L345:
 4113 0180 00000000 		.word	g_rtc_second_flag
 4114 0184 00000000 		.word	s_coord_x
 4115 0188 00000000 		.word	s_coord_y
 4116 018c 00000000 		.word	.LC41
 4117 0190 00000000 		.word	s_state
 4118 0194 18000000 		.word	.LC42
 4119 0198 24000000 		.word	.LC43
 4120 019c 30000000 		.word	.LC44
 4121 01a0 58000000 		.word	.LC45
 4122 01a4 80000000 		.word	.LC46
 4123 01a8 A4000000 		.word	.LC47
 4124 01ac 00000000 		.word	s_tick_scroll
 4125 01b0 00000000 		.word	s_msg_timeout
ARM GAS  /tmp/ccjBgtoi.s 			page 119


 4126 01b4 00000000 		.word	s_prev
 4127 01b8 00000000 		.word	s_scroll
 4128              		.cfi_endproc
 4129              	.LFE336:
 4131              		.section	.text.HAL_MspInit,"ax",%progbits
 4132              		.align	1
 4133              		.global	HAL_MspInit
 4134              		.syntax unified
 4135              		.thumb
 4136              		.thumb_func
 4138              	HAL_MspInit:
 4139              	.LFB337:
1918:Core/Src/main_unique.c **** 
1919:Core/Src/main_unique.c **** /* ==========================================================================
1920:Core/Src/main_unique.c ****  * 13. MSP: Microcontroller Support Package
1921:Core/Src/main_unique.c ****  *
1922:Core/Src/main_unique.c ****  *     La HAL separa la configuracion logica de un periferico (registros de
1923:Core/Src/main_unique.c ****  *     modo, velocidad, formato) de su conexion fisica (reloj de bus, pines,
1924:Core/Src/main_unique.c ****  *     NVIC). La primera vive en el modulo del periferico; la segunda se
1925:Core/Src/main_unique.c ****  *     centraliza aqui, porque HAL_<PPP>_Init() invoca automaticamente a
1926:Core/Src/main_unique.c ****  *     HAL_<PPP>_MspInit().
1927:Core/Src/main_unique.c ****  *
1928:Core/Src/main_unique.c ****  *     Mapa de pines completo:
1929:Core/Src/main_unique.c ****  *       PA0  ADC1_IN0    VRX del joystick
1930:Core/Src/main_unique.c ****  *       PA1  ADC1_IN1    VRY del joystick
1931:Core/Src/main_unique.c ****  *       PA2  USART2_TX   consola serie (via ST-LINK)
1932:Core/Src/main_unique.c ****  *       PA3  USART2_RX   consola serie (via ST-LINK)
1933:Core/Src/main_unique.c ****  *       PA8  MCO1        salida de reloj conmutable
1934:Core/Src/main_unique.c ****  *       PB5  EXTI5       pulsador SW del joystick
1935:Core/Src/main_unique.c ****  *       PB8  I2C1_SCL    reloj del bus del LCD
1936:Core/Src/main_unique.c ****  *       PB9  I2C1_SDA    datos del bus del LCD
1937:Core/Src/main_unique.c ****  *       PH1  GPIO out    LED blinky
1938:Core/Src/main_unique.c ****  *       PC14 OSC32_IN    cristal LSE de 32.768 kHz
1939:Core/Src/main_unique.c ****  *       PC15 OSC32_OUT   cristal LSE de 32.768 kHz
1940:Core/Src/main_unique.c ****  * ========================================================================== */
1941:Core/Src/main_unique.c **** 
1942:Core/Src/main_unique.c **** /*
1943:Core/Src/main_unique.c ****  * HAL_MspInit
1944:Core/Src/main_unique.c ****  * Inicializacion global, invocada desde HAL_Init().
1945:Core/Src/main_unique.c ****  */
1946:Core/Src/main_unique.c **** void HAL_MspInit(void)
1947:Core/Src/main_unique.c **** {
 4140              		.loc 1 1947 1 is_stmt 1 view -0
 4141              		.cfi_startproc
 4142              		@ args = 0, pretend = 0, frame = 8
 4143              		@ frame_needed = 0, uses_anonymous_args = 0
 4144              		@ link register save eliminated.
 4145 0000 82B0     		sub	sp, sp, #8
 4146              	.LCFI64:
 4147              		.cfi_def_cfa_offset 8
1948:Core/Src/main_unique.c ****     __HAL_RCC_SYSCFG_CLK_ENABLE();  /* necesario para el multiplexor de EXTI */
 4148              		.loc 1 1948 5 view .LVU869
 4149              	.LBB8:
 4150              		.loc 1 1948 5 view .LVU870
 4151 0002 0021     		movs	r1, #0
 4152 0004 0091     		str	r1, [sp]
 4153              		.loc 1 1948 5 view .LVU871
ARM GAS  /tmp/ccjBgtoi.s 			page 120


 4154 0006 0B4B     		ldr	r3, .L349
 4155 0008 5A6C     		ldr	r2, [r3, #68]
 4156 000a 42F48042 		orr	r2, r2, #16384
 4157 000e 5A64     		str	r2, [r3, #68]
 4158              		.loc 1 1948 5 view .LVU872
 4159 0010 5A6C     		ldr	r2, [r3, #68]
 4160 0012 02F48042 		and	r2, r2, #16384
 4161 0016 0092     		str	r2, [sp]
 4162              		.loc 1 1948 5 view .LVU873
 4163 0018 009A     		ldr	r2, [sp]
 4164              	.LBE8:
 4165              		.loc 1 1948 5 view .LVU874
1949:Core/Src/main_unique.c ****     __HAL_RCC_PWR_CLK_ENABLE();     /* control del regulador y del backup    */
 4166              		.loc 1 1949 5 view .LVU875
 4167              	.LBB9:
 4168              		.loc 1 1949 5 view .LVU876
 4169 001a 0191     		str	r1, [sp, #4]
 4170              		.loc 1 1949 5 view .LVU877
 4171 001c 1A6C     		ldr	r2, [r3, #64]
 4172 001e 42F08052 		orr	r2, r2, #268435456
 4173 0022 1A64     		str	r2, [r3, #64]
 4174              		.loc 1 1949 5 view .LVU878
 4175 0024 1B6C     		ldr	r3, [r3, #64]
 4176 0026 03F08053 		and	r3, r3, #268435456
 4177 002a 0193     		str	r3, [sp, #4]
 4178              		.loc 1 1949 5 view .LVU879
 4179 002c 019B     		ldr	r3, [sp, #4]
 4180              	.LBE9:
 4181              		.loc 1 1949 5 view .LVU880
1950:Core/Src/main_unique.c **** }
 4182              		.loc 1 1950 1 is_stmt 0 view .LVU881
 4183 002e 02B0     		add	sp, sp, #8
 4184              	.LCFI65:
 4185              		.cfi_def_cfa_offset 0
 4186              		@ sp needed
 4187 0030 7047     		bx	lr
 4188              	.L350:
 4189 0032 00BF     		.align	2
 4190              	.L349:
 4191 0034 00380240 		.word	1073887232
 4192              		.cfi_endproc
 4193              	.LFE337:
 4195              		.section	.text.HAL_UART_MspInit,"ax",%progbits
 4196              		.align	1
 4197              		.global	HAL_UART_MspInit
 4198              		.syntax unified
 4199              		.thumb
 4200              		.thumb_func
 4202              	HAL_UART_MspInit:
 4203              	.LVL348:
 4204              	.LFB338:
1951:Core/Src/main_unique.c **** 
1952:Core/Src/main_unique.c **** /*
1953:Core/Src/main_unique.c ****  * HAL_UART_MspInit
1954:Core/Src/main_unique.c ****  * Pines de la USART2. En la Nucleo-F411RE estan cableados al ST-LINK, que
1955:Core/Src/main_unique.c ****  * los expone como puerto serie virtual.
1956:Core/Src/main_unique.c ****  */
ARM GAS  /tmp/ccjBgtoi.s 			page 121


1957:Core/Src/main_unique.c **** void HAL_UART_MspInit(UART_HandleTypeDef *huart)
1958:Core/Src/main_unique.c **** {
 4205              		.loc 1 1958 1 is_stmt 1 view -0
 4206              		.cfi_startproc
 4207              		@ args = 0, pretend = 0, frame = 24
 4208              		@ frame_needed = 0, uses_anonymous_args = 0
 4209              		.loc 1 1958 1 is_stmt 0 view .LVU883
 4210 0000 00B5     		push	{lr}
 4211              	.LCFI66:
 4212              		.cfi_def_cfa_offset 4
 4213              		.cfi_offset 14, -4
 4214 0002 87B0     		sub	sp, sp, #28
 4215              	.LCFI67:
 4216              		.cfi_def_cfa_offset 32
1959:Core/Src/main_unique.c ****     GPIO_InitTypeDef gi = {0};
 4217              		.loc 1 1959 5 is_stmt 1 view .LVU884
 4218              		.loc 1 1959 22 is_stmt 0 view .LVU885
 4219 0004 0023     		movs	r3, #0
 4220 0006 0193     		str	r3, [sp, #4]
 4221 0008 0293     		str	r3, [sp, #8]
 4222 000a 0393     		str	r3, [sp, #12]
 4223 000c 0493     		str	r3, [sp, #16]
 4224 000e 0593     		str	r3, [sp, #20]
1960:Core/Src/main_unique.c **** 
1961:Core/Src/main_unique.c ****     if (huart->Instance != USART2) {
 4225              		.loc 1 1961 5 is_stmt 1 view .LVU886
 4226              		.loc 1 1961 14 is_stmt 0 view .LVU887
 4227 0010 0268     		ldr	r2, [r0]
 4228              		.loc 1 1961 8 view .LVU888
 4229 0012 104B     		ldr	r3, .L356
 4230 0014 9A42     		cmp	r2, r3
 4231 0016 01D0     		beq	.L355
 4232              	.LVL349:
 4233              	.L351:
1962:Core/Src/main_unique.c ****         return;
1963:Core/Src/main_unique.c ****     }
1964:Core/Src/main_unique.c **** 
1965:Core/Src/main_unique.c ****     __HAL_RCC_GPIOA_CLK_ENABLE();
1966:Core/Src/main_unique.c **** 
1967:Core/Src/main_unique.c ****     gi.Pin       = GPIO_PIN_2 | GPIO_PIN_3;   /* TX y RX */
1968:Core/Src/main_unique.c ****     gi.Mode      = GPIO_MODE_AF_PP;           /* funcion alternativa push-pull */
1969:Core/Src/main_unique.c ****     gi.Pull      = GPIO_PULLUP;               /* mantiene la linea en reposo a 1,
1970:Core/Src/main_unique.c ****                                                  evitando tramas espurias si el
1971:Core/Src/main_unique.c ****                                                  cable se desconecta */
1972:Core/Src/main_unique.c ****     gi.Speed     = GPIO_SPEED_FREQ_VERY_HIGH;
1973:Core/Src/main_unique.c ****     gi.Alternate = GPIO_AF7_USART2;           /* AF7 = USART1/2/3 en el F411   */
1974:Core/Src/main_unique.c ****     HAL_GPIO_Init(GPIOA, &gi);
1975:Core/Src/main_unique.c **** }
 4234              		.loc 1 1975 1 view .LVU889
 4235 0018 07B0     		add	sp, sp, #28
 4236              	.LCFI68:
 4237              		.cfi_remember_state
 4238              		.cfi_def_cfa_offset 4
 4239              		@ sp needed
 4240 001a 00BD     		pop	{pc}
 4241              	.LVL350:
 4242              	.L355:
ARM GAS  /tmp/ccjBgtoi.s 			page 122


 4243              	.LCFI69:
 4244              		.cfi_restore_state
1965:Core/Src/main_unique.c **** 
 4245              		.loc 1 1965 5 is_stmt 1 view .LVU890
 4246              	.LBB10:
1965:Core/Src/main_unique.c **** 
 4247              		.loc 1 1965 5 view .LVU891
 4248 001c 0023     		movs	r3, #0
 4249 001e 0093     		str	r3, [sp]
1965:Core/Src/main_unique.c **** 
 4250              		.loc 1 1965 5 view .LVU892
 4251 0020 0D4B     		ldr	r3, .L356+4
 4252 0022 1A6B     		ldr	r2, [r3, #48]
 4253 0024 42F00102 		orr	r2, r2, #1
 4254 0028 1A63     		str	r2, [r3, #48]
1965:Core/Src/main_unique.c **** 
 4255              		.loc 1 1965 5 view .LVU893
 4256 002a 1B6B     		ldr	r3, [r3, #48]
 4257 002c 03F00103 		and	r3, r3, #1
 4258 0030 0093     		str	r3, [sp]
1965:Core/Src/main_unique.c **** 
 4259              		.loc 1 1965 5 view .LVU894
 4260 0032 009B     		ldr	r3, [sp]
 4261              	.LBE10:
1965:Core/Src/main_unique.c **** 
 4262              		.loc 1 1965 5 view .LVU895
1967:Core/Src/main_unique.c ****     gi.Mode      = GPIO_MODE_AF_PP;           /* funcion alternativa push-pull */
 4263              		.loc 1 1967 5 view .LVU896
1967:Core/Src/main_unique.c ****     gi.Mode      = GPIO_MODE_AF_PP;           /* funcion alternativa push-pull */
 4264              		.loc 1 1967 18 is_stmt 0 view .LVU897
 4265 0034 0C23     		movs	r3, #12
 4266 0036 0193     		str	r3, [sp, #4]
1968:Core/Src/main_unique.c ****     gi.Pull      = GPIO_PULLUP;               /* mantiene la linea en reposo a 1,
 4267              		.loc 1 1968 5 is_stmt 1 view .LVU898
1968:Core/Src/main_unique.c ****     gi.Pull      = GPIO_PULLUP;               /* mantiene la linea en reposo a 1,
 4268              		.loc 1 1968 18 is_stmt 0 view .LVU899
 4269 0038 0223     		movs	r3, #2
 4270 003a 0293     		str	r3, [sp, #8]
1969:Core/Src/main_unique.c ****                                                  evitando tramas espurias si el
 4271              		.loc 1 1969 5 is_stmt 1 view .LVU900
1969:Core/Src/main_unique.c ****                                                  evitando tramas espurias si el
 4272              		.loc 1 1969 18 is_stmt 0 view .LVU901
 4273 003c 0123     		movs	r3, #1
 4274 003e 0393     		str	r3, [sp, #12]
1972:Core/Src/main_unique.c ****     gi.Alternate = GPIO_AF7_USART2;           /* AF7 = USART1/2/3 en el F411   */
 4275              		.loc 1 1972 5 is_stmt 1 view .LVU902
1972:Core/Src/main_unique.c ****     gi.Alternate = GPIO_AF7_USART2;           /* AF7 = USART1/2/3 en el F411   */
 4276              		.loc 1 1972 18 is_stmt 0 view .LVU903
 4277 0040 0323     		movs	r3, #3
 4278 0042 0493     		str	r3, [sp, #16]
1973:Core/Src/main_unique.c ****     HAL_GPIO_Init(GPIOA, &gi);
 4279              		.loc 1 1973 5 is_stmt 1 view .LVU904
1973:Core/Src/main_unique.c ****     HAL_GPIO_Init(GPIOA, &gi);
 4280              		.loc 1 1973 18 is_stmt 0 view .LVU905
 4281 0044 0723     		movs	r3, #7
 4282 0046 0593     		str	r3, [sp, #20]
1974:Core/Src/main_unique.c **** }
ARM GAS  /tmp/ccjBgtoi.s 			page 123


 4283              		.loc 1 1974 5 is_stmt 1 view .LVU906
 4284 0048 01A9     		add	r1, sp, #4
 4285 004a 0448     		ldr	r0, .L356+8
 4286              	.LVL351:
1974:Core/Src/main_unique.c **** }
 4287              		.loc 1 1974 5 is_stmt 0 view .LVU907
 4288 004c FFF7FEFF 		bl	HAL_GPIO_Init
 4289              	.LVL352:
 4290 0050 E2E7     		b	.L351
 4291              	.L357:
 4292 0052 00BF     		.align	2
 4293              	.L356:
 4294 0054 00440040 		.word	1073759232
 4295 0058 00380240 		.word	1073887232
 4296 005c 00000240 		.word	1073872896
 4297              		.cfi_endproc
 4298              	.LFE338:
 4300              		.section	.text.HAL_ADC_MspInit,"ax",%progbits
 4301              		.align	1
 4302              		.global	HAL_ADC_MspInit
 4303              		.syntax unified
 4304              		.thumb
 4305              		.thumb_func
 4307              	HAL_ADC_MspInit:
 4308              	.LVL353:
 4309              	.LFB339:
1976:Core/Src/main_unique.c **** 
1977:Core/Src/main_unique.c **** /*
1978:Core/Src/main_unique.c ****  * HAL_ADC_MspInit
1979:Core/Src/main_unique.c ****  * Pines analogicos del joystick.
1980:Core/Src/main_unique.c ****  */
1981:Core/Src/main_unique.c **** void HAL_ADC_MspInit(ADC_HandleTypeDef *hadc)
1982:Core/Src/main_unique.c **** {
 4310              		.loc 1 1982 1 is_stmt 1 view -0
 4311              		.cfi_startproc
 4312              		@ args = 0, pretend = 0, frame = 24
 4313              		@ frame_needed = 0, uses_anonymous_args = 0
 4314              		.loc 1 1982 1 is_stmt 0 view .LVU909
 4315 0000 00B5     		push	{lr}
 4316              	.LCFI70:
 4317              		.cfi_def_cfa_offset 4
 4318              		.cfi_offset 14, -4
 4319 0002 87B0     		sub	sp, sp, #28
 4320              	.LCFI71:
 4321              		.cfi_def_cfa_offset 32
1983:Core/Src/main_unique.c ****     GPIO_InitTypeDef gi = {0};
 4322              		.loc 1 1983 5 is_stmt 1 view .LVU910
 4323              		.loc 1 1983 22 is_stmt 0 view .LVU911
 4324 0004 0023     		movs	r3, #0
 4325 0006 0193     		str	r3, [sp, #4]
 4326 0008 0293     		str	r3, [sp, #8]
 4327 000a 0393     		str	r3, [sp, #12]
 4328 000c 0493     		str	r3, [sp, #16]
 4329 000e 0593     		str	r3, [sp, #20]
1984:Core/Src/main_unique.c **** 
1985:Core/Src/main_unique.c ****     if (hadc->Instance != ADC1) {
 4330              		.loc 1 1985 5 is_stmt 1 view .LVU912
ARM GAS  /tmp/ccjBgtoi.s 			page 124


 4331              		.loc 1 1985 13 is_stmt 0 view .LVU913
 4332 0010 0268     		ldr	r2, [r0]
 4333              		.loc 1 1985 8 view .LVU914
 4334 0012 03F18043 		add	r3, r3, #1073741824
 4335 0016 03F59033 		add	r3, r3, #73728
 4336 001a 9A42     		cmp	r2, r3
 4337 001c 01D0     		beq	.L362
 4338              	.LVL354:
 4339              	.L358:
1986:Core/Src/main_unique.c ****         return;
1987:Core/Src/main_unique.c ****     }
1988:Core/Src/main_unique.c **** 
1989:Core/Src/main_unique.c ****     __HAL_RCC_GPIOA_CLK_ENABLE();
1990:Core/Src/main_unique.c **** 
1991:Core/Src/main_unique.c ****     gi.Pin  = GPIO_PIN_0 | GPIO_PIN_1;   /* VRX y VRY */
1992:Core/Src/main_unique.c ****     gi.Mode = GPIO_MODE_ANALOG;          /* desconecta las etapas digitales
1993:Core/Src/main_unique.c ****                                             del pin, reduciendo la corriente
1994:Core/Src/main_unique.c ****                                             de fuga y el ruido inyectado */
1995:Core/Src/main_unique.c ****     gi.Pull = GPIO_NOPULL;               /* cualquier pull falsearia la lectura
1996:Core/Src/main_unique.c ****                                             al formar un divisor con el
1997:Core/Src/main_unique.c ****                                             potenciometro del joystick */
1998:Core/Src/main_unique.c ****     HAL_GPIO_Init(GPIOA, &gi);
1999:Core/Src/main_unique.c **** }
 4340              		.loc 1 1999 1 view .LVU915
 4341 001e 07B0     		add	sp, sp, #28
 4342              	.LCFI72:
 4343              		.cfi_remember_state
 4344              		.cfi_def_cfa_offset 4
 4345              		@ sp needed
 4346 0020 00BD     		pop	{pc}
 4347              	.LVL355:
 4348              	.L362:
 4349              	.LCFI73:
 4350              		.cfi_restore_state
1989:Core/Src/main_unique.c **** 
 4351              		.loc 1 1989 5 is_stmt 1 view .LVU916
 4352              	.LBB11:
1989:Core/Src/main_unique.c **** 
 4353              		.loc 1 1989 5 view .LVU917
 4354 0022 0023     		movs	r3, #0
 4355 0024 0093     		str	r3, [sp]
1989:Core/Src/main_unique.c **** 
 4356              		.loc 1 1989 5 view .LVU918
 4357 0026 094B     		ldr	r3, .L363
 4358 0028 1A6B     		ldr	r2, [r3, #48]
 4359 002a 42F00102 		orr	r2, r2, #1
 4360 002e 1A63     		str	r2, [r3, #48]
1989:Core/Src/main_unique.c **** 
 4361              		.loc 1 1989 5 view .LVU919
 4362 0030 1B6B     		ldr	r3, [r3, #48]
 4363 0032 03F00103 		and	r3, r3, #1
 4364 0036 0093     		str	r3, [sp]
1989:Core/Src/main_unique.c **** 
 4365              		.loc 1 1989 5 view .LVU920
 4366 0038 009B     		ldr	r3, [sp]
 4367              	.LBE11:
1989:Core/Src/main_unique.c **** 
ARM GAS  /tmp/ccjBgtoi.s 			page 125


 4368              		.loc 1 1989 5 view .LVU921
1991:Core/Src/main_unique.c ****     gi.Mode = GPIO_MODE_ANALOG;          /* desconecta las etapas digitales
 4369              		.loc 1 1991 5 view .LVU922
1991:Core/Src/main_unique.c ****     gi.Mode = GPIO_MODE_ANALOG;          /* desconecta las etapas digitales
 4370              		.loc 1 1991 13 is_stmt 0 view .LVU923
 4371 003a 0323     		movs	r3, #3
 4372 003c 0193     		str	r3, [sp, #4]
1992:Core/Src/main_unique.c ****                                             del pin, reduciendo la corriente
 4373              		.loc 1 1992 5 is_stmt 1 view .LVU924
1992:Core/Src/main_unique.c ****                                             del pin, reduciendo la corriente
 4374              		.loc 1 1992 13 is_stmt 0 view .LVU925
 4375 003e 0293     		str	r3, [sp, #8]
1995:Core/Src/main_unique.c ****                                             al formar un divisor con el
 4376              		.loc 1 1995 5 is_stmt 1 view .LVU926
1998:Core/Src/main_unique.c **** }
 4377              		.loc 1 1998 5 view .LVU927
 4378 0040 01A9     		add	r1, sp, #4
 4379 0042 0348     		ldr	r0, .L363+4
 4380              	.LVL356:
1998:Core/Src/main_unique.c **** }
 4381              		.loc 1 1998 5 is_stmt 0 view .LVU928
 4382 0044 FFF7FEFF 		bl	HAL_GPIO_Init
 4383              	.LVL357:
 4384 0048 E9E7     		b	.L358
 4385              	.L364:
 4386 004a 00BF     		.align	2
 4387              	.L363:
 4388 004c 00380240 		.word	1073887232
 4389 0050 00000240 		.word	1073872896
 4390              		.cfi_endproc
 4391              	.LFE339:
 4393              		.section	.text.HAL_I2C_MspInit,"ax",%progbits
 4394              		.align	1
 4395              		.global	HAL_I2C_MspInit
 4396              		.syntax unified
 4397              		.thumb
 4398              		.thumb_func
 4400              	HAL_I2C_MspInit:
 4401              	.LVL358:
 4402              	.LFB340:
2000:Core/Src/main_unique.c **** 
2001:Core/Src/main_unique.c **** /*
2002:Core/Src/main_unique.c ****  * HAL_I2C_MspInit
2003:Core/Src/main_unique.c ****  * Bus I2C1 hacia el modulo LCD.
2004:Core/Src/main_unique.c ****  */
2005:Core/Src/main_unique.c **** void HAL_I2C_MspInit(I2C_HandleTypeDef *hi2c)
2006:Core/Src/main_unique.c **** {
 4403              		.loc 1 2006 1 is_stmt 1 view -0
 4404              		.cfi_startproc
 4405              		@ args = 0, pretend = 0, frame = 24
 4406              		@ frame_needed = 0, uses_anonymous_args = 0
 4407              		.loc 1 2006 1 is_stmt 0 view .LVU930
 4408 0000 00B5     		push	{lr}
 4409              	.LCFI74:
 4410              		.cfi_def_cfa_offset 4
 4411              		.cfi_offset 14, -4
 4412 0002 87B0     		sub	sp, sp, #28
ARM GAS  /tmp/ccjBgtoi.s 			page 126


 4413              	.LCFI75:
 4414              		.cfi_def_cfa_offset 32
2007:Core/Src/main_unique.c ****     GPIO_InitTypeDef gi = {0};
 4415              		.loc 1 2007 5 is_stmt 1 view .LVU931
 4416              		.loc 1 2007 22 is_stmt 0 view .LVU932
 4417 0004 0023     		movs	r3, #0
 4418 0006 0193     		str	r3, [sp, #4]
 4419 0008 0293     		str	r3, [sp, #8]
 4420 000a 0393     		str	r3, [sp, #12]
 4421 000c 0493     		str	r3, [sp, #16]
 4422 000e 0593     		str	r3, [sp, #20]
2008:Core/Src/main_unique.c **** 
2009:Core/Src/main_unique.c ****     if (hi2c->Instance != I2C1) {
 4423              		.loc 1 2009 5 is_stmt 1 view .LVU933
 4424              		.loc 1 2009 13 is_stmt 0 view .LVU934
 4425 0010 0268     		ldr	r2, [r0]
 4426              		.loc 1 2009 8 view .LVU935
 4427 0012 114B     		ldr	r3, .L370
 4428 0014 9A42     		cmp	r2, r3
 4429 0016 01D0     		beq	.L369
 4430              	.LVL359:
 4431              	.L365:
2010:Core/Src/main_unique.c ****         return;
2011:Core/Src/main_unique.c ****     }
2012:Core/Src/main_unique.c **** 
2013:Core/Src/main_unique.c ****     __HAL_RCC_GPIOB_CLK_ENABLE();
2014:Core/Src/main_unique.c **** 
2015:Core/Src/main_unique.c ****     /* I2C1 admite dos mapeos de pines. El del proyecto es PB8/PB9; muchos
2016:Core/Src/main_unique.c ****        montajes previos usan PB6/PB7. Compilar con -DLCD_USE_PB6_PB7 para
2017:Core/Src/main_unique.c ****        cambiar de uno a otro sin recablear. */
2018:Core/Src/main_unique.c **** #ifdef LCD_USE_PB6_PB7
2019:Core/Src/main_unique.c ****     gi.Pin       = GPIO_PIN_6 | GPIO_PIN_7;   /* SCL = PB6, SDA = PB7 */
2020:Core/Src/main_unique.c **** #else
2021:Core/Src/main_unique.c ****     gi.Pin       = GPIO_PIN_8 | GPIO_PIN_9;   /* SCL = PB8, SDA = PB9 */
2022:Core/Src/main_unique.c **** #endif
2023:Core/Src/main_unique.c ****     gi.Mode      = GPIO_MODE_AF_OD;           /* drenador abierto: obligatorio
2024:Core/Src/main_unique.c ****                                                  en I2C, donde varios nodos
2025:Core/Src/main_unique.c ****                                                  comparten la linea */
2026:Core/Src/main_unique.c ****     gi.Pull      = GPIO_PULLUP;               /* pull-up interna de apoyo; el
2027:Core/Src/main_unique.c ****                                                  modulo LCD ya incorpora las
2028:Core/Src/main_unique.c ****                                                  suyas de 4.7 kohm */
2029:Core/Src/main_unique.c ****     gi.Speed     = GPIO_SPEED_FREQ_VERY_HIGH;
2030:Core/Src/main_unique.c ****     gi.Alternate = GPIO_AF4_I2C1;             /* AF4 = I2C1/2/3 en el F411  */
2031:Core/Src/main_unique.c ****     HAL_GPIO_Init(GPIOB, &gi);
2032:Core/Src/main_unique.c **** }
 4432              		.loc 1 2032 1 view .LVU936
 4433 0018 07B0     		add	sp, sp, #28
 4434              	.LCFI76:
 4435              		.cfi_remember_state
 4436              		.cfi_def_cfa_offset 4
 4437              		@ sp needed
 4438 001a 00BD     		pop	{pc}
 4439              	.LVL360:
 4440              	.L369:
 4441              	.LCFI77:
 4442              		.cfi_restore_state
2013:Core/Src/main_unique.c **** 
ARM GAS  /tmp/ccjBgtoi.s 			page 127


 4443              		.loc 1 2013 5 is_stmt 1 view .LVU937
 4444              	.LBB12:
2013:Core/Src/main_unique.c **** 
 4445              		.loc 1 2013 5 view .LVU938
 4446 001c 0023     		movs	r3, #0
 4447 001e 0093     		str	r3, [sp]
2013:Core/Src/main_unique.c **** 
 4448              		.loc 1 2013 5 view .LVU939
 4449 0020 0E4B     		ldr	r3, .L370+4
 4450 0022 1A6B     		ldr	r2, [r3, #48]
 4451 0024 42F00202 		orr	r2, r2, #2
 4452 0028 1A63     		str	r2, [r3, #48]
2013:Core/Src/main_unique.c **** 
 4453              		.loc 1 2013 5 view .LVU940
 4454 002a 1B6B     		ldr	r3, [r3, #48]
 4455 002c 03F00203 		and	r3, r3, #2
 4456 0030 0093     		str	r3, [sp]
2013:Core/Src/main_unique.c **** 
 4457              		.loc 1 2013 5 view .LVU941
 4458 0032 009B     		ldr	r3, [sp]
 4459              	.LBE12:
2013:Core/Src/main_unique.c **** 
 4460              		.loc 1 2013 5 view .LVU942
2021:Core/Src/main_unique.c **** #endif
 4461              		.loc 1 2021 5 view .LVU943
2021:Core/Src/main_unique.c **** #endif
 4462              		.loc 1 2021 18 is_stmt 0 view .LVU944
 4463 0034 4FF44073 		mov	r3, #768
 4464 0038 0193     		str	r3, [sp, #4]
2023:Core/Src/main_unique.c ****                                                  en I2C, donde varios nodos
 4465              		.loc 1 2023 5 is_stmt 1 view .LVU945
2023:Core/Src/main_unique.c ****                                                  en I2C, donde varios nodos
 4466              		.loc 1 2023 18 is_stmt 0 view .LVU946
 4467 003a 1223     		movs	r3, #18
 4468 003c 0293     		str	r3, [sp, #8]
2026:Core/Src/main_unique.c ****                                                  modulo LCD ya incorpora las
 4469              		.loc 1 2026 5 is_stmt 1 view .LVU947
2026:Core/Src/main_unique.c ****                                                  modulo LCD ya incorpora las
 4470              		.loc 1 2026 18 is_stmt 0 view .LVU948
 4471 003e 0123     		movs	r3, #1
 4472 0040 0393     		str	r3, [sp, #12]
2029:Core/Src/main_unique.c ****     gi.Alternate = GPIO_AF4_I2C1;             /* AF4 = I2C1/2/3 en el F411  */
 4473              		.loc 1 2029 5 is_stmt 1 view .LVU949
2029:Core/Src/main_unique.c ****     gi.Alternate = GPIO_AF4_I2C1;             /* AF4 = I2C1/2/3 en el F411  */
 4474              		.loc 1 2029 18 is_stmt 0 view .LVU950
 4475 0042 0323     		movs	r3, #3
 4476 0044 0493     		str	r3, [sp, #16]
2030:Core/Src/main_unique.c ****     HAL_GPIO_Init(GPIOB, &gi);
 4477              		.loc 1 2030 5 is_stmt 1 view .LVU951
2030:Core/Src/main_unique.c ****     HAL_GPIO_Init(GPIOB, &gi);
 4478              		.loc 1 2030 18 is_stmt 0 view .LVU952
 4479 0046 0423     		movs	r3, #4
 4480 0048 0593     		str	r3, [sp, #20]
2031:Core/Src/main_unique.c **** }
 4481              		.loc 1 2031 5 is_stmt 1 view .LVU953
 4482 004a 0DEB0301 		add	r1, sp, r3
 4483 004e 0448     		ldr	r0, .L370+8
ARM GAS  /tmp/ccjBgtoi.s 			page 128


 4484              	.LVL361:
2031:Core/Src/main_unique.c **** }
 4485              		.loc 1 2031 5 is_stmt 0 view .LVU954
 4486 0050 FFF7FEFF 		bl	HAL_GPIO_Init
 4487              	.LVL362:
 4488 0054 E0E7     		b	.L365
 4489              	.L371:
 4490 0056 00BF     		.align	2
 4491              	.L370:
 4492 0058 00540040 		.word	1073763328
 4493 005c 00380240 		.word	1073887232
 4494 0060 00040240 		.word	1073873920
 4495              		.cfi_endproc
 4496              	.LFE340:
 4498              		.section	.text.HAL_RTC_MspInit,"ax",%progbits
 4499              		.align	1
 4500              		.global	HAL_RTC_MspInit
 4501              		.syntax unified
 4502              		.thumb
 4503              		.thumb_func
 4505              	HAL_RTC_MspInit:
 4506              	.LVL363:
 4507              	.LFB341:
2033:Core/Src/main_unique.c **** 
2034:Core/Src/main_unique.c **** /*
2035:Core/Src/main_unique.c ****  * HAL_RTC_MspInit
2036:Core/Src/main_unique.c ****  * El RTC no usa pines externos en esta aplicacion: el cristal LSE se conecta
2037:Core/Src/main_unique.c ****  * a PC14 y PC15, que quedan bajo control del dominio de respaldo y no
2038:Core/Src/main_unique.c ****  * requieren configuracion GPIO.
2039:Core/Src/main_unique.c ****  */
2040:Core/Src/main_unique.c **** void HAL_RTC_MspInit(RTC_HandleTypeDef *h)
2041:Core/Src/main_unique.c **** {
 4508              		.loc 1 2041 1 is_stmt 1 view -0
 4509              		.cfi_startproc
 4510              		@ args = 0, pretend = 0, frame = 0
 4511              		@ frame_needed = 0, uses_anonymous_args = 0
 4512              		@ link register save eliminated.
2042:Core/Src/main_unique.c ****     (void)h;
 4513              		.loc 1 2042 5 view .LVU956
2043:Core/Src/main_unique.c ****     /* El reloj del RTC ya se habilito en rtc_init con __HAL_RCC_RTC_ENABLE */
2044:Core/Src/main_unique.c **** }
 4514              		.loc 1 2044 1 is_stmt 0 view .LVU957
 4515 0000 7047     		bx	lr
 4516              		.cfi_endproc
 4517              	.LFE341:
 4519              		.section	.text.NMI_Handler,"ax",%progbits
 4520              		.align	1
 4521              		.global	NMI_Handler
 4522              		.syntax unified
 4523              		.thumb
 4524              		.thumb_func
 4526              	NMI_Handler:
 4527              	.LFB342:
2045:Core/Src/main_unique.c **** 
2046:Core/Src/main_unique.c **** /* ==========================================================================
2047:Core/Src/main_unique.c ****  * 14. Rutinas de servicio de interrupcion
2048:Core/Src/main_unique.c ****  *
ARM GAS  /tmp/ccjBgtoi.s 			page 129


2049:Core/Src/main_unique.c ****  *     Todos los perifericos salvo el I2C trabajan por interrupcion, tal como
2050:Core/Src/main_unique.c ****  *     exige el enunciado. Cada ISR se limita a delegar en el manejador
2051:Core/Src/main_unique.c ****  *     generico de la HAL, que a su vez invoca el callback correspondiente.
2052:Core/Src/main_unique.c ****  *     Ninguna ISR contiene logica de aplicacion.
2053:Core/Src/main_unique.c ****  *
2054:Core/Src/main_unique.c ****  *     Mapa de interrupciones y prioridades (0 = mas urgente):
2055:Core/Src/main_unique.c ****  *       USART2_IRQn    prioridad 5   recepcion y transmision serie
2056:Core/Src/main_unique.c ****  *       ADC_IRQn       prioridad 6   fin de conversion de cada eje
2057:Core/Src/main_unique.c ****  *       TIM3_IRQn      prioridad 7   base de 250 ms para el LED
2058:Core/Src/main_unique.c ****  *       TIM4_IRQn      prioridad 7   base de 100 ms del sistema
2059:Core/Src/main_unique.c ****  *       EXTI9_5_IRQn   prioridad 8   pulsador SW del joystick (PB5)
2060:Core/Src/main_unique.c ****  *       RTC_WKUP_IRQn  prioridad 9   despertador de 1 s del RTC
2061:Core/Src/main_unique.c ****  *       SysTick        prioridad 15  contador de milisegundos de la HAL
2062:Core/Src/main_unique.c ****  * ========================================================================== */
2063:Core/Src/main_unique.c **** 
2064:Core/Src/main_unique.c **** /* --- Excepciones del nucleo Cortex-M4 ------------------------------------ */
2065:Core/Src/main_unique.c **** void NMI_Handler(void)        { while (1) { } }  /* no enmascarable        */
 4528              		.loc 1 2065 31 is_stmt 1 view -0
 4529              		.cfi_startproc
 4530              		@ Volatile: function does not return.
 4531              		@ args = 0, pretend = 0, frame = 0
 4532              		@ frame_needed = 0, uses_anonymous_args = 0
 4533              		@ link register save eliminated.
 4534              	.L374:
 4535              		.loc 1 2065 33 view .LVU959
 4536              		.loc 1 2065 45 view .LVU960
 4537              		.loc 1 2065 39 view .LVU961
 4538 0000 FEE7     		b	.L374
 4539              		.cfi_endproc
 4540              	.LFE342:
 4542              		.section	.text.HardFault_Handler,"ax",%progbits
 4543              		.align	1
 4544              		.global	HardFault_Handler
 4545              		.syntax unified
 4546              		.thumb
 4547              		.thumb_func
 4549              	HardFault_Handler:
 4550              	.LFB343:
2066:Core/Src/main_unique.c **** void HardFault_Handler(void)  { while (1) { } }  /* fallo grave            */
 4551              		.loc 1 2066 31 view -0
 4552              		.cfi_startproc
 4553              		@ Volatile: function does not return.
 4554              		@ args = 0, pretend = 0, frame = 0
 4555              		@ frame_needed = 0, uses_anonymous_args = 0
 4556              		@ link register save eliminated.
 4557              	.L376:
 4558              		.loc 1 2066 33 view .LVU963
 4559              		.loc 1 2066 45 view .LVU964
 4560              		.loc 1 2066 39 view .LVU965
 4561 0000 FEE7     		b	.L376
 4562              		.cfi_endproc
 4563              	.LFE343:
 4565              		.section	.text.MemManage_Handler,"ax",%progbits
 4566              		.align	1
 4567              		.global	MemManage_Handler
 4568              		.syntax unified
 4569              		.thumb
ARM GAS  /tmp/ccjBgtoi.s 			page 130


 4570              		.thumb_func
 4572              	MemManage_Handler:
 4573              	.LFB344:
2067:Core/Src/main_unique.c **** void MemManage_Handler(void)  { while (1) { } }  /* violacion de la MPU    */
 4574              		.loc 1 2067 31 view -0
 4575              		.cfi_startproc
 4576              		@ Volatile: function does not return.
 4577              		@ args = 0, pretend = 0, frame = 0
 4578              		@ frame_needed = 0, uses_anonymous_args = 0
 4579              		@ link register save eliminated.
 4580              	.L378:
 4581              		.loc 1 2067 33 view .LVU967
 4582              		.loc 1 2067 45 view .LVU968
 4583              		.loc 1 2067 39 view .LVU969
 4584 0000 FEE7     		b	.L378
 4585              		.cfi_endproc
 4586              	.LFE344:
 4588              		.section	.text.BusFault_Handler,"ax",%progbits
 4589              		.align	1
 4590              		.global	BusFault_Handler
 4591              		.syntax unified
 4592              		.thumb
 4593              		.thumb_func
 4595              	BusFault_Handler:
 4596              	.LFB345:
2068:Core/Src/main_unique.c **** void BusFault_Handler(void)   { while (1) { } }  /* fallo de bus           */
 4597              		.loc 1 2068 31 view -0
 4598              		.cfi_startproc
 4599              		@ Volatile: function does not return.
 4600              		@ args = 0, pretend = 0, frame = 0
 4601              		@ frame_needed = 0, uses_anonymous_args = 0
 4602              		@ link register save eliminated.
 4603              	.L380:
 4604              		.loc 1 2068 33 view .LVU971
 4605              		.loc 1 2068 45 view .LVU972
 4606              		.loc 1 2068 39 view .LVU973
 4607 0000 FEE7     		b	.L380
 4608              		.cfi_endproc
 4609              	.LFE345:
 4611              		.section	.text.UsageFault_Handler,"ax",%progbits
 4612              		.align	1
 4613              		.global	UsageFault_Handler
 4614              		.syntax unified
 4615              		.thumb
 4616              		.thumb_func
 4618              	UsageFault_Handler:
 4619              	.LFB346:
2069:Core/Src/main_unique.c **** void UsageFault_Handler(void) { while (1) { } }  /* instruccion invalida   */
 4620              		.loc 1 2069 31 view -0
 4621              		.cfi_startproc
 4622              		@ Volatile: function does not return.
 4623              		@ args = 0, pretend = 0, frame = 0
 4624              		@ frame_needed = 0, uses_anonymous_args = 0
 4625              		@ link register save eliminated.
 4626              	.L382:
 4627              		.loc 1 2069 33 view .LVU975
 4628              		.loc 1 2069 45 view .LVU976
ARM GAS  /tmp/ccjBgtoi.s 			page 131


 4629              		.loc 1 2069 39 view .LVU977
 4630 0000 FEE7     		b	.L382
 4631              		.cfi_endproc
 4632              	.LFE346:
 4634              		.section	.text.SVC_Handler,"ax",%progbits
 4635              		.align	1
 4636              		.global	SVC_Handler
 4637              		.syntax unified
 4638              		.thumb
 4639              		.thumb_func
 4641              	SVC_Handler:
 4642              	.LFB347:
2070:Core/Src/main_unique.c **** void SVC_Handler(void)        { }                /* llamada al supervisor  */
 4643              		.loc 1 2070 31 view -0
 4644              		.cfi_startproc
 4645              		@ args = 0, pretend = 0, frame = 0
 4646              		@ frame_needed = 0, uses_anonymous_args = 0
 4647              		@ link register save eliminated.
 4648              		.loc 1 2070 33 view .LVU979
 4649 0000 7047     		bx	lr
 4650              		.cfi_endproc
 4651              	.LFE347:
 4653              		.section	.text.DebugMon_Handler,"ax",%progbits
 4654              		.align	1
 4655              		.global	DebugMon_Handler
 4656              		.syntax unified
 4657              		.thumb
 4658              		.thumb_func
 4660              	DebugMon_Handler:
 4661              	.LFB348:
2071:Core/Src/main_unique.c **** void DebugMon_Handler(void)   { }                /* monitor de depuracion  */
 4662              		.loc 1 2071 31 view -0
 4663              		.cfi_startproc
 4664              		@ args = 0, pretend = 0, frame = 0
 4665              		@ frame_needed = 0, uses_anonymous_args = 0
 4666              		@ link register save eliminated.
 4667              		.loc 1 2071 33 view .LVU981
 4668 0000 7047     		bx	lr
 4669              		.cfi_endproc
 4670              	.LFE348:
 4672              		.section	.text.PendSV_Handler,"ax",%progbits
 4673              		.align	1
 4674              		.global	PendSV_Handler
 4675              		.syntax unified
 4676              		.thumb
 4677              		.thumb_func
 4679              	PendSV_Handler:
 4680              	.LFB349:
2072:Core/Src/main_unique.c **** void PendSV_Handler(void)     { }                /* cambio de contexto     */
 4681              		.loc 1 2072 31 view -0
 4682              		.cfi_startproc
 4683              		@ args = 0, pretend = 0, frame = 0
 4684              		@ frame_needed = 0, uses_anonymous_args = 0
 4685              		@ link register save eliminated.
 4686              		.loc 1 2072 33 view .LVU983
 4687 0000 7047     		bx	lr
 4688              		.cfi_endproc
ARM GAS  /tmp/ccjBgtoi.s 			page 132


 4689              	.LFE349:
 4691              		.section	.text.SysTick_Handler,"ax",%progbits
 4692              		.align	1
 4693              		.global	SysTick_Handler
 4694              		.syntax unified
 4695              		.thumb
 4696              		.thumb_func
 4698              	SysTick_Handler:
 4699              	.LFB350:
2073:Core/Src/main_unique.c **** 
2074:Core/Src/main_unique.c **** /*
2075:Core/Src/main_unique.c ****  * SysTick_Handler
2076:Core/Src/main_unique.c ****  * Se dispara cada milisegundo. Incrementa el contador que sostiene
2077:Core/Src/main_unique.c ****  * HAL_GetTick() y HAL_Delay(); sin el, cualquier funcion de la HAL con
2078:Core/Src/main_unique.c ****  * tiempo maximo de espera se bloquearia para siempre.
2079:Core/Src/main_unique.c ****  */
2080:Core/Src/main_unique.c **** void SysTick_Handler(void)
2081:Core/Src/main_unique.c **** {
 4700              		.loc 1 2081 1 view -0
 4701              		.cfi_startproc
 4702              		@ args = 0, pretend = 0, frame = 0
 4703              		@ frame_needed = 0, uses_anonymous_args = 0
 4704 0000 08B5     		push	{r3, lr}
 4705              	.LCFI78:
 4706              		.cfi_def_cfa_offset 8
 4707              		.cfi_offset 3, -8
 4708              		.cfi_offset 14, -4
2082:Core/Src/main_unique.c ****     HAL_IncTick();
 4709              		.loc 1 2082 5 view .LVU985
 4710 0002 FFF7FEFF 		bl	HAL_IncTick
 4711              	.LVL364:
2083:Core/Src/main_unique.c **** }
 4712              		.loc 1 2083 1 is_stmt 0 view .LVU986
 4713 0006 08BD     		pop	{r3, pc}
 4714              		.cfi_endproc
 4715              	.LFE350:
 4717              		.section	.text.USART2_IRQHandler,"ax",%progbits
 4718              		.align	1
 4719              		.global	USART2_IRQHandler
 4720              		.syntax unified
 4721              		.thumb
 4722              		.thumb_func
 4724              	USART2_IRQHandler:
 4725              	.LFB351:
2084:Core/Src/main_unique.c **** 
2085:Core/Src/main_unique.c **** /* --- Interrupciones de periferico ---------------------------------------- */
2086:Core/Src/main_unique.c **** 
2087:Core/Src/main_unique.c **** /*
2088:Core/Src/main_unique.c ****  * USART2_IRQHandler
2089:Core/Src/main_unique.c ****  * Atiende recepcion, transmision y errores. HAL_UART_IRQHandler decide cual
2090:Core/Src/main_unique.c ****  * de los tres casos aplica e invoca HAL_UART_RxCpltCallback,
2091:Core/Src/main_unique.c ****  * HAL_UART_TxCpltCallback o HAL_UART_ErrorCallback.
2092:Core/Src/main_unique.c ****  */
2093:Core/Src/main_unique.c **** void USART2_IRQHandler(void)
2094:Core/Src/main_unique.c **** {
 4726              		.loc 1 2094 1 is_stmt 1 view -0
 4727              		.cfi_startproc
ARM GAS  /tmp/ccjBgtoi.s 			page 133


 4728              		@ args = 0, pretend = 0, frame = 0
 4729              		@ frame_needed = 0, uses_anonymous_args = 0
 4730 0000 08B5     		push	{r3, lr}
 4731              	.LCFI79:
 4732              		.cfi_def_cfa_offset 8
 4733              		.cfi_offset 3, -8
 4734              		.cfi_offset 14, -4
2095:Core/Src/main_unique.c ****     HAL_UART_IRQHandler(&huart2);
 4735              		.loc 1 2095 5 view .LVU988
 4736 0002 0248     		ldr	r0, .L390
 4737 0004 FFF7FEFF 		bl	HAL_UART_IRQHandler
 4738              	.LVL365:
2096:Core/Src/main_unique.c **** }
 4739              		.loc 1 2096 1 is_stmt 0 view .LVU989
 4740 0008 08BD     		pop	{r3, pc}
 4741              	.L391:
 4742 000a 00BF     		.align	2
 4743              	.L390:
 4744 000c 00000000 		.word	huart2
 4745              		.cfi_endproc
 4746              	.LFE351:
 4748              		.section	.text.ADC_IRQHandler,"ax",%progbits
 4749              		.align	1
 4750              		.global	ADC_IRQHandler
 4751              		.syntax unified
 4752              		.thumb
 4753              		.thumb_func
 4755              	ADC_IRQHandler:
 4756              	.LFB352:
2097:Core/Src/main_unique.c **** 
2098:Core/Src/main_unique.c **** /*
2099:Core/Src/main_unique.c ****  * ADC_IRQHandler
2100:Core/Src/main_unique.c ****  * El STM32F411 comparte un unico vector para todos sus ADC.
2101:Core/Src/main_unique.c ****  * Deriva en HAL_ADC_ConvCpltCallback.
2102:Core/Src/main_unique.c ****  */
2103:Core/Src/main_unique.c **** void ADC_IRQHandler(void)
2104:Core/Src/main_unique.c **** {
 4757              		.loc 1 2104 1 is_stmt 1 view -0
 4758              		.cfi_startproc
 4759              		@ args = 0, pretend = 0, frame = 0
 4760              		@ frame_needed = 0, uses_anonymous_args = 0
 4761 0000 08B5     		push	{r3, lr}
 4762              	.LCFI80:
 4763              		.cfi_def_cfa_offset 8
 4764              		.cfi_offset 3, -8
 4765              		.cfi_offset 14, -4
2105:Core/Src/main_unique.c ****     HAL_ADC_IRQHandler(&hadc1);
 4766              		.loc 1 2105 5 view .LVU991
 4767 0002 0248     		ldr	r0, .L394
 4768 0004 FFF7FEFF 		bl	HAL_ADC_IRQHandler
 4769              	.LVL366:
2106:Core/Src/main_unique.c **** }
 4770              		.loc 1 2106 1 is_stmt 0 view .LVU992
 4771 0008 08BD     		pop	{r3, pc}
 4772              	.L395:
 4773 000a 00BF     		.align	2
 4774              	.L394:
ARM GAS  /tmp/ccjBgtoi.s 			page 134


 4775 000c 00000000 		.word	hadc1
 4776              		.cfi_endproc
 4777              	.LFE352:
 4779              		.section	.text.TIM3_IRQHandler,"ax",%progbits
 4780              		.align	1
 4781              		.global	TIM3_IRQHandler
 4782              		.syntax unified
 4783              		.thumb
 4784              		.thumb_func
 4786              	TIM3_IRQHandler:
 4787              	.LFB353:
2107:Core/Src/main_unique.c **** 
2108:Core/Src/main_unique.c **** /*
2109:Core/Src/main_unique.c ****  * TIM3_IRQHandler
2110:Core/Src/main_unique.c ****  * Desbordamiento cada 250 ms. Deriva en HAL_TIM_PeriodElapsedCallback,
2111:Core/Src/main_unique.c ****  * que conmuta el LED de PH1.
2112:Core/Src/main_unique.c ****  */
2113:Core/Src/main_unique.c **** void TIM3_IRQHandler(void)
2114:Core/Src/main_unique.c **** {
 4788              		.loc 1 2114 1 is_stmt 1 view -0
 4789              		.cfi_startproc
 4790              		@ args = 0, pretend = 0, frame = 0
 4791              		@ frame_needed = 0, uses_anonymous_args = 0
 4792 0000 08B5     		push	{r3, lr}
 4793              	.LCFI81:
 4794              		.cfi_def_cfa_offset 8
 4795              		.cfi_offset 3, -8
 4796              		.cfi_offset 14, -4
2115:Core/Src/main_unique.c ****     HAL_TIM_IRQHandler(&htim3);
 4797              		.loc 1 2115 5 view .LVU994
 4798 0002 0248     		ldr	r0, .L398
 4799 0004 FFF7FEFF 		bl	HAL_TIM_IRQHandler
 4800              	.LVL367:
2116:Core/Src/main_unique.c **** }
 4801              		.loc 1 2116 1 is_stmt 0 view .LVU995
 4802 0008 08BD     		pop	{r3, pc}
 4803              	.L399:
 4804 000a 00BF     		.align	2
 4805              	.L398:
 4806 000c 00000000 		.word	htim3
 4807              		.cfi_endproc
 4808              	.LFE353:
 4810              		.section	.text.TIM4_IRQHandler,"ax",%progbits
 4811              		.align	1
 4812              		.global	TIM4_IRQHandler
 4813              		.syntax unified
 4814              		.thumb
 4815              		.thumb_func
 4817              	TIM4_IRQHandler:
 4818              	.LFB354:
2117:Core/Src/main_unique.c **** 
2118:Core/Src/main_unique.c **** /*
2119:Core/Src/main_unique.c ****  * TIM4_IRQHandler
2120:Core/Src/main_unique.c ****  * Desbordamiento cada 100 ms. Lanza la conversion del ADC y encola el
2121:Core/Src/main_unique.c ****  * evento periodico de la maquina de estados.
2122:Core/Src/main_unique.c ****  */
2123:Core/Src/main_unique.c **** void TIM4_IRQHandler(void)
ARM GAS  /tmp/ccjBgtoi.s 			page 135


2124:Core/Src/main_unique.c **** {
 4819              		.loc 1 2124 1 is_stmt 1 view -0
 4820              		.cfi_startproc
 4821              		@ args = 0, pretend = 0, frame = 0
 4822              		@ frame_needed = 0, uses_anonymous_args = 0
 4823 0000 08B5     		push	{r3, lr}
 4824              	.LCFI82:
 4825              		.cfi_def_cfa_offset 8
 4826              		.cfi_offset 3, -8
 4827              		.cfi_offset 14, -4
2125:Core/Src/main_unique.c ****     HAL_TIM_IRQHandler(&htim4);
 4828              		.loc 1 2125 5 view .LVU997
 4829 0002 0248     		ldr	r0, .L402
 4830 0004 FFF7FEFF 		bl	HAL_TIM_IRQHandler
 4831              	.LVL368:
2126:Core/Src/main_unique.c **** }
 4832              		.loc 1 2126 1 is_stmt 0 view .LVU998
 4833 0008 08BD     		pop	{r3, pc}
 4834              	.L403:
 4835 000a 00BF     		.align	2
 4836              	.L402:
 4837 000c 00000000 		.word	htim4
 4838              		.cfi_endproc
 4839              	.LFE354:
 4841              		.section	.text.EXTI9_5_IRQHandler,"ax",%progbits
 4842              		.align	1
 4843              		.global	EXTI9_5_IRQHandler
 4844              		.syntax unified
 4845              		.thumb
 4846              		.thumb_func
 4848              	EXTI9_5_IRQHandler:
 4849              	.LFB355:
2127:Core/Src/main_unique.c **** 
2128:Core/Src/main_unique.c **** /*
2129:Core/Src/main_unique.c ****  * EXTI9_5_IRQHandler
2130:Core/Src/main_unique.c ****  * Vector compartido por las lineas EXTI 5 a 9. HAL_GPIO_EXTI_IRQHandler
2131:Core/Src/main_unique.c ****  * comprueba cual de ellas esta pendiente, limpia la bandera e invoca
2132:Core/Src/main_unique.c ****  * HAL_GPIO_EXTI_Callback.
2133:Core/Src/main_unique.c ****  */
2134:Core/Src/main_unique.c **** void EXTI9_5_IRQHandler(void)
2135:Core/Src/main_unique.c **** {
 4850              		.loc 1 2135 1 is_stmt 1 view -0
 4851              		.cfi_startproc
 4852              		@ args = 0, pretend = 0, frame = 0
 4853              		@ frame_needed = 0, uses_anonymous_args = 0
 4854 0000 08B5     		push	{r3, lr}
 4855              	.LCFI83:
 4856              		.cfi_def_cfa_offset 8
 4857              		.cfi_offset 3, -8
 4858              		.cfi_offset 14, -4
2136:Core/Src/main_unique.c ****     HAL_GPIO_EXTI_IRQHandler(JOY_SW_PIN);
 4859              		.loc 1 2136 5 view .LVU1000
 4860 0002 2020     		movs	r0, #32
 4861 0004 FFF7FEFF 		bl	HAL_GPIO_EXTI_IRQHandler
 4862              	.LVL369:
2137:Core/Src/main_unique.c **** }
 4863              		.loc 1 2137 1 is_stmt 0 view .LVU1001
ARM GAS  /tmp/ccjBgtoi.s 			page 136


 4864 0008 08BD     		pop	{r3, pc}
 4865              		.cfi_endproc
 4866              	.LFE355:
 4868              		.section	.text.RTC_WKUP_IRQHandler,"ax",%progbits
 4869              		.align	1
 4870              		.global	RTC_WKUP_IRQHandler
 4871              		.syntax unified
 4872              		.thumb
 4873              		.thumb_func
 4875              	RTC_WKUP_IRQHandler:
 4876              	.LFB356:
2138:Core/Src/main_unique.c **** 
2139:Core/Src/main_unique.c **** /*
2140:Core/Src/main_unique.c ****  * RTC_WKUP_IRQHandler
2141:Core/Src/main_unique.c ****  * Despertador periodico de 1 s. Deriva en
2142:Core/Src/main_unique.c ****  * HAL_RTCEx_WakeUpTimerEventCallback.
2143:Core/Src/main_unique.c ****  */
2144:Core/Src/main_unique.c **** void RTC_WKUP_IRQHandler(void)
2145:Core/Src/main_unique.c **** {
 4877              		.loc 1 2145 1 is_stmt 1 view -0
 4878              		.cfi_startproc
 4879              		@ args = 0, pretend = 0, frame = 0
 4880              		@ frame_needed = 0, uses_anonymous_args = 0
 4881 0000 08B5     		push	{r3, lr}
 4882              	.LCFI84:
 4883              		.cfi_def_cfa_offset 8
 4884              		.cfi_offset 3, -8
 4885              		.cfi_offset 14, -4
2146:Core/Src/main_unique.c ****     HAL_RTCEx_WakeUpTimerIRQHandler(&hrtc);
 4886              		.loc 1 2146 5 view .LVU1003
 4887 0002 0248     		ldr	r0, .L408
 4888 0004 FFF7FEFF 		bl	HAL_RTCEx_WakeUpTimerIRQHandler
 4889              	.LVL370:
2147:Core/Src/main_unique.c **** }
 4890              		.loc 1 2147 1 is_stmt 0 view .LVU1004
 4891 0008 08BD     		pop	{r3, pc}
 4892              	.L409:
 4893 000a 00BF     		.align	2
 4894              	.L408:
 4895 000c 00000000 		.word	hrtc
 4896              		.cfi_endproc
 4897              	.LFE356:
 4899              		.section	.text.HAL_GPIO_EXTI_Callback,"ax",%progbits
 4900              		.align	1
 4901              		.global	HAL_GPIO_EXTI_Callback
 4902              		.syntax unified
 4903              		.thumb
 4904              		.thumb_func
 4906              	HAL_GPIO_EXTI_Callback:
 4907              	.LVL371:
 4908              	.LFB357:
2148:Core/Src/main_unique.c **** 
2149:Core/Src/main_unique.c **** /*
2150:Core/Src/main_unique.c ****  * HAL_GPIO_EXTI_Callback
2151:Core/Src/main_unique.c ****  * Callback comun a todas las lineas EXTI. Incorpora el antirrebote por
2152:Core/Src/main_unique.c ****  * software: los contactos mecanicos del pulsador generan decenas de flancos
2153:Core/Src/main_unique.c ****  * espurios durante algunos milisegundos, por lo que se ignora todo flanco
ARM GAS  /tmp/ccjBgtoi.s 			page 137


2154:Core/Src/main_unique.c ****  * que llegue antes de 200 ms desde el anterior.
2155:Core/Src/main_unique.c ****  */
2156:Core/Src/main_unique.c **** void HAL_GPIO_EXTI_Callback(uint16_t pin)
2157:Core/Src/main_unique.c **** {
 4909              		.loc 1 2157 1 is_stmt 1 view -0
 4910              		.cfi_startproc
 4911              		@ args = 0, pretend = 0, frame = 0
 4912              		@ frame_needed = 0, uses_anonymous_args = 0
 4913              		.loc 1 2157 1 is_stmt 0 view .LVU1006
 4914 0000 10B5     		push	{r4, lr}
 4915              	.LCFI85:
 4916              		.cfi_def_cfa_offset 8
 4917              		.cfi_offset 4, -8
 4918              		.cfi_offset 14, -4
 4919 0002 0446     		mov	r4, r0
2158:Core/Src/main_unique.c ****     static uint32_t last = 0;    /* marca temporal del ultimo flanco valido */
 4920              		.loc 1 2158 5 is_stmt 1 view .LVU1007
2159:Core/Src/main_unique.c ****     uint32_t now = HAL_GetTick();
 4921              		.loc 1 2159 5 view .LVU1008
 4922              		.loc 1 2159 20 is_stmt 0 view .LVU1009
 4923 0004 FFF7FEFF 		bl	HAL_GetTick
 4924              	.LVL372:
2160:Core/Src/main_unique.c **** 
2161:Core/Src/main_unique.c ****     if (pin != JOY_SW_PIN) {
 4925              		.loc 1 2161 5 is_stmt 1 view .LVU1010
 4926              		.loc 1 2161 8 is_stmt 0 view .LVU1011
 4927 0008 202C     		cmp	r4, #32
 4928 000a 04D1     		bne	.L410
2162:Core/Src/main_unique.c ****         return;
2163:Core/Src/main_unique.c ****     }
2164:Core/Src/main_unique.c ****     if ((now - last) < 200U) {
 4929              		.loc 1 2164 5 is_stmt 1 view .LVU1012
 4930              		.loc 1 2164 14 is_stmt 0 view .LVU1013
 4931 000c 054B     		ldr	r3, .L414
 4932 000e 1B68     		ldr	r3, [r3]
 4933 0010 C31A     		subs	r3, r0, r3
 4934              		.loc 1 2164 8 view .LVU1014
 4935 0012 C72B     		cmp	r3, #199
 4936 0014 00D8     		bhi	.L413
 4937              	.LVL373:
 4938              	.L410:
2165:Core/Src/main_unique.c ****         return;                  /* rebote: se descarta */
2166:Core/Src/main_unique.c ****     }
2167:Core/Src/main_unique.c ****     last = now;
2168:Core/Src/main_unique.c **** 
2169:Core/Src/main_unique.c ****     fsm_post_event(EV_BUTTON);
2170:Core/Src/main_unique.c **** }
 4939              		.loc 1 2170 1 view .LVU1015
 4940 0016 10BD     		pop	{r4, pc}
 4941              	.LVL374:
 4942              	.L413:
2167:Core/Src/main_unique.c **** 
 4943              		.loc 1 2167 5 is_stmt 1 view .LVU1016
2167:Core/Src/main_unique.c **** 
 4944              		.loc 1 2167 10 is_stmt 0 view .LVU1017
 4945 0018 024B     		ldr	r3, .L414
 4946 001a 1860     		str	r0, [r3]
ARM GAS  /tmp/ccjBgtoi.s 			page 138


2169:Core/Src/main_unique.c **** }
 4947              		.loc 1 2169 5 is_stmt 1 view .LVU1018
 4948 001c 0C20     		movs	r0, #12
 4949              	.LVL375:
2169:Core/Src/main_unique.c **** }
 4950              		.loc 1 2169 5 is_stmt 0 view .LVU1019
 4951 001e FFF7FEFF 		bl	fsm_post_event
 4952              	.LVL376:
2169:Core/Src/main_unique.c **** }
 4953              		.loc 1 2169 5 view .LVU1020
 4954 0022 F8E7     		b	.L410
 4955              	.L415:
 4956              		.align	2
 4957              	.L414:
 4958 0024 00000000 		.word	last.1
 4959              		.cfi_endproc
 4960              	.LFE357:
 4962              		.section	.text._sbrk,"ax",%progbits
 4963              		.align	1
 4964              		.global	_sbrk
 4965              		.syntax unified
 4966              		.thumb
 4967              		.thumb_func
 4969              	_sbrk:
 4970              	.LVL377:
 4971              	.LFB358:
2171:Core/Src/main_unique.c **** 
2172:Core/Src/main_unique.c **** /* ==========================================================================
2173:Core/Src/main_unique.c ****  * 15. Stubs de llamadas al sistema que exige newlib
2174:Core/Src/main_unique.c ****  *     En un sistema bare-metal no hay sistema operativo, por lo que se
2175:Core/Src/main_unique.c ****  *     proporcionan implementaciones minimas para satisfacer al enlazador.
2176:Core/Src/main_unique.c ****  * ========================================================================== */
2177:Core/Src/main_unique.c **** 
2178:Core/Src/main_unique.c **** /* Puntero al final de la region estatica; lo define el linker script */
2179:Core/Src/main_unique.c **** extern int _end;
2180:Core/Src/main_unique.c **** 
2181:Core/Src/main_unique.c **** /*
2182:Core/Src/main_unique.c ****  * _sbrk: reserva memoria para el heap (usado por malloc).
2183:Core/Src/main_unique.c ****  * Avanza un puntero desde el final de .bss.
2184:Core/Src/main_unique.c ****  */
2185:Core/Src/main_unique.c **** void *_sbrk(int incr)
2186:Core/Src/main_unique.c **** {
 4972              		.loc 1 2186 1 is_stmt 1 view -0
 4973              		.cfi_startproc
 4974              		@ args = 0, pretend = 0, frame = 0
 4975              		@ frame_needed = 0, uses_anonymous_args = 0
 4976              		@ link register save eliminated.
 4977              		.loc 1 2186 1 is_stmt 0 view .LVU1022
 4978 0000 0346     		mov	r3, r0
2187:Core/Src/main_unique.c ****     static unsigned char *heap = NULL;  /* posicion actual del heap */
 4979              		.loc 1 2187 5 is_stmt 1 view .LVU1023
2188:Core/Src/main_unique.c ****     unsigned char *prev;
 4980              		.loc 1 2188 5 view .LVU1024
2189:Core/Src/main_unique.c **** 
2190:Core/Src/main_unique.c ****     if (heap == NULL) {
 4981              		.loc 1 2190 5 view .LVU1025
 4982              		.loc 1 2190 14 is_stmt 0 view .LVU1026
ARM GAS  /tmp/ccjBgtoi.s 			page 139


 4983 0002 064A     		ldr	r2, .L419
 4984 0004 1268     		ldr	r2, [r2]
 4985              		.loc 1 2190 8 view .LVU1027
 4986 0006 22B1     		cbz	r2, .L418
 4987              	.L417:
2191:Core/Src/main_unique.c ****         heap = (unsigned char *)&_end;  /* primera llamada: arranca en _end */
2192:Core/Src/main_unique.c ****     }
2193:Core/Src/main_unique.c ****     prev = heap;
 4988              		.loc 1 2193 5 is_stmt 1 view .LVU1028
 4989              		.loc 1 2193 10 is_stmt 0 view .LVU1029
 4990 0008 044A     		ldr	r2, .L419
 4991 000a 1068     		ldr	r0, [r2]
 4992              	.LVL378:
2194:Core/Src/main_unique.c ****     heap += incr;
 4993              		.loc 1 2194 5 is_stmt 1 view .LVU1030
 4994              		.loc 1 2194 10 is_stmt 0 view .LVU1031
 4995 000c 0344     		add	r3, r3, r0
 4996              	.LVL379:
 4997              		.loc 1 2194 10 view .LVU1032
 4998 000e 1360     		str	r3, [r2]
2195:Core/Src/main_unique.c ****     return (void *)prev;
 4999              		.loc 1 2195 5 is_stmt 1 view .LVU1033
2196:Core/Src/main_unique.c **** }
 5000              		.loc 1 2196 1 is_stmt 0 view .LVU1034
 5001 0010 7047     		bx	lr
 5002              	.LVL380:
 5003              	.L418:
2191:Core/Src/main_unique.c ****     }
 5004              		.loc 1 2191 9 is_stmt 1 view .LVU1035
2191:Core/Src/main_unique.c ****     }
 5005              		.loc 1 2191 14 is_stmt 0 view .LVU1036
 5006 0012 024A     		ldr	r2, .L419
 5007 0014 0249     		ldr	r1, .L419+4
 5008 0016 1160     		str	r1, [r2]
 5009 0018 F6E7     		b	.L417
 5010              	.L420:
 5011 001a 00BF     		.align	2
 5012              	.L419:
 5013 001c 00000000 		.word	heap.0
 5014 0020 00000000 		.word	_end
 5015              		.cfi_endproc
 5016              	.LFE358:
 5018              		.section	.text._close,"ax",%progbits
 5019              		.align	1
 5020              		.global	_close
 5021              		.syntax unified
 5022              		.thumb
 5023              		.thumb_func
 5025              	_close:
 5026              	.LVL381:
 5027              	.LFB359:
2197:Core/Src/main_unique.c **** 
2198:Core/Src/main_unique.c **** int  _close(int file)                       { (void)file; return -1; }
 5028              		.loc 1 2198 45 is_stmt 1 view -0
 5029              		.cfi_startproc
 5030              		@ args = 0, pretend = 0, frame = 0
 5031              		@ frame_needed = 0, uses_anonymous_args = 0
ARM GAS  /tmp/ccjBgtoi.s 			page 140


 5032              		@ link register save eliminated.
 5033              		.loc 1 2198 47 view .LVU1038
 5034              		.loc 1 2198 59 view .LVU1039
 5035              		.loc 1 2198 70 is_stmt 0 view .LVU1040
 5036 0000 4FF0FF30 		mov	r0, #-1
 5037              	.LVL382:
 5038              		.loc 1 2198 70 view .LVU1041
 5039 0004 7047     		bx	lr
 5040              		.cfi_endproc
 5041              	.LFE359:
 5043              		.section	.text._fstat,"ax",%progbits
 5044              		.align	1
 5045              		.global	_fstat
 5046              		.syntax unified
 5047              		.thumb
 5048              		.thumb_func
 5050              	_fstat:
 5051              	.LVL383:
 5052              	.LFB360:
2199:Core/Src/main_unique.c **** int  _fstat(int file, struct stat *st)      { (void)file; st->st_mode = S_IFCHR; return 0; }
 5053              		.loc 1 2199 45 is_stmt 1 view -0
 5054              		.cfi_startproc
 5055              		@ args = 0, pretend = 0, frame = 0
 5056              		@ frame_needed = 0, uses_anonymous_args = 0
 5057              		@ link register save eliminated.
 5058              		.loc 1 2199 47 view .LVU1043
 5059              		.loc 1 2199 59 view .LVU1044
 5060              		.loc 1 2199 71 is_stmt 0 view .LVU1045
 5061 0000 4FF40053 		mov	r3, #8192
 5062 0004 4B60     		str	r3, [r1, #4]
 5063              		.loc 1 2199 82 is_stmt 1 view .LVU1046
 5064              		.loc 1 2199 92 is_stmt 0 view .LVU1047
 5065 0006 0020     		movs	r0, #0
 5066              	.LVL384:
 5067              		.loc 1 2199 92 view .LVU1048
 5068 0008 7047     		bx	lr
 5069              		.cfi_endproc
 5070              	.LFE360:
 5072              		.section	.text._isatty,"ax",%progbits
 5073              		.align	1
 5074              		.global	_isatty
 5075              		.syntax unified
 5076              		.thumb
 5077              		.thumb_func
 5079              	_isatty:
 5080              	.LVL385:
 5081              	.LFB361:
2200:Core/Src/main_unique.c **** int  _isatty(int file)                      { (void)file; return 1; }
 5082              		.loc 1 2200 45 is_stmt 1 view -0
 5083              		.cfi_startproc
 5084              		@ args = 0, pretend = 0, frame = 0
 5085              		@ frame_needed = 0, uses_anonymous_args = 0
 5086              		@ link register save eliminated.
 5087              		.loc 1 2200 47 view .LVU1050
 5088              		.loc 1 2200 59 view .LVU1051
 5089              		.loc 1 2200 69 is_stmt 0 view .LVU1052
 5090 0000 0120     		movs	r0, #1
ARM GAS  /tmp/ccjBgtoi.s 			page 141


 5091              	.LVL386:
 5092              		.loc 1 2200 69 view .LVU1053
 5093 0002 7047     		bx	lr
 5094              		.cfi_endproc
 5095              	.LFE361:
 5097              		.section	.text._lseek,"ax",%progbits
 5098              		.align	1
 5099              		.global	_lseek
 5100              		.syntax unified
 5101              		.thumb
 5102              		.thumb_func
 5104              	_lseek:
 5105              	.LVL387:
 5106              	.LFB362:
2201:Core/Src/main_unique.c **** int  _lseek(int file, int ptr, int dir)     { (void)file; (void)ptr; (void)dir; return 0; }
 5107              		.loc 1 2201 45 is_stmt 1 view -0
 5108              		.cfi_startproc
 5109              		@ args = 0, pretend = 0, frame = 0
 5110              		@ frame_needed = 0, uses_anonymous_args = 0
 5111              		@ link register save eliminated.
 5112              		.loc 1 2201 47 view .LVU1055
 5113              		.loc 1 2201 59 view .LVU1056
 5114              		.loc 1 2201 70 view .LVU1057
 5115              		.loc 1 2201 81 view .LVU1058
 5116              		.loc 1 2201 91 is_stmt 0 view .LVU1059
 5117 0000 0020     		movs	r0, #0
 5118              	.LVL388:
 5119              		.loc 1 2201 91 view .LVU1060
 5120 0002 7047     		bx	lr
 5121              		.cfi_endproc
 5122              	.LFE362:
 5124              		.section	.text._read,"ax",%progbits
 5125              		.align	1
 5126              		.global	_read
 5127              		.syntax unified
 5128              		.thumb
 5129              		.thumb_func
 5131              	_read:
 5132              	.LVL389:
 5133              	.LFB363:
2202:Core/Src/main_unique.c **** int  _read(int file, char *ptr, int len)    { (void)file; (void)ptr; (void)len; return 0; }
 5134              		.loc 1 2202 45 is_stmt 1 view -0
 5135              		.cfi_startproc
 5136              		@ args = 0, pretend = 0, frame = 0
 5137              		@ frame_needed = 0, uses_anonymous_args = 0
 5138              		@ link register save eliminated.
 5139              		.loc 1 2202 47 view .LVU1062
 5140              		.loc 1 2202 59 view .LVU1063
 5141              		.loc 1 2202 70 view .LVU1064
 5142              		.loc 1 2202 81 view .LVU1065
 5143              		.loc 1 2202 91 is_stmt 0 view .LVU1066
 5144 0000 0020     		movs	r0, #0
 5145              	.LVL390:
 5146              		.loc 1 2202 91 view .LVU1067
 5147 0002 7047     		bx	lr
 5148              		.cfi_endproc
 5149              	.LFE363:
ARM GAS  /tmp/ccjBgtoi.s 			page 142


 5151              		.section	.text._write,"ax",%progbits
 5152              		.align	1
 5153              		.global	_write
 5154              		.syntax unified
 5155              		.thumb
 5156              		.thumb_func
 5158              	_write:
 5159              	.LVL391:
 5160              	.LFB364:
2203:Core/Src/main_unique.c **** int  _write(int file, char *ptr, int len)   { (void)file; (void)ptr; return len; }
 5161              		.loc 1 2203 45 is_stmt 1 view -0
 5162              		.cfi_startproc
 5163              		@ args = 0, pretend = 0, frame = 0
 5164              		@ frame_needed = 0, uses_anonymous_args = 0
 5165              		@ link register save eliminated.
 5166              		.loc 1 2203 47 view .LVU1069
 5167              		.loc 1 2203 59 view .LVU1070
 5168              		.loc 1 2203 70 view .LVU1071
 5169              		.loc 1 2203 82 is_stmt 0 view .LVU1072
 5170 0000 1046     		mov	r0, r2
 5171              	.LVL392:
 5172              		.loc 1 2203 82 view .LVU1073
 5173 0002 7047     		bx	lr
 5174              		.cfi_endproc
 5175              	.LFE364:
 5177              		.section	.text._exit,"ax",%progbits
 5178              		.align	1
 5179              		.global	_exit
 5180              		.syntax unified
 5181              		.thumb
 5182              		.thumb_func
 5184              	_exit:
 5185              	.LFB365:
2204:Core/Src/main_unique.c **** void _exit(int status)                      { (void)status; while (1) { } }
 5186              		.loc 1 2204 45 is_stmt 1 view -0
 5187              		.cfi_startproc
 5188              		@ Volatile: function does not return.
 5189              		@ args = 0, pretend = 0, frame = 0
 5190              		@ frame_needed = 0, uses_anonymous_args = 0
 5191              		@ link register save eliminated.
 5192              	.LVL393:
 5193              	.L428:
 5194              		.loc 1 2204 47 view .LVU1075
 5195              		.loc 1 2204 61 view .LVU1076
 5196              		.loc 1 2204 73 view .LVU1077
 5197              		.loc 1 2204 67 view .LVU1078
 5198 0000 FEE7     		b	.L428
 5199              		.cfi_endproc
 5200              	.LFE365:
 5202              		.section	.text._kill,"ax",%progbits
 5203              		.align	1
 5204              		.global	_kill
 5205              		.syntax unified
 5206              		.thumb
 5207              		.thumb_func
 5209              	_kill:
 5210              	.LVL394:
ARM GAS  /tmp/ccjBgtoi.s 			page 143


 5211              	.LFB366:
2205:Core/Src/main_unique.c **** int  _kill(int pid, int sig)                { (void)pid; (void)sig; errno = EINVAL; return -1; }
 5212              		.loc 1 2205 45 view -0
 5213              		.cfi_startproc
 5214              		@ args = 0, pretend = 0, frame = 0
 5215              		@ frame_needed = 0, uses_anonymous_args = 0
 5216              		.loc 1 2205 45 is_stmt 0 view .LVU1080
 5217 0000 08B5     		push	{r3, lr}
 5218              	.LCFI86:
 5219              		.cfi_def_cfa_offset 8
 5220              		.cfi_offset 3, -8
 5221              		.cfi_offset 14, -4
 5222              		.loc 1 2205 47 is_stmt 1 view .LVU1081
 5223              		.loc 1 2205 58 view .LVU1082
 5224              		.loc 1 2205 69 view .LVU1083
 5225 0002 FFF7FEFF 		bl	__errno
 5226              	.LVL395:
 5227              		.loc 1 2205 75 is_stmt 0 discriminator 1 view .LVU1084
 5228 0006 1623     		movs	r3, #22
 5229 0008 0360     		str	r3, [r0]
 5230              		.loc 1 2205 85 is_stmt 1 discriminator 1 view .LVU1085
 5231              		.loc 1 2205 96 is_stmt 0 view .LVU1086
 5232 000a 4FF0FF30 		mov	r0, #-1
 5233 000e 08BD     		pop	{r3, pc}
 5234              		.cfi_endproc
 5235              	.LFE366:
 5237              		.section	.text._getpid,"ax",%progbits
 5238              		.align	1
 5239              		.global	_getpid
 5240              		.syntax unified
 5241              		.thumb
 5242              		.thumb_func
 5244              	_getpid:
 5245              	.LFB367:
2206:Core/Src/main_unique.c **** int  _getpid(void)                          { return 1; }
 5246              		.loc 1 2206 45 is_stmt 1 view -0
 5247              		.cfi_startproc
 5248              		@ args = 0, pretend = 0, frame = 0
 5249              		@ frame_needed = 0, uses_anonymous_args = 0
 5250              		@ link register save eliminated.
 5251              		.loc 1 2206 47 view .LVU1088
 5252              		.loc 1 2206 57 is_stmt 0 view .LVU1089
 5253 0000 0120     		movs	r0, #1
 5254 0002 7047     		bx	lr
 5255              		.cfi_endproc
 5256              	.LFE367:
 5258              		.section	.text.Error_Handler,"ax",%progbits
 5259              		.align	1
 5260              		.global	Error_Handler
 5261              		.syntax unified
 5262              		.thumb
 5263              		.thumb_func
 5265              	Error_Handler:
 5266              	.LFB369:
2207:Core/Src/main_unique.c **** 
2208:Core/Src/main_unique.c **** /* ==========================================================================
2209:Core/Src/main_unique.c ****  * 16. Punto de entrada
ARM GAS  /tmp/ccjBgtoi.s 			page 144


2210:Core/Src/main_unique.c ****  * ========================================================================== */
2211:Core/Src/main_unique.c **** 
2212:Core/Src/main_unique.c **** int main(void)
2213:Core/Src/main_unique.c **** {
2214:Core/Src/main_unique.c ****     /* --- Capa de arranque ------------------------------------------------ */
2215:Core/Src/main_unique.c ****     HAL_Init();     /* configura la FLASH, el SysTick a 1 ms y llama a
2216:Core/Src/main_unique.c ****                        HAL_MspInit(). Debe ser la primera llamada. */
2217:Core/Src/main_unique.c **** 
2218:Core/Src/main_unique.c ****     /* Cuatro bits de prioridad de expropiacion y ninguno de subprioridad.
2219:Core/Src/main_unique.c ****        Simplifica el diseno: el numero que se pasa a HAL_NVIC_SetPriority es
2220:Core/Src/main_unique.c ****        directamente la prioridad, entre 0 (maxima) y 15 (minima). */
2221:Core/Src/main_unique.c ****     HAL_NVIC_SetPriorityGrouping(NVIC_PRIORITYGROUP_4);
2222:Core/Src/main_unique.c **** 
2223:Core/Src/main_unique.c ****     system_clock_init();   /* SYSCLK a 100 MHz, LSE en marcha, MCO1 activa */
2224:Core/Src/main_unique.c **** 
2225:Core/Src/main_unique.c ****     /* --- Perifericos ----------------------------------------------------- */
2226:Core/Src/main_unique.c ****     gpio_init();           /* LED en PH1 y pulsador del joystick en PB5     */
2227:Core/Src/main_unique.c ****     uart_init();           /* USART2 a 115200 por interrupciones            */
2228:Core/Src/main_unique.c ****     adc_joystick_init();   /* ADC1 sobre PA0 y PA1 por interrupciones       */
2229:Core/Src/main_unique.c ****     rtc_init();            /* RTC con LSE y despertador de 1 s              */
2230:Core/Src/main_unique.c ****     lcd_init();            /* LCD por I2C1 (unico periferico sondeado)      */
2231:Core/Src/main_unique.c ****     timer_init();          /* TIM3 (LED, 250 ms) y TIM4 (base de 100 ms)    */
2232:Core/Src/main_unique.c **** 
2233:Core/Src/main_unique.c ****     /* --- Aplicacion ------------------------------------------------------ */
2234:Core/Src/main_unique.c ****     fsm_init();            /* estado inicial y pantalla de bienvenida       */
2235:Core/Src/main_unique.c **** 
2236:Core/Src/main_unique.c ****     while (1) {
2237:Core/Src/main_unique.c ****         fsm_run();         /* consume los eventos encolados por las ISR     */
2238:Core/Src/main_unique.c ****     }
2239:Core/Src/main_unique.c **** }
2240:Core/Src/main_unique.c **** 
2241:Core/Src/main_unique.c **** /*
2242:Core/Src/main_unique.c ****  * Error_Handler
2243:Core/Src/main_unique.c ****  * Punto unico de fallo. Deshabilita las interrupciones y hace parpadear el
2244:Core/Src/main_unique.c ****  * LED muy rapido para que el error sea visible sin necesidad de depurador.
2245:Core/Src/main_unique.c ****  */
2246:Core/Src/main_unique.c **** void Error_Handler(void)
2247:Core/Src/main_unique.c **** {
 5267              		.loc 1 2247 1 is_stmt 1 view -0
 5268              		.cfi_startproc
 5269              		@ Volatile: function does not return.
 5270              		@ args = 0, pretend = 0, frame = 8
 5271              		@ frame_needed = 0, uses_anonymous_args = 0
 5272 0000 00B5     		push	{lr}
 5273              	.LCFI87:
 5274              		.cfi_def_cfa_offset 4
 5275              		.cfi_offset 14, -4
 5276 0002 83B0     		sub	sp, sp, #12
 5277              	.LCFI88:
 5278              		.cfi_def_cfa_offset 16
2248:Core/Src/main_unique.c ****     __disable_irq();
 5279              		.loc 1 2248 5 view .LVU1091
 5280              	.LBB13:
 5281              	.LBI13:
 5282              		.file 2 "Drivers/CMSIS/Include/cmsis_gcc.h"
   1:Drivers/CMSIS/Include/cmsis_gcc.h **** /**************************************************************************//**
   2:Drivers/CMSIS/Include/cmsis_gcc.h ****  * @file     cmsis_gcc.h
ARM GAS  /tmp/ccjBgtoi.s 			page 145


   3:Drivers/CMSIS/Include/cmsis_gcc.h ****  * @brief    CMSIS compiler GCC header file
   4:Drivers/CMSIS/Include/cmsis_gcc.h ****  * @version  V6.0.0
   5:Drivers/CMSIS/Include/cmsis_gcc.h ****  * @date     27. July 2024
   6:Drivers/CMSIS/Include/cmsis_gcc.h ****  ******************************************************************************/
   7:Drivers/CMSIS/Include/cmsis_gcc.h **** /*
   8:Drivers/CMSIS/Include/cmsis_gcc.h ****  * Copyright (c) 2009-2023 Arm Limited. All rights reserved.
   9:Drivers/CMSIS/Include/cmsis_gcc.h ****  *
  10:Drivers/CMSIS/Include/cmsis_gcc.h ****  * SPDX-License-Identifier: Apache-2.0
  11:Drivers/CMSIS/Include/cmsis_gcc.h ****  *
  12:Drivers/CMSIS/Include/cmsis_gcc.h ****  * Licensed under the Apache License, Version 2.0 (the License); you may
  13:Drivers/CMSIS/Include/cmsis_gcc.h ****  * not use this file except in compliance with the License.
  14:Drivers/CMSIS/Include/cmsis_gcc.h ****  * You may obtain a copy of the License at
  15:Drivers/CMSIS/Include/cmsis_gcc.h ****  *
  16:Drivers/CMSIS/Include/cmsis_gcc.h ****  * www.apache.org/licenses/LICENSE-2.0
  17:Drivers/CMSIS/Include/cmsis_gcc.h ****  *
  18:Drivers/CMSIS/Include/cmsis_gcc.h ****  * Unless required by applicable law or agreed to in writing, software
  19:Drivers/CMSIS/Include/cmsis_gcc.h ****  * distributed under the License is distributed on an AS IS BASIS, WITHOUT
  20:Drivers/CMSIS/Include/cmsis_gcc.h ****  * WARRANTIES OR CONDITIONS OF ANY KIND, either express or implied.
  21:Drivers/CMSIS/Include/cmsis_gcc.h ****  * See the License for the specific language governing permissions and
  22:Drivers/CMSIS/Include/cmsis_gcc.h ****  * limitations under the License.
  23:Drivers/CMSIS/Include/cmsis_gcc.h ****  */
  24:Drivers/CMSIS/Include/cmsis_gcc.h **** 
  25:Drivers/CMSIS/Include/cmsis_gcc.h **** #ifndef __CMSIS_GCC_H
  26:Drivers/CMSIS/Include/cmsis_gcc.h **** #define __CMSIS_GCC_H
  27:Drivers/CMSIS/Include/cmsis_gcc.h **** 
  28:Drivers/CMSIS/Include/cmsis_gcc.h **** #pragma GCC system_header   /* treat file as system include file */
  29:Drivers/CMSIS/Include/cmsis_gcc.h **** 
  30:Drivers/CMSIS/Include/cmsis_gcc.h **** #include <arm_acle.h>
  31:Drivers/CMSIS/Include/cmsis_gcc.h **** 
  32:Drivers/CMSIS/Include/cmsis_gcc.h **** /* Fallback for __has_builtin */
  33:Drivers/CMSIS/Include/cmsis_gcc.h **** #ifndef __has_builtin
  34:Drivers/CMSIS/Include/cmsis_gcc.h ****   #define __has_builtin(x) (0)
  35:Drivers/CMSIS/Include/cmsis_gcc.h **** #endif
  36:Drivers/CMSIS/Include/cmsis_gcc.h **** 
  37:Drivers/CMSIS/Include/cmsis_gcc.h **** /* CMSIS compiler specific defines */
  38:Drivers/CMSIS/Include/cmsis_gcc.h **** #ifndef   __ASM
  39:Drivers/CMSIS/Include/cmsis_gcc.h ****   #define __ASM                                  __asm
  40:Drivers/CMSIS/Include/cmsis_gcc.h **** #endif
  41:Drivers/CMSIS/Include/cmsis_gcc.h **** #ifndef   __INLINE
  42:Drivers/CMSIS/Include/cmsis_gcc.h ****   #define __INLINE                               inline
  43:Drivers/CMSIS/Include/cmsis_gcc.h **** #endif
  44:Drivers/CMSIS/Include/cmsis_gcc.h **** #ifndef   __STATIC_INLINE
  45:Drivers/CMSIS/Include/cmsis_gcc.h ****   #define __STATIC_INLINE                        static inline
  46:Drivers/CMSIS/Include/cmsis_gcc.h **** #endif
  47:Drivers/CMSIS/Include/cmsis_gcc.h **** #ifndef   __STATIC_FORCEINLINE
  48:Drivers/CMSIS/Include/cmsis_gcc.h ****   #define __STATIC_FORCEINLINE                   __attribute__((always_inline)) static inline
  49:Drivers/CMSIS/Include/cmsis_gcc.h **** #endif
  50:Drivers/CMSIS/Include/cmsis_gcc.h **** #ifndef   __NO_RETURN
  51:Drivers/CMSIS/Include/cmsis_gcc.h ****   #define __NO_RETURN                            __attribute__((__noreturn__))
  52:Drivers/CMSIS/Include/cmsis_gcc.h **** #endif
  53:Drivers/CMSIS/Include/cmsis_gcc.h **** #ifndef   CMSIS_DEPRECATED
  54:Drivers/CMSIS/Include/cmsis_gcc.h ****   #define CMSIS_DEPRECATED                       __attribute__((deprecated))
  55:Drivers/CMSIS/Include/cmsis_gcc.h **** #endif
  56:Drivers/CMSIS/Include/cmsis_gcc.h **** #ifndef   __USED
  57:Drivers/CMSIS/Include/cmsis_gcc.h ****   #define __USED                                 __attribute__((used))
  58:Drivers/CMSIS/Include/cmsis_gcc.h **** #endif
  59:Drivers/CMSIS/Include/cmsis_gcc.h **** #ifndef   __WEAK
ARM GAS  /tmp/ccjBgtoi.s 			page 146


  60:Drivers/CMSIS/Include/cmsis_gcc.h ****   #define __WEAK                                 __attribute__((weak))
  61:Drivers/CMSIS/Include/cmsis_gcc.h **** #endif
  62:Drivers/CMSIS/Include/cmsis_gcc.h **** #ifndef   __PACKED
  63:Drivers/CMSIS/Include/cmsis_gcc.h ****   #define __PACKED                               __attribute__((packed, aligned(1)))
  64:Drivers/CMSIS/Include/cmsis_gcc.h **** #endif
  65:Drivers/CMSIS/Include/cmsis_gcc.h **** #ifndef   __PACKED_STRUCT
  66:Drivers/CMSIS/Include/cmsis_gcc.h ****   #define __PACKED_STRUCT                        struct __attribute__((packed, aligned(1)))
  67:Drivers/CMSIS/Include/cmsis_gcc.h **** #endif
  68:Drivers/CMSIS/Include/cmsis_gcc.h **** #ifndef   __PACKED_UNION
  69:Drivers/CMSIS/Include/cmsis_gcc.h ****   #define __PACKED_UNION                         union __attribute__((packed, aligned(1)))
  70:Drivers/CMSIS/Include/cmsis_gcc.h **** #endif
  71:Drivers/CMSIS/Include/cmsis_gcc.h **** #ifndef   __UNALIGNED_UINT16_WRITE
  72:Drivers/CMSIS/Include/cmsis_gcc.h ****   #pragma GCC diagnostic push
  73:Drivers/CMSIS/Include/cmsis_gcc.h ****   #pragma GCC diagnostic ignored "-Wpacked"
  74:Drivers/CMSIS/Include/cmsis_gcc.h ****   #pragma GCC diagnostic ignored "-Wattributes"
  75:Drivers/CMSIS/Include/cmsis_gcc.h ****   __PACKED_STRUCT T_UINT16_WRITE { uint16_t v; };
  76:Drivers/CMSIS/Include/cmsis_gcc.h ****   #pragma GCC diagnostic pop
  77:Drivers/CMSIS/Include/cmsis_gcc.h ****   #define __UNALIGNED_UINT16_WRITE(addr, val)    (void)((((struct T_UINT16_WRITE *)(void *)(addr))-
  78:Drivers/CMSIS/Include/cmsis_gcc.h **** #endif
  79:Drivers/CMSIS/Include/cmsis_gcc.h **** #ifndef   __UNALIGNED_UINT16_READ
  80:Drivers/CMSIS/Include/cmsis_gcc.h ****   #pragma GCC diagnostic push
  81:Drivers/CMSIS/Include/cmsis_gcc.h ****   #pragma GCC diagnostic ignored "-Wpacked"
  82:Drivers/CMSIS/Include/cmsis_gcc.h ****   #pragma GCC diagnostic ignored "-Wattributes"
  83:Drivers/CMSIS/Include/cmsis_gcc.h ****   __PACKED_STRUCT T_UINT16_READ { uint16_t v; };
  84:Drivers/CMSIS/Include/cmsis_gcc.h ****   #pragma GCC diagnostic pop
  85:Drivers/CMSIS/Include/cmsis_gcc.h ****   #define __UNALIGNED_UINT16_READ(addr)          (((const struct T_UINT16_READ *)(const void *)(add
  86:Drivers/CMSIS/Include/cmsis_gcc.h **** #endif
  87:Drivers/CMSIS/Include/cmsis_gcc.h **** #ifndef   __UNALIGNED_UINT32_WRITE
  88:Drivers/CMSIS/Include/cmsis_gcc.h ****   #pragma GCC diagnostic push
  89:Drivers/CMSIS/Include/cmsis_gcc.h ****   #pragma GCC diagnostic ignored "-Wpacked"
  90:Drivers/CMSIS/Include/cmsis_gcc.h ****   #pragma GCC diagnostic ignored "-Wattributes"
  91:Drivers/CMSIS/Include/cmsis_gcc.h ****   __PACKED_STRUCT T_UINT32_WRITE { uint32_t v; };
  92:Drivers/CMSIS/Include/cmsis_gcc.h ****   #pragma GCC diagnostic pop
  93:Drivers/CMSIS/Include/cmsis_gcc.h ****   #define __UNALIGNED_UINT32_WRITE(addr, val)    (void)((((struct T_UINT32_WRITE *)(void *)(addr))-
  94:Drivers/CMSIS/Include/cmsis_gcc.h **** #endif
  95:Drivers/CMSIS/Include/cmsis_gcc.h **** #ifndef   __UNALIGNED_UINT32_READ
  96:Drivers/CMSIS/Include/cmsis_gcc.h ****   #pragma GCC diagnostic push
  97:Drivers/CMSIS/Include/cmsis_gcc.h ****   #pragma GCC diagnostic ignored "-Wpacked"
  98:Drivers/CMSIS/Include/cmsis_gcc.h ****   #pragma GCC diagnostic ignored "-Wattributes"
  99:Drivers/CMSIS/Include/cmsis_gcc.h ****   __PACKED_STRUCT T_UINT32_READ { uint32_t v; };
 100:Drivers/CMSIS/Include/cmsis_gcc.h ****   #pragma GCC diagnostic pop
 101:Drivers/CMSIS/Include/cmsis_gcc.h ****   #define __UNALIGNED_UINT32_READ(addr)          (((const struct T_UINT32_READ *)(const void *)(add
 102:Drivers/CMSIS/Include/cmsis_gcc.h **** #endif
 103:Drivers/CMSIS/Include/cmsis_gcc.h **** #ifndef   __ALIGNED
 104:Drivers/CMSIS/Include/cmsis_gcc.h ****   #define __ALIGNED(x)                           __attribute__((aligned(x)))
 105:Drivers/CMSIS/Include/cmsis_gcc.h **** #endif
 106:Drivers/CMSIS/Include/cmsis_gcc.h **** #ifndef   __RESTRICT
 107:Drivers/CMSIS/Include/cmsis_gcc.h ****   #define __RESTRICT                             __restrict
 108:Drivers/CMSIS/Include/cmsis_gcc.h **** #endif
 109:Drivers/CMSIS/Include/cmsis_gcc.h **** #ifndef   __COMPILER_BARRIER
 110:Drivers/CMSIS/Include/cmsis_gcc.h ****   #define __COMPILER_BARRIER()                   __ASM volatile("":::"memory")
 111:Drivers/CMSIS/Include/cmsis_gcc.h **** #endif
 112:Drivers/CMSIS/Include/cmsis_gcc.h **** #ifndef __NO_INIT
 113:Drivers/CMSIS/Include/cmsis_gcc.h ****   #define __NO_INIT                              __attribute__ ((section (".noinit")))
 114:Drivers/CMSIS/Include/cmsis_gcc.h **** #endif
 115:Drivers/CMSIS/Include/cmsis_gcc.h **** #ifndef __ALIAS
 116:Drivers/CMSIS/Include/cmsis_gcc.h ****   #define __ALIAS(x)                             __attribute__ ((alias(x)))
ARM GAS  /tmp/ccjBgtoi.s 			page 147


 117:Drivers/CMSIS/Include/cmsis_gcc.h **** #endif
 118:Drivers/CMSIS/Include/cmsis_gcc.h **** 
 119:Drivers/CMSIS/Include/cmsis_gcc.h **** /* ##########################  Core Instruction Access  ######################### */
 120:Drivers/CMSIS/Include/cmsis_gcc.h **** /** \defgroup CMSIS_Core_InstructionInterface CMSIS Core Instruction Interface
 121:Drivers/CMSIS/Include/cmsis_gcc.h ****   Access to dedicated instructions
 122:Drivers/CMSIS/Include/cmsis_gcc.h ****   @{
 123:Drivers/CMSIS/Include/cmsis_gcc.h **** */
 124:Drivers/CMSIS/Include/cmsis_gcc.h **** 
 125:Drivers/CMSIS/Include/cmsis_gcc.h **** /* Define macros for porting to both thumb1 and thumb2.
 126:Drivers/CMSIS/Include/cmsis_gcc.h ****  * For thumb1, use low register (r0-r7), specified by constraint "l"
 127:Drivers/CMSIS/Include/cmsis_gcc.h ****  * Otherwise, use general registers, specified by constraint "r" */
 128:Drivers/CMSIS/Include/cmsis_gcc.h **** #if defined (__thumb__) && !defined (__thumb2__)
 129:Drivers/CMSIS/Include/cmsis_gcc.h **** #define __CMSIS_GCC_OUT_REG(r) "=l" (r)
 130:Drivers/CMSIS/Include/cmsis_gcc.h **** #define __CMSIS_GCC_RW_REG(r) "+l" (r)
 131:Drivers/CMSIS/Include/cmsis_gcc.h **** #define __CMSIS_GCC_USE_REG(r) "l" (r)
 132:Drivers/CMSIS/Include/cmsis_gcc.h **** #else
 133:Drivers/CMSIS/Include/cmsis_gcc.h **** #define __CMSIS_GCC_OUT_REG(r) "=r" (r)
 134:Drivers/CMSIS/Include/cmsis_gcc.h **** #define __CMSIS_GCC_RW_REG(r) "+r" (r)
 135:Drivers/CMSIS/Include/cmsis_gcc.h **** #define __CMSIS_GCC_USE_REG(r) "r" (r)
 136:Drivers/CMSIS/Include/cmsis_gcc.h **** #endif
 137:Drivers/CMSIS/Include/cmsis_gcc.h **** 
 138:Drivers/CMSIS/Include/cmsis_gcc.h **** /**
 139:Drivers/CMSIS/Include/cmsis_gcc.h ****   \brief   No Operation
 140:Drivers/CMSIS/Include/cmsis_gcc.h ****   \details No Operation does nothing. This instruction can be used for code alignment purposes.
 141:Drivers/CMSIS/Include/cmsis_gcc.h ****  */
 142:Drivers/CMSIS/Include/cmsis_gcc.h **** #define __NOP()         __ASM volatile ("nop")
 143:Drivers/CMSIS/Include/cmsis_gcc.h **** 
 144:Drivers/CMSIS/Include/cmsis_gcc.h **** 
 145:Drivers/CMSIS/Include/cmsis_gcc.h **** /**
 146:Drivers/CMSIS/Include/cmsis_gcc.h ****   \brief   Wait For Interrupt
 147:Drivers/CMSIS/Include/cmsis_gcc.h ****   \details Wait For Interrupt is a hint instruction that suspends execution until one of a number o
 148:Drivers/CMSIS/Include/cmsis_gcc.h ****  */
 149:Drivers/CMSIS/Include/cmsis_gcc.h **** #define __WFI()         __ASM volatile ("wfi":::"memory")
 150:Drivers/CMSIS/Include/cmsis_gcc.h **** 
 151:Drivers/CMSIS/Include/cmsis_gcc.h **** 
 152:Drivers/CMSIS/Include/cmsis_gcc.h **** /**
 153:Drivers/CMSIS/Include/cmsis_gcc.h ****   \brief   Wait For Event
 154:Drivers/CMSIS/Include/cmsis_gcc.h ****   \details Wait For Event is a hint instruction that permits the processor to enter
 155:Drivers/CMSIS/Include/cmsis_gcc.h ****            a low-power state until one of a number of events occurs.
 156:Drivers/CMSIS/Include/cmsis_gcc.h ****  */
 157:Drivers/CMSIS/Include/cmsis_gcc.h **** #define __WFE()         __ASM volatile ("wfe":::"memory")
 158:Drivers/CMSIS/Include/cmsis_gcc.h **** 
 159:Drivers/CMSIS/Include/cmsis_gcc.h **** 
 160:Drivers/CMSIS/Include/cmsis_gcc.h **** /**
 161:Drivers/CMSIS/Include/cmsis_gcc.h ****   \brief   Send Event
 162:Drivers/CMSIS/Include/cmsis_gcc.h ****   \details Send Event is a hint instruction. It causes an event to be signaled to the CPU.
 163:Drivers/CMSIS/Include/cmsis_gcc.h ****  */
 164:Drivers/CMSIS/Include/cmsis_gcc.h **** #define __SEV()         __ASM volatile ("sev")
 165:Drivers/CMSIS/Include/cmsis_gcc.h **** 
 166:Drivers/CMSIS/Include/cmsis_gcc.h **** 
 167:Drivers/CMSIS/Include/cmsis_gcc.h **** /**
 168:Drivers/CMSIS/Include/cmsis_gcc.h ****   \brief   Instruction Synchronization Barrier
 169:Drivers/CMSIS/Include/cmsis_gcc.h ****   \details Instruction Synchronization Barrier flushes the pipeline in the processor,
 170:Drivers/CMSIS/Include/cmsis_gcc.h ****            so that all instructions following the ISB are fetched from cache or memory,
 171:Drivers/CMSIS/Include/cmsis_gcc.h ****            after the instruction has been completed.
 172:Drivers/CMSIS/Include/cmsis_gcc.h ****  */
 173:Drivers/CMSIS/Include/cmsis_gcc.h **** __STATIC_FORCEINLINE void __ISB(void)
ARM GAS  /tmp/ccjBgtoi.s 			page 148


 174:Drivers/CMSIS/Include/cmsis_gcc.h **** {
 175:Drivers/CMSIS/Include/cmsis_gcc.h ****   __ASM volatile ("isb 0xF":::"memory");
 176:Drivers/CMSIS/Include/cmsis_gcc.h **** }
 177:Drivers/CMSIS/Include/cmsis_gcc.h **** 
 178:Drivers/CMSIS/Include/cmsis_gcc.h **** 
 179:Drivers/CMSIS/Include/cmsis_gcc.h **** /**
 180:Drivers/CMSIS/Include/cmsis_gcc.h ****   \brief   Data Synchronization Barrier
 181:Drivers/CMSIS/Include/cmsis_gcc.h ****   \details Acts as a special kind of Data Memory Barrier.
 182:Drivers/CMSIS/Include/cmsis_gcc.h ****            It completes when all explicit memory accesses before this instruction complete.
 183:Drivers/CMSIS/Include/cmsis_gcc.h ****  */
 184:Drivers/CMSIS/Include/cmsis_gcc.h **** __STATIC_FORCEINLINE void __DSB(void)
 185:Drivers/CMSIS/Include/cmsis_gcc.h **** {
 186:Drivers/CMSIS/Include/cmsis_gcc.h ****   __ASM volatile ("dsb 0xF":::"memory");
 187:Drivers/CMSIS/Include/cmsis_gcc.h **** }
 188:Drivers/CMSIS/Include/cmsis_gcc.h **** 
 189:Drivers/CMSIS/Include/cmsis_gcc.h **** 
 190:Drivers/CMSIS/Include/cmsis_gcc.h **** /**
 191:Drivers/CMSIS/Include/cmsis_gcc.h ****   \brief   Data Memory Barrier
 192:Drivers/CMSIS/Include/cmsis_gcc.h ****   \details Ensures the apparent order of the explicit memory operations before
 193:Drivers/CMSIS/Include/cmsis_gcc.h ****            and after the instruction, without ensuring their completion.
 194:Drivers/CMSIS/Include/cmsis_gcc.h ****  */
 195:Drivers/CMSIS/Include/cmsis_gcc.h **** __STATIC_FORCEINLINE void __DMB(void)
 196:Drivers/CMSIS/Include/cmsis_gcc.h **** {
 197:Drivers/CMSIS/Include/cmsis_gcc.h ****   __ASM volatile ("dmb 0xF":::"memory");
 198:Drivers/CMSIS/Include/cmsis_gcc.h **** }
 199:Drivers/CMSIS/Include/cmsis_gcc.h **** 
 200:Drivers/CMSIS/Include/cmsis_gcc.h **** 
 201:Drivers/CMSIS/Include/cmsis_gcc.h **** /**
 202:Drivers/CMSIS/Include/cmsis_gcc.h ****   \brief   Reverse byte order (32 bit)
 203:Drivers/CMSIS/Include/cmsis_gcc.h ****   \details Reverses the byte order in unsigned integer value. For example, 0x12345678 becomes 0x785
 204:Drivers/CMSIS/Include/cmsis_gcc.h ****   \param [in]    value  Value to reverse
 205:Drivers/CMSIS/Include/cmsis_gcc.h ****   \return               Reversed value
 206:Drivers/CMSIS/Include/cmsis_gcc.h ****  */
 207:Drivers/CMSIS/Include/cmsis_gcc.h **** __STATIC_FORCEINLINE uint32_t __REV(uint32_t value)
 208:Drivers/CMSIS/Include/cmsis_gcc.h **** {
 209:Drivers/CMSIS/Include/cmsis_gcc.h ****   return __builtin_bswap32(value);
 210:Drivers/CMSIS/Include/cmsis_gcc.h **** }
 211:Drivers/CMSIS/Include/cmsis_gcc.h **** 
 212:Drivers/CMSIS/Include/cmsis_gcc.h **** 
 213:Drivers/CMSIS/Include/cmsis_gcc.h **** /**
 214:Drivers/CMSIS/Include/cmsis_gcc.h ****   \brief   Reverse byte order (16 bit)
 215:Drivers/CMSIS/Include/cmsis_gcc.h ****   \details Reverses the byte order within each halfword of a word. For example, 0x12345678 becomes 
 216:Drivers/CMSIS/Include/cmsis_gcc.h ****   \param [in]    value  Value to reverse
 217:Drivers/CMSIS/Include/cmsis_gcc.h ****   \return               Reversed value
 218:Drivers/CMSIS/Include/cmsis_gcc.h ****  */
 219:Drivers/CMSIS/Include/cmsis_gcc.h **** __STATIC_FORCEINLINE uint32_t __REV16(uint32_t value)
 220:Drivers/CMSIS/Include/cmsis_gcc.h **** {
 221:Drivers/CMSIS/Include/cmsis_gcc.h ****   uint32_t result;
 222:Drivers/CMSIS/Include/cmsis_gcc.h **** 
 223:Drivers/CMSIS/Include/cmsis_gcc.h ****   __ASM ("rev16 %0, %1" : __CMSIS_GCC_OUT_REG (result) : __CMSIS_GCC_USE_REG (value) );
 224:Drivers/CMSIS/Include/cmsis_gcc.h ****   return (result);
 225:Drivers/CMSIS/Include/cmsis_gcc.h **** }
 226:Drivers/CMSIS/Include/cmsis_gcc.h **** 
 227:Drivers/CMSIS/Include/cmsis_gcc.h **** 
 228:Drivers/CMSIS/Include/cmsis_gcc.h **** /**
 229:Drivers/CMSIS/Include/cmsis_gcc.h ****   \brief   Reverse byte order (16 bit)
 230:Drivers/CMSIS/Include/cmsis_gcc.h ****   \details Reverses the byte order in a 16-bit value and returns the signed 16-bit result. For exam
ARM GAS  /tmp/ccjBgtoi.s 			page 149


 231:Drivers/CMSIS/Include/cmsis_gcc.h ****   \param [in]    value  Value to reverse
 232:Drivers/CMSIS/Include/cmsis_gcc.h ****   \return               Reversed value
 233:Drivers/CMSIS/Include/cmsis_gcc.h ****  */
 234:Drivers/CMSIS/Include/cmsis_gcc.h **** __STATIC_FORCEINLINE int16_t __REVSH(int16_t value)
 235:Drivers/CMSIS/Include/cmsis_gcc.h **** {
 236:Drivers/CMSIS/Include/cmsis_gcc.h ****   return (int16_t)__builtin_bswap16(value);
 237:Drivers/CMSIS/Include/cmsis_gcc.h **** }
 238:Drivers/CMSIS/Include/cmsis_gcc.h **** 
 239:Drivers/CMSIS/Include/cmsis_gcc.h **** 
 240:Drivers/CMSIS/Include/cmsis_gcc.h **** /**
 241:Drivers/CMSIS/Include/cmsis_gcc.h ****   \brief   Rotate Right in unsigned value (32 bit)
 242:Drivers/CMSIS/Include/cmsis_gcc.h ****   \details Rotate Right (immediate) provides the value of the contents of a register rotated by a v
 243:Drivers/CMSIS/Include/cmsis_gcc.h ****   \param [in]    op1  Value to rotate
 244:Drivers/CMSIS/Include/cmsis_gcc.h ****   \param [in]    op2  Number of Bits to rotate
 245:Drivers/CMSIS/Include/cmsis_gcc.h ****   \return               Rotated value
 246:Drivers/CMSIS/Include/cmsis_gcc.h ****  */
 247:Drivers/CMSIS/Include/cmsis_gcc.h **** __STATIC_FORCEINLINE uint32_t __ROR(uint32_t op1, uint32_t op2)
 248:Drivers/CMSIS/Include/cmsis_gcc.h **** {
 249:Drivers/CMSIS/Include/cmsis_gcc.h ****   op2 %= 32U;
 250:Drivers/CMSIS/Include/cmsis_gcc.h ****   if (op2 == 0U)
 251:Drivers/CMSIS/Include/cmsis_gcc.h ****   {
 252:Drivers/CMSIS/Include/cmsis_gcc.h ****     return op1;
 253:Drivers/CMSIS/Include/cmsis_gcc.h ****   }
 254:Drivers/CMSIS/Include/cmsis_gcc.h ****   return (op1 >> op2) | (op1 << (32U - op2));
 255:Drivers/CMSIS/Include/cmsis_gcc.h **** }
 256:Drivers/CMSIS/Include/cmsis_gcc.h **** 
 257:Drivers/CMSIS/Include/cmsis_gcc.h **** 
 258:Drivers/CMSIS/Include/cmsis_gcc.h **** /**
 259:Drivers/CMSIS/Include/cmsis_gcc.h ****   \brief   Breakpoint
 260:Drivers/CMSIS/Include/cmsis_gcc.h ****   \details Causes the processor to enter Debug state.
 261:Drivers/CMSIS/Include/cmsis_gcc.h ****            Debug tools can use this to investigate system state when the instruction at a particula
 262:Drivers/CMSIS/Include/cmsis_gcc.h ****   \param [in]    value  is ignored by the processor.
 263:Drivers/CMSIS/Include/cmsis_gcc.h ****                  If required, a debugger can use it to store additional information about the break
 264:Drivers/CMSIS/Include/cmsis_gcc.h ****  */
 265:Drivers/CMSIS/Include/cmsis_gcc.h **** #define __BKPT(value) __ASM volatile ("bkpt "#value)
 266:Drivers/CMSIS/Include/cmsis_gcc.h **** 
 267:Drivers/CMSIS/Include/cmsis_gcc.h **** 
 268:Drivers/CMSIS/Include/cmsis_gcc.h **** /**
 269:Drivers/CMSIS/Include/cmsis_gcc.h ****   \brief   Reverse bit order of value
 270:Drivers/CMSIS/Include/cmsis_gcc.h ****   \details Reverses the bit order of the given value.
 271:Drivers/CMSIS/Include/cmsis_gcc.h ****   \param [in]    value  Value to reverse
 272:Drivers/CMSIS/Include/cmsis_gcc.h ****   \return               Reversed value
 273:Drivers/CMSIS/Include/cmsis_gcc.h ****  */
 274:Drivers/CMSIS/Include/cmsis_gcc.h **** __STATIC_FORCEINLINE uint32_t __RBIT(uint32_t value)
 275:Drivers/CMSIS/Include/cmsis_gcc.h **** {
 276:Drivers/CMSIS/Include/cmsis_gcc.h ****   uint32_t result;
 277:Drivers/CMSIS/Include/cmsis_gcc.h **** 
 278:Drivers/CMSIS/Include/cmsis_gcc.h **** #if (__ARM_ARCH_ISA_THUMB >= 2)
 279:Drivers/CMSIS/Include/cmsis_gcc.h ****    __ASM ("rbit %0, %1" : "=r" (result) : "r" (value) );
 280:Drivers/CMSIS/Include/cmsis_gcc.h **** #else
 281:Drivers/CMSIS/Include/cmsis_gcc.h ****   uint32_t s = (4U /*sizeof(v)*/ * 8U) - 1U; /* extra shift needed at end */
 282:Drivers/CMSIS/Include/cmsis_gcc.h **** 
 283:Drivers/CMSIS/Include/cmsis_gcc.h ****   result = value;                      /* r will be reversed bits of v; first get LSB of v */
 284:Drivers/CMSIS/Include/cmsis_gcc.h ****   for (value >>= 1U; value != 0U; value >>= 1U)
 285:Drivers/CMSIS/Include/cmsis_gcc.h ****   {
 286:Drivers/CMSIS/Include/cmsis_gcc.h ****     result <<= 1U;
 287:Drivers/CMSIS/Include/cmsis_gcc.h ****     result |= value & 1U;
ARM GAS  /tmp/ccjBgtoi.s 			page 150


 288:Drivers/CMSIS/Include/cmsis_gcc.h ****     s--;
 289:Drivers/CMSIS/Include/cmsis_gcc.h ****   }
 290:Drivers/CMSIS/Include/cmsis_gcc.h ****   result <<= s;                        /* shift when v's highest bits are zero */
 291:Drivers/CMSIS/Include/cmsis_gcc.h **** #endif
 292:Drivers/CMSIS/Include/cmsis_gcc.h ****   return (result);
 293:Drivers/CMSIS/Include/cmsis_gcc.h **** }
 294:Drivers/CMSIS/Include/cmsis_gcc.h **** 
 295:Drivers/CMSIS/Include/cmsis_gcc.h **** 
 296:Drivers/CMSIS/Include/cmsis_gcc.h **** /**
 297:Drivers/CMSIS/Include/cmsis_gcc.h ****   \brief   Count leading zeros
 298:Drivers/CMSIS/Include/cmsis_gcc.h ****   \details Counts the number of leading zeros of a data value.
 299:Drivers/CMSIS/Include/cmsis_gcc.h ****   \param [in]  value  Value to count the leading zeros
 300:Drivers/CMSIS/Include/cmsis_gcc.h ****   \return             number of leading zeros in value
 301:Drivers/CMSIS/Include/cmsis_gcc.h ****  */
 302:Drivers/CMSIS/Include/cmsis_gcc.h **** __STATIC_FORCEINLINE uint8_t __CLZ(uint32_t value)
 303:Drivers/CMSIS/Include/cmsis_gcc.h **** {
 304:Drivers/CMSIS/Include/cmsis_gcc.h ****   /* Even though __builtin_clz produces a CLZ instruction on ARM, formally
 305:Drivers/CMSIS/Include/cmsis_gcc.h ****      __builtin_clz(0) is undefined behaviour, so handle this case specially.
 306:Drivers/CMSIS/Include/cmsis_gcc.h ****      This guarantees ARM-compatible results if happening to compile on a non-ARM
 307:Drivers/CMSIS/Include/cmsis_gcc.h ****      target, and ensures the compiler doesn't decide to activate any
 308:Drivers/CMSIS/Include/cmsis_gcc.h ****      optimisations using the logic "value was passed to __builtin_clz, so it
 309:Drivers/CMSIS/Include/cmsis_gcc.h ****      is non-zero".
 310:Drivers/CMSIS/Include/cmsis_gcc.h ****      ARM GCC 7.3 and possibly earlier will optimise this test away, leaving a
 311:Drivers/CMSIS/Include/cmsis_gcc.h ****      single CLZ instruction.
 312:Drivers/CMSIS/Include/cmsis_gcc.h ****    */
 313:Drivers/CMSIS/Include/cmsis_gcc.h ****   if (value == 0U)
 314:Drivers/CMSIS/Include/cmsis_gcc.h ****   {
 315:Drivers/CMSIS/Include/cmsis_gcc.h ****     return 32U;
 316:Drivers/CMSIS/Include/cmsis_gcc.h ****   }
 317:Drivers/CMSIS/Include/cmsis_gcc.h ****   return __builtin_clz(value);
 318:Drivers/CMSIS/Include/cmsis_gcc.h **** }
 319:Drivers/CMSIS/Include/cmsis_gcc.h **** 
 320:Drivers/CMSIS/Include/cmsis_gcc.h **** 
 321:Drivers/CMSIS/Include/cmsis_gcc.h **** #if (__ARM_FEATURE_SAT    >= 1)
 322:Drivers/CMSIS/Include/cmsis_gcc.h **** /**
 323:Drivers/CMSIS/Include/cmsis_gcc.h ****   \brief   Signed Saturate
 324:Drivers/CMSIS/Include/cmsis_gcc.h ****   \details Saturates a signed value.
 325:Drivers/CMSIS/Include/cmsis_gcc.h ****   \param [in]  value  Value to be saturated
 326:Drivers/CMSIS/Include/cmsis_gcc.h ****   \param [in]    sat  Bit position to saturate to (1..32)
 327:Drivers/CMSIS/Include/cmsis_gcc.h ****   \return             Saturated value
 328:Drivers/CMSIS/Include/cmsis_gcc.h ****  */
 329:Drivers/CMSIS/Include/cmsis_gcc.h **** #define __SSAT(value, sat) __ssat(value, sat)
 330:Drivers/CMSIS/Include/cmsis_gcc.h **** 
 331:Drivers/CMSIS/Include/cmsis_gcc.h **** 
 332:Drivers/CMSIS/Include/cmsis_gcc.h **** /**
 333:Drivers/CMSIS/Include/cmsis_gcc.h ****   \brief   Unsigned Saturate
 334:Drivers/CMSIS/Include/cmsis_gcc.h ****   \details Saturates an unsigned value.
 335:Drivers/CMSIS/Include/cmsis_gcc.h ****   \param [in]  value  Value to be saturated
 336:Drivers/CMSIS/Include/cmsis_gcc.h ****   \param [in]    sat  Bit position to saturate to (0..31)
 337:Drivers/CMSIS/Include/cmsis_gcc.h ****   \return             Saturated value
 338:Drivers/CMSIS/Include/cmsis_gcc.h ****  */
 339:Drivers/CMSIS/Include/cmsis_gcc.h **** #define __USAT(value, sat) __usat(value, sat)
 340:Drivers/CMSIS/Include/cmsis_gcc.h **** 
 341:Drivers/CMSIS/Include/cmsis_gcc.h **** #else /* (__ARM_FEATURE_SAT >= 1) */
 342:Drivers/CMSIS/Include/cmsis_gcc.h **** /**
 343:Drivers/CMSIS/Include/cmsis_gcc.h ****   \brief   Signed Saturate
 344:Drivers/CMSIS/Include/cmsis_gcc.h ****   \details Saturates a signed value.
ARM GAS  /tmp/ccjBgtoi.s 			page 151


 345:Drivers/CMSIS/Include/cmsis_gcc.h ****   \param [in]  value  Value to be saturated
 346:Drivers/CMSIS/Include/cmsis_gcc.h ****   \param [in]    sat  Bit position to saturate to (1..32)
 347:Drivers/CMSIS/Include/cmsis_gcc.h ****   \return             Saturated value
 348:Drivers/CMSIS/Include/cmsis_gcc.h ****  */
 349:Drivers/CMSIS/Include/cmsis_gcc.h **** __STATIC_FORCEINLINE int32_t __SSAT(int32_t val, uint32_t sat)
 350:Drivers/CMSIS/Include/cmsis_gcc.h **** {
 351:Drivers/CMSIS/Include/cmsis_gcc.h ****   if ((sat >= 1U) && (sat <= 32U))
 352:Drivers/CMSIS/Include/cmsis_gcc.h ****   {
 353:Drivers/CMSIS/Include/cmsis_gcc.h ****     const int32_t max = (int32_t)((1U << (sat - 1U)) - 1U);
 354:Drivers/CMSIS/Include/cmsis_gcc.h ****     const int32_t min = -1 - max ;
 355:Drivers/CMSIS/Include/cmsis_gcc.h ****     if (val > max)
 356:Drivers/CMSIS/Include/cmsis_gcc.h ****     {
 357:Drivers/CMSIS/Include/cmsis_gcc.h ****       return (max);
 358:Drivers/CMSIS/Include/cmsis_gcc.h ****     }
 359:Drivers/CMSIS/Include/cmsis_gcc.h ****     else if (val < min)
 360:Drivers/CMSIS/Include/cmsis_gcc.h ****     {
 361:Drivers/CMSIS/Include/cmsis_gcc.h ****       return (min);
 362:Drivers/CMSIS/Include/cmsis_gcc.h ****     }
 363:Drivers/CMSIS/Include/cmsis_gcc.h ****   }
 364:Drivers/CMSIS/Include/cmsis_gcc.h ****   return (val);
 365:Drivers/CMSIS/Include/cmsis_gcc.h **** }
 366:Drivers/CMSIS/Include/cmsis_gcc.h **** 
 367:Drivers/CMSIS/Include/cmsis_gcc.h **** 
 368:Drivers/CMSIS/Include/cmsis_gcc.h **** /**
 369:Drivers/CMSIS/Include/cmsis_gcc.h ****   \brief   Unsigned Saturate
 370:Drivers/CMSIS/Include/cmsis_gcc.h ****   \details Saturates an unsigned value.
 371:Drivers/CMSIS/Include/cmsis_gcc.h ****   \param [in]  value  Value to be saturated
 372:Drivers/CMSIS/Include/cmsis_gcc.h ****   \param [in]    sat  Bit position to saturate to (0..31)
 373:Drivers/CMSIS/Include/cmsis_gcc.h ****   \return             Saturated value
 374:Drivers/CMSIS/Include/cmsis_gcc.h ****  */
 375:Drivers/CMSIS/Include/cmsis_gcc.h **** __STATIC_FORCEINLINE uint32_t __USAT(int32_t val, uint32_t sat)
 376:Drivers/CMSIS/Include/cmsis_gcc.h **** {
 377:Drivers/CMSIS/Include/cmsis_gcc.h ****   if (sat <= 31U)
 378:Drivers/CMSIS/Include/cmsis_gcc.h ****   {
 379:Drivers/CMSIS/Include/cmsis_gcc.h ****     const uint32_t max = ((1U << sat) - 1U);
 380:Drivers/CMSIS/Include/cmsis_gcc.h ****     if (val > (int32_t)max)
 381:Drivers/CMSIS/Include/cmsis_gcc.h ****     {
 382:Drivers/CMSIS/Include/cmsis_gcc.h ****       return (max);
 383:Drivers/CMSIS/Include/cmsis_gcc.h ****     }
 384:Drivers/CMSIS/Include/cmsis_gcc.h ****     else if (val < 0)
 385:Drivers/CMSIS/Include/cmsis_gcc.h ****     {
 386:Drivers/CMSIS/Include/cmsis_gcc.h ****       return (0U);
 387:Drivers/CMSIS/Include/cmsis_gcc.h ****     }
 388:Drivers/CMSIS/Include/cmsis_gcc.h ****   }
 389:Drivers/CMSIS/Include/cmsis_gcc.h ****   return ((uint32_t)val);
 390:Drivers/CMSIS/Include/cmsis_gcc.h **** }
 391:Drivers/CMSIS/Include/cmsis_gcc.h **** #endif /* (__ARM_FEATURE_SAT >= 1) */
 392:Drivers/CMSIS/Include/cmsis_gcc.h **** 
 393:Drivers/CMSIS/Include/cmsis_gcc.h **** 
 394:Drivers/CMSIS/Include/cmsis_gcc.h **** #if (__ARM_FEATURE_LDREX >= 1)
 395:Drivers/CMSIS/Include/cmsis_gcc.h **** /**
 396:Drivers/CMSIS/Include/cmsis_gcc.h ****   \brief   Remove the exclusive lock
 397:Drivers/CMSIS/Include/cmsis_gcc.h ****   \details Removes the exclusive lock which is created by LDREX.
 398:Drivers/CMSIS/Include/cmsis_gcc.h ****  */
 399:Drivers/CMSIS/Include/cmsis_gcc.h **** __STATIC_FORCEINLINE void __CLREX(void)
 400:Drivers/CMSIS/Include/cmsis_gcc.h **** {
 401:Drivers/CMSIS/Include/cmsis_gcc.h ****   __ASM volatile ("clrex" ::: "memory");
ARM GAS  /tmp/ccjBgtoi.s 			page 152


 402:Drivers/CMSIS/Include/cmsis_gcc.h **** }
 403:Drivers/CMSIS/Include/cmsis_gcc.h **** 
 404:Drivers/CMSIS/Include/cmsis_gcc.h **** 
 405:Drivers/CMSIS/Include/cmsis_gcc.h **** /**
 406:Drivers/CMSIS/Include/cmsis_gcc.h ****   \brief   LDR Exclusive (8 bit)
 407:Drivers/CMSIS/Include/cmsis_gcc.h ****   \details Executes a exclusive LDR instruction for 8 bit value.
 408:Drivers/CMSIS/Include/cmsis_gcc.h ****   \param [in]    ptr  Pointer to data
 409:Drivers/CMSIS/Include/cmsis_gcc.h ****   \return             value of type uint8_t at (*ptr)
 410:Drivers/CMSIS/Include/cmsis_gcc.h ****  */
 411:Drivers/CMSIS/Include/cmsis_gcc.h **** __STATIC_FORCEINLINE uint8_t __LDREXB(volatile uint8_t *addr)
 412:Drivers/CMSIS/Include/cmsis_gcc.h **** {
 413:Drivers/CMSIS/Include/cmsis_gcc.h ****   uint32_t result;
 414:Drivers/CMSIS/Include/cmsis_gcc.h **** 
 415:Drivers/CMSIS/Include/cmsis_gcc.h ****   __ASM volatile ("ldrexb %0, %1" : "=r" (result) : "Q" (*addr) );
 416:Drivers/CMSIS/Include/cmsis_gcc.h ****   return ((uint8_t) result);    /* Add explicit type cast here */
 417:Drivers/CMSIS/Include/cmsis_gcc.h **** }
 418:Drivers/CMSIS/Include/cmsis_gcc.h **** 
 419:Drivers/CMSIS/Include/cmsis_gcc.h **** 
 420:Drivers/CMSIS/Include/cmsis_gcc.h **** /**
 421:Drivers/CMSIS/Include/cmsis_gcc.h ****   \brief   STR Exclusive (8 bit)
 422:Drivers/CMSIS/Include/cmsis_gcc.h ****   \details Executes a exclusive STR instruction for 8 bit values.
 423:Drivers/CMSIS/Include/cmsis_gcc.h ****   \param [in]  value  Value to store
 424:Drivers/CMSIS/Include/cmsis_gcc.h ****   \param [in]    ptr  Pointer to location
 425:Drivers/CMSIS/Include/cmsis_gcc.h ****   \return          0  Function succeeded
 426:Drivers/CMSIS/Include/cmsis_gcc.h ****   \return          1  Function failed
 427:Drivers/CMSIS/Include/cmsis_gcc.h ****  */
 428:Drivers/CMSIS/Include/cmsis_gcc.h **** __STATIC_FORCEINLINE uint32_t __STREXB(uint8_t value, volatile uint8_t *addr)
 429:Drivers/CMSIS/Include/cmsis_gcc.h **** {
 430:Drivers/CMSIS/Include/cmsis_gcc.h ****   uint32_t result;
 431:Drivers/CMSIS/Include/cmsis_gcc.h **** 
 432:Drivers/CMSIS/Include/cmsis_gcc.h ****   __ASM volatile ("strexb %0, %2, %1" : "=&r" (result), "=Q" (*addr) : "r" ((uint32_t)value) );
 433:Drivers/CMSIS/Include/cmsis_gcc.h ****   return (result);
 434:Drivers/CMSIS/Include/cmsis_gcc.h **** }
 435:Drivers/CMSIS/Include/cmsis_gcc.h **** #endif /* (__ARM_FEATURE_LDREX >= 1) */
 436:Drivers/CMSIS/Include/cmsis_gcc.h **** 
 437:Drivers/CMSIS/Include/cmsis_gcc.h **** 
 438:Drivers/CMSIS/Include/cmsis_gcc.h **** #if (__ARM_FEATURE_LDREX >= 2)
 439:Drivers/CMSIS/Include/cmsis_gcc.h **** /**
 440:Drivers/CMSIS/Include/cmsis_gcc.h ****   \brief   LDR Exclusive (16 bit)
 441:Drivers/CMSIS/Include/cmsis_gcc.h ****   \details Executes a exclusive LDR instruction for 16 bit values.
 442:Drivers/CMSIS/Include/cmsis_gcc.h ****   \param [in]    ptr  Pointer to data
 443:Drivers/CMSIS/Include/cmsis_gcc.h ****   \return        value of type uint16_t at (*ptr)
 444:Drivers/CMSIS/Include/cmsis_gcc.h ****  */
 445:Drivers/CMSIS/Include/cmsis_gcc.h **** __STATIC_FORCEINLINE uint16_t __LDREXH(volatile uint16_t *addr)
 446:Drivers/CMSIS/Include/cmsis_gcc.h **** {
 447:Drivers/CMSIS/Include/cmsis_gcc.h ****   uint32_t result;
 448:Drivers/CMSIS/Include/cmsis_gcc.h **** 
 449:Drivers/CMSIS/Include/cmsis_gcc.h ****   __ASM volatile ("ldrexh %0, %1" : "=r" (result) : "Q" (*addr) );
 450:Drivers/CMSIS/Include/cmsis_gcc.h ****   return ((uint16_t)result);    /* Add explicit type cast here */
 451:Drivers/CMSIS/Include/cmsis_gcc.h **** }
 452:Drivers/CMSIS/Include/cmsis_gcc.h **** 
 453:Drivers/CMSIS/Include/cmsis_gcc.h **** 
 454:Drivers/CMSIS/Include/cmsis_gcc.h **** /**
 455:Drivers/CMSIS/Include/cmsis_gcc.h ****   \brief   STR Exclusive (16 bit)
 456:Drivers/CMSIS/Include/cmsis_gcc.h ****   \details Executes a exclusive STR instruction for 16 bit values.
 457:Drivers/CMSIS/Include/cmsis_gcc.h ****   \param [in]  value  Value to store
 458:Drivers/CMSIS/Include/cmsis_gcc.h ****   \param [in]    ptr  Pointer to location
ARM GAS  /tmp/ccjBgtoi.s 			page 153


 459:Drivers/CMSIS/Include/cmsis_gcc.h ****   \return          0  Function succeeded
 460:Drivers/CMSIS/Include/cmsis_gcc.h ****   \return          1  Function failed
 461:Drivers/CMSIS/Include/cmsis_gcc.h ****  */
 462:Drivers/CMSIS/Include/cmsis_gcc.h **** __STATIC_FORCEINLINE uint32_t __STREXH(uint16_t value, volatile uint16_t *addr)
 463:Drivers/CMSIS/Include/cmsis_gcc.h **** {
 464:Drivers/CMSIS/Include/cmsis_gcc.h ****   uint32_t result;
 465:Drivers/CMSIS/Include/cmsis_gcc.h **** 
 466:Drivers/CMSIS/Include/cmsis_gcc.h ****   __ASM volatile ("strexh %0, %2, %1" : "=&r" (result), "=Q" (*addr) : "r" ((uint32_t)value) );
 467:Drivers/CMSIS/Include/cmsis_gcc.h ****   return (result);
 468:Drivers/CMSIS/Include/cmsis_gcc.h **** }
 469:Drivers/CMSIS/Include/cmsis_gcc.h **** #endif /* (__ARM_FEATURE_LDREX >= 2) */
 470:Drivers/CMSIS/Include/cmsis_gcc.h **** 
 471:Drivers/CMSIS/Include/cmsis_gcc.h **** 
 472:Drivers/CMSIS/Include/cmsis_gcc.h **** #if (__ARM_FEATURE_LDREX >= 4)
 473:Drivers/CMSIS/Include/cmsis_gcc.h **** /**
 474:Drivers/CMSIS/Include/cmsis_gcc.h ****   \brief   LDR Exclusive (32 bit)
 475:Drivers/CMSIS/Include/cmsis_gcc.h ****   \details Executes a exclusive LDR instruction for 32 bit values.
 476:Drivers/CMSIS/Include/cmsis_gcc.h ****   \param [in]    ptr  Pointer to data
 477:Drivers/CMSIS/Include/cmsis_gcc.h ****   \return        value of type uint32_t at (*ptr)
 478:Drivers/CMSIS/Include/cmsis_gcc.h ****  */
 479:Drivers/CMSIS/Include/cmsis_gcc.h **** __STATIC_FORCEINLINE uint32_t __LDREXW(volatile uint32_t *addr)
 480:Drivers/CMSIS/Include/cmsis_gcc.h **** {
 481:Drivers/CMSIS/Include/cmsis_gcc.h ****   uint32_t result;
 482:Drivers/CMSIS/Include/cmsis_gcc.h **** 
 483:Drivers/CMSIS/Include/cmsis_gcc.h ****   __ASM volatile ("ldrex %0, %1" : "=r" (result) : "Q" (*addr) );
 484:Drivers/CMSIS/Include/cmsis_gcc.h ****   return (result);
 485:Drivers/CMSIS/Include/cmsis_gcc.h **** }
 486:Drivers/CMSIS/Include/cmsis_gcc.h **** 
 487:Drivers/CMSIS/Include/cmsis_gcc.h **** 
 488:Drivers/CMSIS/Include/cmsis_gcc.h **** /**
 489:Drivers/CMSIS/Include/cmsis_gcc.h ****   \brief   STR Exclusive (32 bit)
 490:Drivers/CMSIS/Include/cmsis_gcc.h ****   \details Executes a exclusive STR instruction for 32 bit values.
 491:Drivers/CMSIS/Include/cmsis_gcc.h ****   \param [in]  value  Value to store
 492:Drivers/CMSIS/Include/cmsis_gcc.h ****   \param [in]    ptr  Pointer to location
 493:Drivers/CMSIS/Include/cmsis_gcc.h ****   \return          0  Function succeeded
 494:Drivers/CMSIS/Include/cmsis_gcc.h ****   \return          1  Function failed
 495:Drivers/CMSIS/Include/cmsis_gcc.h ****  */
 496:Drivers/CMSIS/Include/cmsis_gcc.h **** __STATIC_FORCEINLINE uint32_t __STREXW(uint32_t value, volatile uint32_t *addr)
 497:Drivers/CMSIS/Include/cmsis_gcc.h **** {
 498:Drivers/CMSIS/Include/cmsis_gcc.h ****   uint32_t result;
 499:Drivers/CMSIS/Include/cmsis_gcc.h **** 
 500:Drivers/CMSIS/Include/cmsis_gcc.h ****   __ASM volatile ("strex %0, %2, %1" : "=&r" (result), "=Q" (*addr) : "r" (value) );
 501:Drivers/CMSIS/Include/cmsis_gcc.h ****   return (result);
 502:Drivers/CMSIS/Include/cmsis_gcc.h **** }
 503:Drivers/CMSIS/Include/cmsis_gcc.h **** #endif /* (__ARM_FEATURE_LDREX >= 4) */
 504:Drivers/CMSIS/Include/cmsis_gcc.h **** 
 505:Drivers/CMSIS/Include/cmsis_gcc.h **** 
 506:Drivers/CMSIS/Include/cmsis_gcc.h **** #if (__ARM_ARCH_ISA_THUMB >= 2)
 507:Drivers/CMSIS/Include/cmsis_gcc.h **** /**
 508:Drivers/CMSIS/Include/cmsis_gcc.h ****   \brief   Rotate Right with Extend (32 bit)
 509:Drivers/CMSIS/Include/cmsis_gcc.h ****   \details Moves each bit of a bitstring right by one bit.
 510:Drivers/CMSIS/Include/cmsis_gcc.h ****            The carry input is shifted in at the left end of the bitstring.
 511:Drivers/CMSIS/Include/cmsis_gcc.h ****   \param [in]    value  Value to rotate
 512:Drivers/CMSIS/Include/cmsis_gcc.h ****   \return               Rotated value
 513:Drivers/CMSIS/Include/cmsis_gcc.h ****  */
 514:Drivers/CMSIS/Include/cmsis_gcc.h **** __STATIC_FORCEINLINE uint32_t __RRX(uint32_t value)
 515:Drivers/CMSIS/Include/cmsis_gcc.h **** {
ARM GAS  /tmp/ccjBgtoi.s 			page 154


 516:Drivers/CMSIS/Include/cmsis_gcc.h ****   uint32_t result;
 517:Drivers/CMSIS/Include/cmsis_gcc.h **** 
 518:Drivers/CMSIS/Include/cmsis_gcc.h ****   __ASM volatile ("rrx %0, %1" : "=r" (result) : "r" (value));
 519:Drivers/CMSIS/Include/cmsis_gcc.h ****   return (result);
 520:Drivers/CMSIS/Include/cmsis_gcc.h **** }
 521:Drivers/CMSIS/Include/cmsis_gcc.h **** 
 522:Drivers/CMSIS/Include/cmsis_gcc.h **** 
 523:Drivers/CMSIS/Include/cmsis_gcc.h **** /**
 524:Drivers/CMSIS/Include/cmsis_gcc.h ****   \brief   LDRT Unprivileged (8 bit)
 525:Drivers/CMSIS/Include/cmsis_gcc.h ****   \details Executes a Unprivileged LDRT instruction for 8 bit value.
 526:Drivers/CMSIS/Include/cmsis_gcc.h ****   \param [in]    ptr  Pointer to data
 527:Drivers/CMSIS/Include/cmsis_gcc.h ****   \return             value of type uint8_t at (*ptr)
 528:Drivers/CMSIS/Include/cmsis_gcc.h ****  */
 529:Drivers/CMSIS/Include/cmsis_gcc.h **** __STATIC_FORCEINLINE uint8_t __LDRBT(volatile uint8_t *ptr)
 530:Drivers/CMSIS/Include/cmsis_gcc.h **** {
 531:Drivers/CMSIS/Include/cmsis_gcc.h ****   uint32_t result;
 532:Drivers/CMSIS/Include/cmsis_gcc.h **** 
 533:Drivers/CMSIS/Include/cmsis_gcc.h ****   __ASM volatile ("ldrbt %0, %1" : "=r" (result) : "Q" (*ptr) );
 534:Drivers/CMSIS/Include/cmsis_gcc.h ****   return ((uint8_t)result);    /* Add explicit type cast here */
 535:Drivers/CMSIS/Include/cmsis_gcc.h **** }
 536:Drivers/CMSIS/Include/cmsis_gcc.h **** 
 537:Drivers/CMSIS/Include/cmsis_gcc.h **** 
 538:Drivers/CMSIS/Include/cmsis_gcc.h **** /**
 539:Drivers/CMSIS/Include/cmsis_gcc.h ****   \brief   LDRT Unprivileged (16 bit)
 540:Drivers/CMSIS/Include/cmsis_gcc.h ****   \details Executes a Unprivileged LDRT instruction for 16 bit values.
 541:Drivers/CMSIS/Include/cmsis_gcc.h ****   \param [in]    ptr  Pointer to data
 542:Drivers/CMSIS/Include/cmsis_gcc.h ****   \return        value of type uint16_t at (*ptr)
 543:Drivers/CMSIS/Include/cmsis_gcc.h ****  */
 544:Drivers/CMSIS/Include/cmsis_gcc.h **** __STATIC_FORCEINLINE uint16_t __LDRHT(volatile uint16_t *ptr)
 545:Drivers/CMSIS/Include/cmsis_gcc.h **** {
 546:Drivers/CMSIS/Include/cmsis_gcc.h ****   uint32_t result;
 547:Drivers/CMSIS/Include/cmsis_gcc.h **** 
 548:Drivers/CMSIS/Include/cmsis_gcc.h ****   __ASM volatile ("ldrht %0, %1" : "=r" (result) : "Q" (*ptr) );
 549:Drivers/CMSIS/Include/cmsis_gcc.h ****   return ((uint16_t)result);    /* Add explicit type cast here */
 550:Drivers/CMSIS/Include/cmsis_gcc.h **** }
 551:Drivers/CMSIS/Include/cmsis_gcc.h **** 
 552:Drivers/CMSIS/Include/cmsis_gcc.h **** 
 553:Drivers/CMSIS/Include/cmsis_gcc.h **** /**
 554:Drivers/CMSIS/Include/cmsis_gcc.h ****   \brief   LDRT Unprivileged (32 bit)
 555:Drivers/CMSIS/Include/cmsis_gcc.h ****   \details Executes a Unprivileged LDRT instruction for 32 bit values.
 556:Drivers/CMSIS/Include/cmsis_gcc.h ****   \param [in]    ptr  Pointer to data
 557:Drivers/CMSIS/Include/cmsis_gcc.h ****   \return        value of type uint32_t at (*ptr)
 558:Drivers/CMSIS/Include/cmsis_gcc.h ****  */
 559:Drivers/CMSIS/Include/cmsis_gcc.h **** __STATIC_FORCEINLINE uint32_t __LDRT(volatile uint32_t *ptr)
 560:Drivers/CMSIS/Include/cmsis_gcc.h **** {
 561:Drivers/CMSIS/Include/cmsis_gcc.h ****   uint32_t result;
 562:Drivers/CMSIS/Include/cmsis_gcc.h **** 
 563:Drivers/CMSIS/Include/cmsis_gcc.h ****   __ASM volatile ("ldrt %0, %1" : "=r" (result) : "Q" (*ptr) );
 564:Drivers/CMSIS/Include/cmsis_gcc.h ****   return (result);
 565:Drivers/CMSIS/Include/cmsis_gcc.h **** }
 566:Drivers/CMSIS/Include/cmsis_gcc.h **** 
 567:Drivers/CMSIS/Include/cmsis_gcc.h **** 
 568:Drivers/CMSIS/Include/cmsis_gcc.h **** /**
 569:Drivers/CMSIS/Include/cmsis_gcc.h ****   \brief   STRT Unprivileged (8 bit)
 570:Drivers/CMSIS/Include/cmsis_gcc.h ****   \details Executes a Unprivileged STRT instruction for 8 bit values.
 571:Drivers/CMSIS/Include/cmsis_gcc.h ****   \param [in]  value  Value to store
 572:Drivers/CMSIS/Include/cmsis_gcc.h ****   \param [in]    ptr  Pointer to location
ARM GAS  /tmp/ccjBgtoi.s 			page 155


 573:Drivers/CMSIS/Include/cmsis_gcc.h ****  */
 574:Drivers/CMSIS/Include/cmsis_gcc.h **** __STATIC_FORCEINLINE void __STRBT(uint8_t value, volatile uint8_t *ptr)
 575:Drivers/CMSIS/Include/cmsis_gcc.h **** {
 576:Drivers/CMSIS/Include/cmsis_gcc.h ****   __ASM volatile ("strbt %1, %0" : "=Q" (*ptr) : "r" ((uint32_t)value) );
 577:Drivers/CMSIS/Include/cmsis_gcc.h **** }
 578:Drivers/CMSIS/Include/cmsis_gcc.h **** 
 579:Drivers/CMSIS/Include/cmsis_gcc.h **** 
 580:Drivers/CMSIS/Include/cmsis_gcc.h **** /**
 581:Drivers/CMSIS/Include/cmsis_gcc.h ****   \brief   STRT Unprivileged (16 bit)
 582:Drivers/CMSIS/Include/cmsis_gcc.h ****   \details Executes a Unprivileged STRT instruction for 16 bit values.
 583:Drivers/CMSIS/Include/cmsis_gcc.h ****   \param [in]  value  Value to store
 584:Drivers/CMSIS/Include/cmsis_gcc.h ****   \param [in]    ptr  Pointer to location
 585:Drivers/CMSIS/Include/cmsis_gcc.h ****  */
 586:Drivers/CMSIS/Include/cmsis_gcc.h **** __STATIC_FORCEINLINE void __STRHT(uint16_t value, volatile uint16_t *ptr)
 587:Drivers/CMSIS/Include/cmsis_gcc.h **** {
 588:Drivers/CMSIS/Include/cmsis_gcc.h ****   __ASM volatile ("strht %1, %0" : "=Q" (*ptr) : "r" ((uint32_t)value) );
 589:Drivers/CMSIS/Include/cmsis_gcc.h **** }
 590:Drivers/CMSIS/Include/cmsis_gcc.h **** 
 591:Drivers/CMSIS/Include/cmsis_gcc.h **** 
 592:Drivers/CMSIS/Include/cmsis_gcc.h **** /**
 593:Drivers/CMSIS/Include/cmsis_gcc.h ****   \brief   STRT Unprivileged (32 bit)
 594:Drivers/CMSIS/Include/cmsis_gcc.h ****   \details Executes a Unprivileged STRT instruction for 32 bit values.
 595:Drivers/CMSIS/Include/cmsis_gcc.h ****   \param [in]  value  Value to store
 596:Drivers/CMSIS/Include/cmsis_gcc.h ****   \param [in]    ptr  Pointer to location
 597:Drivers/CMSIS/Include/cmsis_gcc.h ****  */
 598:Drivers/CMSIS/Include/cmsis_gcc.h **** __STATIC_FORCEINLINE void __STRT(uint32_t value, volatile uint32_t *ptr)
 599:Drivers/CMSIS/Include/cmsis_gcc.h **** {
 600:Drivers/CMSIS/Include/cmsis_gcc.h ****   __ASM volatile ("strt %1, %0" : "=Q" (*ptr) : "r" (value) );
 601:Drivers/CMSIS/Include/cmsis_gcc.h **** }
 602:Drivers/CMSIS/Include/cmsis_gcc.h **** #endif /* (__ARM_ARCH_ISA_THUMB >= 2) */
 603:Drivers/CMSIS/Include/cmsis_gcc.h **** 
 604:Drivers/CMSIS/Include/cmsis_gcc.h **** 
 605:Drivers/CMSIS/Include/cmsis_gcc.h **** #if (__ARM_ARCH >= 8)
 606:Drivers/CMSIS/Include/cmsis_gcc.h **** /**
 607:Drivers/CMSIS/Include/cmsis_gcc.h ****   \brief   Load-Acquire (8 bit)
 608:Drivers/CMSIS/Include/cmsis_gcc.h ****   \details Executes a LDAB instruction for 8 bit value.
 609:Drivers/CMSIS/Include/cmsis_gcc.h ****   \param [in]    ptr  Pointer to data
 610:Drivers/CMSIS/Include/cmsis_gcc.h ****   \return             value of type uint8_t at (*ptr)
 611:Drivers/CMSIS/Include/cmsis_gcc.h ****  */
 612:Drivers/CMSIS/Include/cmsis_gcc.h **** __STATIC_FORCEINLINE uint8_t __LDAB(volatile uint8_t *ptr)
 613:Drivers/CMSIS/Include/cmsis_gcc.h **** {
 614:Drivers/CMSIS/Include/cmsis_gcc.h ****   uint32_t result;
 615:Drivers/CMSIS/Include/cmsis_gcc.h **** 
 616:Drivers/CMSIS/Include/cmsis_gcc.h ****   __ASM volatile ("ldab %0, %1" : "=r" (result) : "Q" (*ptr) : "memory" );
 617:Drivers/CMSIS/Include/cmsis_gcc.h ****   return ((uint8_t)result);    /* Add explicit type cast here */
 618:Drivers/CMSIS/Include/cmsis_gcc.h **** }
 619:Drivers/CMSIS/Include/cmsis_gcc.h **** 
 620:Drivers/CMSIS/Include/cmsis_gcc.h **** 
 621:Drivers/CMSIS/Include/cmsis_gcc.h **** /**
 622:Drivers/CMSIS/Include/cmsis_gcc.h ****   \brief   Load-Acquire (16 bit)
 623:Drivers/CMSIS/Include/cmsis_gcc.h ****   \details Executes a LDAH instruction for 16 bit values.
 624:Drivers/CMSIS/Include/cmsis_gcc.h ****   \param [in]    ptr  Pointer to data
 625:Drivers/CMSIS/Include/cmsis_gcc.h ****   \return        value of type uint16_t at (*ptr)
 626:Drivers/CMSIS/Include/cmsis_gcc.h ****  */
 627:Drivers/CMSIS/Include/cmsis_gcc.h **** __STATIC_FORCEINLINE uint16_t __LDAH(volatile uint16_t *ptr)
 628:Drivers/CMSIS/Include/cmsis_gcc.h **** {
 629:Drivers/CMSIS/Include/cmsis_gcc.h ****   uint32_t result;
ARM GAS  /tmp/ccjBgtoi.s 			page 156


 630:Drivers/CMSIS/Include/cmsis_gcc.h **** 
 631:Drivers/CMSIS/Include/cmsis_gcc.h ****   __ASM volatile ("ldah %0, %1" : "=r" (result) : "Q" (*ptr) : "memory" );
 632:Drivers/CMSIS/Include/cmsis_gcc.h ****   return ((uint16_t)result);    /* Add explicit type cast here */
 633:Drivers/CMSIS/Include/cmsis_gcc.h **** }
 634:Drivers/CMSIS/Include/cmsis_gcc.h **** 
 635:Drivers/CMSIS/Include/cmsis_gcc.h **** 
 636:Drivers/CMSIS/Include/cmsis_gcc.h **** /**
 637:Drivers/CMSIS/Include/cmsis_gcc.h ****   \brief   Load-Acquire (32 bit)
 638:Drivers/CMSIS/Include/cmsis_gcc.h ****   \details Executes a LDA instruction for 32 bit values.
 639:Drivers/CMSIS/Include/cmsis_gcc.h ****   \param [in]    ptr  Pointer to data
 640:Drivers/CMSIS/Include/cmsis_gcc.h ****   \return        value of type uint32_t at (*ptr)
 641:Drivers/CMSIS/Include/cmsis_gcc.h ****  */
 642:Drivers/CMSIS/Include/cmsis_gcc.h **** __STATIC_FORCEINLINE uint32_t __LDA(volatile uint32_t *ptr)
 643:Drivers/CMSIS/Include/cmsis_gcc.h **** {
 644:Drivers/CMSIS/Include/cmsis_gcc.h ****   uint32_t result;
 645:Drivers/CMSIS/Include/cmsis_gcc.h **** 
 646:Drivers/CMSIS/Include/cmsis_gcc.h ****   __ASM volatile ("lda %0, %1" : "=r" (result) : "Q" (*ptr) : "memory" );
 647:Drivers/CMSIS/Include/cmsis_gcc.h ****   return (result);
 648:Drivers/CMSIS/Include/cmsis_gcc.h **** }
 649:Drivers/CMSIS/Include/cmsis_gcc.h **** 
 650:Drivers/CMSIS/Include/cmsis_gcc.h **** 
 651:Drivers/CMSIS/Include/cmsis_gcc.h **** /**
 652:Drivers/CMSIS/Include/cmsis_gcc.h ****   \brief   Store-Release (8 bit)
 653:Drivers/CMSIS/Include/cmsis_gcc.h ****   \details Executes a STLB instruction for 8 bit values.
 654:Drivers/CMSIS/Include/cmsis_gcc.h ****   \param [in]  value  Value to store
 655:Drivers/CMSIS/Include/cmsis_gcc.h ****   \param [in]    ptr  Pointer to location
 656:Drivers/CMSIS/Include/cmsis_gcc.h ****  */
 657:Drivers/CMSIS/Include/cmsis_gcc.h **** __STATIC_FORCEINLINE void __STLB(uint8_t value, volatile uint8_t *ptr)
 658:Drivers/CMSIS/Include/cmsis_gcc.h **** {
 659:Drivers/CMSIS/Include/cmsis_gcc.h ****   __ASM volatile ("stlb %1, %0" : "=Q" (*ptr) : "r" ((uint32_t)value) : "memory" );
 660:Drivers/CMSIS/Include/cmsis_gcc.h **** }
 661:Drivers/CMSIS/Include/cmsis_gcc.h **** 
 662:Drivers/CMSIS/Include/cmsis_gcc.h **** 
 663:Drivers/CMSIS/Include/cmsis_gcc.h **** /**
 664:Drivers/CMSIS/Include/cmsis_gcc.h ****   \brief   Store-Release (16 bit)
 665:Drivers/CMSIS/Include/cmsis_gcc.h ****   \details Executes a STLH instruction for 16 bit values.
 666:Drivers/CMSIS/Include/cmsis_gcc.h ****   \param [in]  value  Value to store
 667:Drivers/CMSIS/Include/cmsis_gcc.h ****   \param [in]    ptr  Pointer to location
 668:Drivers/CMSIS/Include/cmsis_gcc.h ****  */
 669:Drivers/CMSIS/Include/cmsis_gcc.h **** __STATIC_FORCEINLINE void __STLH(uint16_t value, volatile uint16_t *ptr)
 670:Drivers/CMSIS/Include/cmsis_gcc.h **** {
 671:Drivers/CMSIS/Include/cmsis_gcc.h ****   __ASM volatile ("stlh %1, %0" : "=Q" (*ptr) : "r" ((uint32_t)value) : "memory" );
 672:Drivers/CMSIS/Include/cmsis_gcc.h **** }
 673:Drivers/CMSIS/Include/cmsis_gcc.h **** 
 674:Drivers/CMSIS/Include/cmsis_gcc.h **** 
 675:Drivers/CMSIS/Include/cmsis_gcc.h **** /**
 676:Drivers/CMSIS/Include/cmsis_gcc.h ****   \brief   Store-Release (32 bit)
 677:Drivers/CMSIS/Include/cmsis_gcc.h ****   \details Executes a STL instruction for 32 bit values.
 678:Drivers/CMSIS/Include/cmsis_gcc.h ****   \param [in]  value  Value to store
 679:Drivers/CMSIS/Include/cmsis_gcc.h ****   \param [in]    ptr  Pointer to location
 680:Drivers/CMSIS/Include/cmsis_gcc.h ****  */
 681:Drivers/CMSIS/Include/cmsis_gcc.h **** __STATIC_FORCEINLINE void __STL(uint32_t value, volatile uint32_t *ptr)
 682:Drivers/CMSIS/Include/cmsis_gcc.h **** {
 683:Drivers/CMSIS/Include/cmsis_gcc.h ****   __ASM volatile ("stl %1, %0" : "=Q" (*ptr) : "r" ((uint32_t)value) : "memory" );
 684:Drivers/CMSIS/Include/cmsis_gcc.h **** }
 685:Drivers/CMSIS/Include/cmsis_gcc.h **** 
 686:Drivers/CMSIS/Include/cmsis_gcc.h **** 
ARM GAS  /tmp/ccjBgtoi.s 			page 157


 687:Drivers/CMSIS/Include/cmsis_gcc.h **** /**
 688:Drivers/CMSIS/Include/cmsis_gcc.h ****   \brief   Load-Acquire Exclusive (8 bit)
 689:Drivers/CMSIS/Include/cmsis_gcc.h ****   \details Executes a LDAB exclusive instruction for 8 bit value.
 690:Drivers/CMSIS/Include/cmsis_gcc.h ****   \param [in]    ptr  Pointer to data
 691:Drivers/CMSIS/Include/cmsis_gcc.h ****   \return             value of type uint8_t at (*ptr)
 692:Drivers/CMSIS/Include/cmsis_gcc.h ****  */
 693:Drivers/CMSIS/Include/cmsis_gcc.h **** __STATIC_FORCEINLINE uint8_t __LDAEXB(volatile uint8_t *ptr)
 694:Drivers/CMSIS/Include/cmsis_gcc.h **** {
 695:Drivers/CMSIS/Include/cmsis_gcc.h ****   uint32_t result;
 696:Drivers/CMSIS/Include/cmsis_gcc.h **** 
 697:Drivers/CMSIS/Include/cmsis_gcc.h ****   __ASM volatile ("ldaexb %0, %1" : "=r" (result) : "Q" (*ptr) : "memory" );
 698:Drivers/CMSIS/Include/cmsis_gcc.h ****   return ((uint8_t)result);    /* Add explicit type cast here */
 699:Drivers/CMSIS/Include/cmsis_gcc.h **** }
 700:Drivers/CMSIS/Include/cmsis_gcc.h **** 
 701:Drivers/CMSIS/Include/cmsis_gcc.h **** 
 702:Drivers/CMSIS/Include/cmsis_gcc.h **** /**
 703:Drivers/CMSIS/Include/cmsis_gcc.h ****   \brief   Load-Acquire Exclusive (16 bit)
 704:Drivers/CMSIS/Include/cmsis_gcc.h ****   \details Executes a LDAH exclusive instruction for 16 bit values.
 705:Drivers/CMSIS/Include/cmsis_gcc.h ****   \param [in]    ptr  Pointer to data
 706:Drivers/CMSIS/Include/cmsis_gcc.h ****   \return        value of type uint16_t at (*ptr)
 707:Drivers/CMSIS/Include/cmsis_gcc.h ****  */
 708:Drivers/CMSIS/Include/cmsis_gcc.h **** __STATIC_FORCEINLINE uint16_t __LDAEXH(volatile uint16_t *ptr)
 709:Drivers/CMSIS/Include/cmsis_gcc.h **** {
 710:Drivers/CMSIS/Include/cmsis_gcc.h ****   uint32_t result;
 711:Drivers/CMSIS/Include/cmsis_gcc.h **** 
 712:Drivers/CMSIS/Include/cmsis_gcc.h ****   __ASM volatile ("ldaexh %0, %1" : "=r" (result) : "Q" (*ptr) : "memory" );
 713:Drivers/CMSIS/Include/cmsis_gcc.h ****   return ((uint16_t)result);    /* Add explicit type cast here */
 714:Drivers/CMSIS/Include/cmsis_gcc.h **** }
 715:Drivers/CMSIS/Include/cmsis_gcc.h **** 
 716:Drivers/CMSIS/Include/cmsis_gcc.h **** 
 717:Drivers/CMSIS/Include/cmsis_gcc.h **** /**
 718:Drivers/CMSIS/Include/cmsis_gcc.h ****   \brief   Load-Acquire Exclusive (32 bit)
 719:Drivers/CMSIS/Include/cmsis_gcc.h ****   \details Executes a LDA exclusive instruction for 32 bit values.
 720:Drivers/CMSIS/Include/cmsis_gcc.h ****   \param [in]    ptr  Pointer to data
 721:Drivers/CMSIS/Include/cmsis_gcc.h ****   \return        value of type uint32_t at (*ptr)
 722:Drivers/CMSIS/Include/cmsis_gcc.h ****  */
 723:Drivers/CMSIS/Include/cmsis_gcc.h **** __STATIC_FORCEINLINE uint32_t __LDAEX(volatile uint32_t *ptr)
 724:Drivers/CMSIS/Include/cmsis_gcc.h **** {
 725:Drivers/CMSIS/Include/cmsis_gcc.h ****   uint32_t result;
 726:Drivers/CMSIS/Include/cmsis_gcc.h **** 
 727:Drivers/CMSIS/Include/cmsis_gcc.h ****   __ASM volatile ("ldaex %0, %1" : "=r" (result) : "Q" (*ptr) : "memory" );
 728:Drivers/CMSIS/Include/cmsis_gcc.h ****   return (result);
 729:Drivers/CMSIS/Include/cmsis_gcc.h **** }
 730:Drivers/CMSIS/Include/cmsis_gcc.h **** 
 731:Drivers/CMSIS/Include/cmsis_gcc.h **** 
 732:Drivers/CMSIS/Include/cmsis_gcc.h **** /**
 733:Drivers/CMSIS/Include/cmsis_gcc.h ****   \brief   Store-Release Exclusive (8 bit)
 734:Drivers/CMSIS/Include/cmsis_gcc.h ****   \details Executes a STLB exclusive instruction for 8 bit values.
 735:Drivers/CMSIS/Include/cmsis_gcc.h ****   \param [in]  value  Value to store
 736:Drivers/CMSIS/Include/cmsis_gcc.h ****   \param [in]    ptr  Pointer to location
 737:Drivers/CMSIS/Include/cmsis_gcc.h ****   \return          0  Function succeeded
 738:Drivers/CMSIS/Include/cmsis_gcc.h ****   \return          1  Function failed
 739:Drivers/CMSIS/Include/cmsis_gcc.h ****  */
 740:Drivers/CMSIS/Include/cmsis_gcc.h **** __STATIC_FORCEINLINE uint32_t __STLEXB(uint8_t value, volatile uint8_t *ptr)
 741:Drivers/CMSIS/Include/cmsis_gcc.h **** {
 742:Drivers/CMSIS/Include/cmsis_gcc.h ****   uint32_t result;
 743:Drivers/CMSIS/Include/cmsis_gcc.h **** 
ARM GAS  /tmp/ccjBgtoi.s 			page 158


 744:Drivers/CMSIS/Include/cmsis_gcc.h ****   __ASM volatile ("stlexb %0, %2, %1" : "=&r" (result), "=Q" (*ptr) : "r" ((uint32_t)value) : "memo
 745:Drivers/CMSIS/Include/cmsis_gcc.h ****   return (result);
 746:Drivers/CMSIS/Include/cmsis_gcc.h **** }
 747:Drivers/CMSIS/Include/cmsis_gcc.h **** 
 748:Drivers/CMSIS/Include/cmsis_gcc.h **** 
 749:Drivers/CMSIS/Include/cmsis_gcc.h **** /**
 750:Drivers/CMSIS/Include/cmsis_gcc.h ****   \brief   Store-Release Exclusive (16 bit)
 751:Drivers/CMSIS/Include/cmsis_gcc.h ****   \details Executes a STLH exclusive instruction for 16 bit values.
 752:Drivers/CMSIS/Include/cmsis_gcc.h ****   \param [in]  value  Value to store
 753:Drivers/CMSIS/Include/cmsis_gcc.h ****   \param [in]    ptr  Pointer to location
 754:Drivers/CMSIS/Include/cmsis_gcc.h ****   \return          0  Function succeeded
 755:Drivers/CMSIS/Include/cmsis_gcc.h ****   \return          1  Function failed
 756:Drivers/CMSIS/Include/cmsis_gcc.h ****  */
 757:Drivers/CMSIS/Include/cmsis_gcc.h **** __STATIC_FORCEINLINE uint32_t __STLEXH(uint16_t value, volatile uint16_t *ptr)
 758:Drivers/CMSIS/Include/cmsis_gcc.h **** {
 759:Drivers/CMSIS/Include/cmsis_gcc.h ****   uint32_t result;
 760:Drivers/CMSIS/Include/cmsis_gcc.h **** 
 761:Drivers/CMSIS/Include/cmsis_gcc.h ****   __ASM volatile ("stlexh %0, %2, %1" : "=&r" (result), "=Q" (*ptr) : "r" ((uint32_t)value) : "memo
 762:Drivers/CMSIS/Include/cmsis_gcc.h ****   return (result);
 763:Drivers/CMSIS/Include/cmsis_gcc.h **** }
 764:Drivers/CMSIS/Include/cmsis_gcc.h **** 
 765:Drivers/CMSIS/Include/cmsis_gcc.h **** 
 766:Drivers/CMSIS/Include/cmsis_gcc.h **** /**
 767:Drivers/CMSIS/Include/cmsis_gcc.h ****   \brief   Store-Release Exclusive (32 bit)
 768:Drivers/CMSIS/Include/cmsis_gcc.h ****   \details Executes a STL exclusive instruction for 32 bit values.
 769:Drivers/CMSIS/Include/cmsis_gcc.h ****   \param [in]  value  Value to store
 770:Drivers/CMSIS/Include/cmsis_gcc.h ****   \param [in]    ptr  Pointer to location
 771:Drivers/CMSIS/Include/cmsis_gcc.h ****   \return          0  Function succeeded
 772:Drivers/CMSIS/Include/cmsis_gcc.h ****   \return          1  Function failed
 773:Drivers/CMSIS/Include/cmsis_gcc.h ****  */
 774:Drivers/CMSIS/Include/cmsis_gcc.h **** __STATIC_FORCEINLINE uint32_t __STLEX(uint32_t value, volatile uint32_t *ptr)
 775:Drivers/CMSIS/Include/cmsis_gcc.h **** {
 776:Drivers/CMSIS/Include/cmsis_gcc.h ****   uint32_t result;
 777:Drivers/CMSIS/Include/cmsis_gcc.h **** 
 778:Drivers/CMSIS/Include/cmsis_gcc.h ****   __ASM volatile ("stlex %0, %2, %1" : "=&r" (result), "=Q" (*ptr) : "r" ((uint32_t)value) : "memor
 779:Drivers/CMSIS/Include/cmsis_gcc.h ****   return (result);
 780:Drivers/CMSIS/Include/cmsis_gcc.h **** }
 781:Drivers/CMSIS/Include/cmsis_gcc.h **** 
 782:Drivers/CMSIS/Include/cmsis_gcc.h **** #endif /* (__ARM_ARCH >= 8) */
 783:Drivers/CMSIS/Include/cmsis_gcc.h **** 
 784:Drivers/CMSIS/Include/cmsis_gcc.h **** /** @}*/ /* end of group CMSIS_Core_InstructionInterface */
 785:Drivers/CMSIS/Include/cmsis_gcc.h **** 
 786:Drivers/CMSIS/Include/cmsis_gcc.h **** 
 787:Drivers/CMSIS/Include/cmsis_gcc.h **** /* ###########################  Core Function Access  ########################### */
 788:Drivers/CMSIS/Include/cmsis_gcc.h **** /** \ingroup  CMSIS_Core_FunctionInterface
 789:Drivers/CMSIS/Include/cmsis_gcc.h ****     \defgroup CMSIS_Core_RegAccFunctions CMSIS Core Register Access Functions
 790:Drivers/CMSIS/Include/cmsis_gcc.h ****   @{
 791:Drivers/CMSIS/Include/cmsis_gcc.h ****  */
 792:Drivers/CMSIS/Include/cmsis_gcc.h **** 
 793:Drivers/CMSIS/Include/cmsis_gcc.h **** /**
 794:Drivers/CMSIS/Include/cmsis_gcc.h ****   \brief   Enable IRQ Interrupts
 795:Drivers/CMSIS/Include/cmsis_gcc.h ****   \details Enables IRQ interrupts by clearing special-purpose register PRIMASK.
 796:Drivers/CMSIS/Include/cmsis_gcc.h ****            Can only be executed in Privileged modes.
 797:Drivers/CMSIS/Include/cmsis_gcc.h ****  */
 798:Drivers/CMSIS/Include/cmsis_gcc.h **** __STATIC_FORCEINLINE void __enable_irq(void)
 799:Drivers/CMSIS/Include/cmsis_gcc.h **** {
 800:Drivers/CMSIS/Include/cmsis_gcc.h ****   __ASM volatile ("cpsie i" : : : "memory");
ARM GAS  /tmp/ccjBgtoi.s 			page 159


 801:Drivers/CMSIS/Include/cmsis_gcc.h **** }
 802:Drivers/CMSIS/Include/cmsis_gcc.h **** 
 803:Drivers/CMSIS/Include/cmsis_gcc.h **** 
 804:Drivers/CMSIS/Include/cmsis_gcc.h **** /**
 805:Drivers/CMSIS/Include/cmsis_gcc.h ****   \brief   Disable IRQ Interrupts
 806:Drivers/CMSIS/Include/cmsis_gcc.h ****   \details Disables IRQ interrupts by setting special-purpose register PRIMASK.
 807:Drivers/CMSIS/Include/cmsis_gcc.h ****            Can only be executed in Privileged modes.
 808:Drivers/CMSIS/Include/cmsis_gcc.h ****  */
 809:Drivers/CMSIS/Include/cmsis_gcc.h **** __STATIC_FORCEINLINE void __disable_irq(void)
 5283              		.loc 2 809 27 view .LVU1092
 5284              	.LBB14:
 810:Drivers/CMSIS/Include/cmsis_gcc.h **** {
 811:Drivers/CMSIS/Include/cmsis_gcc.h ****   __ASM volatile ("cpsid i" : : : "memory");
 5285              		.loc 2 811 3 view .LVU1093
 5286              		.syntax unified
 5287              	@ 811 "Drivers/CMSIS/Include/cmsis_gcc.h" 1
 5288 0004 72B6     		cpsid i
 5289              	@ 0 "" 2
 5290              		.thumb
 5291              		.syntax unified
 5292              	.L435:
 5293              	.LBE14:
 5294              	.LBE13:
2249:Core/Src/main_unique.c **** 
2250:Core/Src/main_unique.c ****     while (1) {
 5295              		.loc 1 2250 5 view .LVU1094
2251:Core/Src/main_unique.c ****         HAL_GPIO_TogglePin(LED_GPIO_PORT, LED_PIN);
 5296              		.loc 1 2251 9 view .LVU1095
 5297 0006 0221     		movs	r1, #2
 5298 0008 0648     		ldr	r0, .L437
 5299 000a FFF7FEFF 		bl	HAL_GPIO_TogglePin
 5300              	.LVL396:
2252:Core/Src/main_unique.c ****         /* Retardo por bucle: HAL_Delay depende del SysTick, que esta
2253:Core/Src/main_unique.c ****            deshabilitado junto con el resto de interrupciones. */
2254:Core/Src/main_unique.c ****         for (volatile uint32_t i = 0; i < 500000U; i++) {
 5301              		.loc 1 2254 9 view .LVU1096
 5302              	.LBB15:
 5303              		.loc 1 2254 14 view .LVU1097
 5304              		.loc 1 2254 32 is_stmt 0 view .LVU1098
 5305 000e 0023     		movs	r3, #0
 5306 0010 0193     		str	r3, [sp, #4]
 5307              	.L433:
 5308              		.loc 1 2254 41 is_stmt 1 discriminator 2 view .LVU1099
 5309 0012 019A     		ldr	r2, [sp, #4]
 5310 0014 044B     		ldr	r3, .L437+4
 5311 0016 9A42     		cmp	r2, r3
 5312 0018 F5D8     		bhi	.L435
2255:Core/Src/main_unique.c ****             __NOP();
 5313              		.loc 1 2255 13 view .LVU1100
 5314              		.syntax unified
 5315              	@ 2255 "Core/Src/main_unique.c" 1
 5316 001a 00BF     		nop
 5317              	@ 0 "" 2
2254:Core/Src/main_unique.c ****             __NOP();
 5318              		.loc 1 2254 53 discriminator 1 view .LVU1101
 5319              		.thumb
 5320              		.syntax unified
ARM GAS  /tmp/ccjBgtoi.s 			page 160


 5321 001c 019B     		ldr	r3, [sp, #4]
 5322 001e 0133     		adds	r3, r3, #1
 5323 0020 0193     		str	r3, [sp, #4]
 5324 0022 F6E7     		b	.L433
 5325              	.L438:
 5326              		.align	2
 5327              	.L437:
 5328 0024 001C0240 		.word	1073880064
 5329 0028 1FA10700 		.word	499999
 5330              	.LBE15:
 5331              		.cfi_endproc
 5332              	.LFE369:
 5334              		.section	.text.system_clock_init,"ax",%progbits
 5335              		.align	1
 5336              		.global	system_clock_init
 5337              		.syntax unified
 5338              		.thumb
 5339              		.thumb_func
 5341              	system_clock_init:
 5342              	.LFB268:
 257:Core/Src/main_unique.c ****     RCC_OscInitTypeDef osc = {0};   /* configuracion de osciladores */
 5343              		.loc 1 257 1 view -0
 5344              		.cfi_startproc
 5345              		@ args = 0, pretend = 0, frame = 80
 5346              		@ frame_needed = 0, uses_anonymous_args = 0
 5347 0000 30B5     		push	{r4, r5, lr}
 5348              	.LCFI89:
 5349              		.cfi_def_cfa_offset 12
 5350              		.cfi_offset 4, -12
 5351              		.cfi_offset 5, -8
 5352              		.cfi_offset 14, -4
 5353 0002 95B0     		sub	sp, sp, #84
 5354              	.LCFI90:
 5355              		.cfi_def_cfa_offset 96
 258:Core/Src/main_unique.c ****     RCC_ClkInitTypeDef clk = {0};   /* configuracion de buses       */
 5356              		.loc 1 258 5 view .LVU1103
 258:Core/Src/main_unique.c ****     RCC_ClkInitTypeDef clk = {0};   /* configuracion de buses       */
 5357              		.loc 1 258 24 is_stmt 0 view .LVU1104
 5358 0004 08AD     		add	r5, sp, #32
 5359 0006 3022     		movs	r2, #48
 5360 0008 0021     		movs	r1, #0
 5361 000a 2846     		mov	r0, r5
 5362 000c FFF7FEFF 		bl	memset
 5363              	.LVL397:
 259:Core/Src/main_unique.c **** 
 5364              		.loc 1 259 5 is_stmt 1 view .LVU1105
 259:Core/Src/main_unique.c **** 
 5365              		.loc 1 259 24 is_stmt 0 view .LVU1106
 5366 0010 0024     		movs	r4, #0
 5367 0012 0394     		str	r4, [sp, #12]
 5368 0014 0494     		str	r4, [sp, #16]
 5369 0016 0594     		str	r4, [sp, #20]
 5370 0018 0694     		str	r4, [sp, #24]
 5371 001a 0794     		str	r4, [sp, #28]
 263:Core/Src/main_unique.c **** 
 5372              		.loc 1 263 5 is_stmt 1 view .LVU1107
 5373              	.LBB16:
ARM GAS  /tmp/ccjBgtoi.s 			page 161


 263:Core/Src/main_unique.c **** 
 5374              		.loc 1 263 5 view .LVU1108
 5375 001c 0194     		str	r4, [sp, #4]
 263:Core/Src/main_unique.c **** 
 5376              		.loc 1 263 5 view .LVU1109
 5377 001e 2F4B     		ldr	r3, .L448
 5378 0020 1A6C     		ldr	r2, [r3, #64]
 5379 0022 42F08052 		orr	r2, r2, #268435456
 5380 0026 1A64     		str	r2, [r3, #64]
 263:Core/Src/main_unique.c **** 
 5381              		.loc 1 263 5 view .LVU1110
 5382 0028 1B6C     		ldr	r3, [r3, #64]
 5383 002a 03F08053 		and	r3, r3, #268435456
 5384 002e 0193     		str	r3, [sp, #4]
 263:Core/Src/main_unique.c **** 
 5385              		.loc 1 263 5 view .LVU1111
 5386 0030 019B     		ldr	r3, [sp, #4]
 5387              	.LBE16:
 263:Core/Src/main_unique.c **** 
 5388              		.loc 1 263 5 view .LVU1112
 268:Core/Src/main_unique.c **** 
 5389              		.loc 1 268 5 view .LVU1113
 5390              	.LBB17:
 268:Core/Src/main_unique.c **** 
 5391              		.loc 1 268 5 view .LVU1114
 5392 0032 0294     		str	r4, [sp, #8]
 268:Core/Src/main_unique.c **** 
 5393              		.loc 1 268 5 view .LVU1115
 5394 0034 2A4B     		ldr	r3, .L448+4
 5395 0036 1A68     		ldr	r2, [r3]
 5396 0038 42F44042 		orr	r2, r2, #49152
 5397 003c 1A60     		str	r2, [r3]
 268:Core/Src/main_unique.c **** 
 5398              		.loc 1 268 5 view .LVU1116
 5399 003e 1B68     		ldr	r3, [r3]
 5400 0040 03F44043 		and	r3, r3, #49152
 5401 0044 0293     		str	r3, [sp, #8]
 268:Core/Src/main_unique.c **** 
 5402              		.loc 1 268 5 view .LVU1117
 5403 0046 029B     		ldr	r3, [sp, #8]
 5404              	.LBE17:
 268:Core/Src/main_unique.c **** 
 5405              		.loc 1 268 5 view .LVU1118
 272:Core/Src/main_unique.c **** 
 5406              		.loc 1 272 5 view .LVU1119
 5407 0048 FFF7FEFF 		bl	HAL_PWR_EnableBkUpAccess
 5408              	.LVL398:
 280:Core/Src/main_unique.c ****     osc.HSIState            = RCC_HSI_ON;                 /* enciende el HSI  */
 5409              		.loc 1 280 5 view .LVU1120
 280:Core/Src/main_unique.c ****     osc.HSIState            = RCC_HSI_ON;                 /* enciende el HSI  */
 5410              		.loc 1 280 29 is_stmt 0 view .LVU1121
 5411 004c 0223     		movs	r3, #2
 5412 004e 0893     		str	r3, [sp, #32]
 281:Core/Src/main_unique.c ****     osc.HSICalibrationValue = RCC_HSICALIBRATION_DEFAULT; /* trim de fabrica  */
 5413              		.loc 1 281 5 is_stmt 1 view .LVU1122
 281:Core/Src/main_unique.c ****     osc.HSICalibrationValue = RCC_HSICALIBRATION_DEFAULT; /* trim de fabrica  */
 5414              		.loc 1 281 29 is_stmt 0 view .LVU1123
ARM GAS  /tmp/ccjBgtoi.s 			page 162


 5415 0050 0122     		movs	r2, #1
 5416 0052 0B92     		str	r2, [sp, #44]
 282:Core/Src/main_unique.c **** 
 5417              		.loc 1 282 5 is_stmt 1 view .LVU1124
 282:Core/Src/main_unique.c **** 
 5418              		.loc 1 282 29 is_stmt 0 view .LVU1125
 5419 0054 1022     		movs	r2, #16
 5420 0056 0C92     		str	r2, [sp, #48]
 284:Core/Src/main_unique.c ****     osc.PLL.PLLSource = RCC_PLLSOURCE_HSI;       /* entrada del PLL     */
 5421              		.loc 1 284 5 is_stmt 1 view .LVU1126
 284:Core/Src/main_unique.c ****     osc.PLL.PLLSource = RCC_PLLSOURCE_HSI;       /* entrada del PLL     */
 5422              		.loc 1 284 23 is_stmt 0 view .LVU1127
 5423 0058 0E93     		str	r3, [sp, #56]
 285:Core/Src/main_unique.c ****     osc.PLL.PLLM      = 8U;    /* divisor de entrada: 16 MHz / 8 = 2 MHz.
 5424              		.loc 1 285 5 is_stmt 1 view .LVU1128
 285:Core/Src/main_unique.c ****     osc.PLL.PLLM      = 8U;    /* divisor de entrada: 16 MHz / 8 = 2 MHz.
 5425              		.loc 1 285 23 is_stmt 0 view .LVU1129
 5426 005a 0F94     		str	r4, [sp, #60]
 286:Core/Src/main_unique.c ****                                   La entrada al VCO debe quedar entre
 5427              		.loc 1 286 5 is_stmt 1 view .LVU1130
 286:Core/Src/main_unique.c ****                                   La entrada al VCO debe quedar entre
 5428              		.loc 1 286 23 is_stmt 0 view .LVU1131
 5429 005c 0822     		movs	r2, #8
 5430 005e 1092     		str	r2, [sp, #64]
 289:Core/Src/main_unique.c ****                                   El VCO debe quedar entre 100 y 432 MHz */
 5431              		.loc 1 289 5 is_stmt 1 view .LVU1132
 289:Core/Src/main_unique.c ****                                   El VCO debe quedar entre 100 y 432 MHz */
 5432              		.loc 1 289 23 is_stmt 0 view .LVU1133
 5433 0060 6422     		movs	r2, #100
 5434 0062 1192     		str	r2, [sp, #68]
 291:Core/Src/main_unique.c ****                                   Valores posibles: DIV2, DIV4, DIV6, DIV8 */
 5435              		.loc 1 291 5 is_stmt 1 view .LVU1134
 291:Core/Src/main_unique.c ****                                   Valores posibles: DIV2, DIV4, DIV6, DIV8 */
 5436              		.loc 1 291 23 is_stmt 0 view .LVU1135
 5437 0064 1293     		str	r3, [sp, #72]
 293:Core/Src/main_unique.c ****                                   No se usa en este proyecto, pero la HAL
 5438              		.loc 1 293 5 is_stmt 1 view .LVU1136
 293:Core/Src/main_unique.c ****                                   No se usa en este proyecto, pero la HAL
 5439              		.loc 1 293 23 is_stmt 0 view .LVU1137
 5440 0066 0423     		movs	r3, #4
 5441 0068 1393     		str	r3, [sp, #76]
 297:Core/Src/main_unique.c ****         Error_Handler();       /* fallo del PLL: este si es irrecuperable */
 5442              		.loc 1 297 5 is_stmt 1 view .LVU1138
 297:Core/Src/main_unique.c ****         Error_Handler();       /* fallo del PLL: este si es irrecuperable */
 5443              		.loc 1 297 9 is_stmt 0 view .LVU1139
 5444 006a 2846     		mov	r0, r5
 5445 006c FFF7FEFF 		bl	HAL_RCC_OscConfig
 5446              	.LVL399:
 297:Core/Src/main_unique.c ****         Error_Handler();       /* fallo del PLL: este si es irrecuperable */
 5447              		.loc 1 297 8 discriminator 1 view .LVU1140
 5448 0070 30BB     		cbnz	r0, .L445
 303:Core/Src/main_unique.c ****                          RCC_CLOCKTYPE_PCLK1 | RCC_CLOCKTYPE_PCLK2;
 5449              		.loc 1 303 5 is_stmt 1 view .LVU1141
 303:Core/Src/main_unique.c ****                          RCC_CLOCKTYPE_PCLK1 | RCC_CLOCKTYPE_PCLK2;
 5450              		.loc 1 303 24 is_stmt 0 view .LVU1142
 5451 0072 0F23     		movs	r3, #15
 5452 0074 0393     		str	r3, [sp, #12]
ARM GAS  /tmp/ccjBgtoi.s 			page 163


 305:Core/Src/main_unique.c ****     clk.AHBCLKDivider  = RCC_SYSCLK_DIV1;         /* HCLK  = 100 MHz            */
 5453              		.loc 1 305 5 is_stmt 1 view .LVU1143
 305:Core/Src/main_unique.c ****     clk.AHBCLKDivider  = RCC_SYSCLK_DIV1;         /* HCLK  = 100 MHz            */
 5454              		.loc 1 305 24 is_stmt 0 view .LVU1144
 5455 0076 0223     		movs	r3, #2
 5456 0078 0493     		str	r3, [sp, #16]
 306:Core/Src/main_unique.c ****     clk.APB1CLKDivider = RCC_HCLK_DIV2;           /* PCLK1 =  50 MHz (maximo)   */
 5457              		.loc 1 306 5 is_stmt 1 view .LVU1145
 306:Core/Src/main_unique.c ****     clk.APB1CLKDivider = RCC_HCLK_DIV2;           /* PCLK1 =  50 MHz (maximo)   */
 5458              		.loc 1 306 24 is_stmt 0 view .LVU1146
 5459 007a 0590     		str	r0, [sp, #20]
 307:Core/Src/main_unique.c ****     clk.APB2CLKDivider = RCC_HCLK_DIV1;           /* PCLK2 = 100 MHz            */
 5460              		.loc 1 307 5 is_stmt 1 view .LVU1147
 307:Core/Src/main_unique.c ****     clk.APB2CLKDivider = RCC_HCLK_DIV1;           /* PCLK2 = 100 MHz            */
 5461              		.loc 1 307 24 is_stmt 0 view .LVU1148
 5462 007c 4FF48052 		mov	r2, #4096
 5463 0080 0692     		str	r2, [sp, #24]
 308:Core/Src/main_unique.c **** 
 5464              		.loc 1 308 5 is_stmt 1 view .LVU1149
 308:Core/Src/main_unique.c **** 
 5465              		.loc 1 308 24 is_stmt 0 view .LVU1150
 5466 0082 0790     		str	r0, [sp, #28]
 314:Core/Src/main_unique.c ****         Error_Handler();
 5467              		.loc 1 314 5 is_stmt 1 view .LVU1151
 314:Core/Src/main_unique.c ****         Error_Handler();
 5468              		.loc 1 314 9 is_stmt 0 view .LVU1152
 5469 0084 0321     		movs	r1, #3
 5470 0086 03A8     		add	r0, sp, #12
 5471 0088 FFF7FEFF 		bl	HAL_RCC_ClockConfig
 5472              	.LVL400:
 314:Core/Src/main_unique.c ****         Error_Handler();
 5473              		.loc 1 314 8 discriminator 1 view .LVU1153
 5474 008c 0446     		mov	r4, r0
 5475 008e C8B9     		cbnz	r0, .L446
 320:Core/Src/main_unique.c ****     HAL_InitTick(TICK_INT_PRIORITY);
 5476              		.loc 1 320 5 is_stmt 1 view .LVU1154
 5477 0090 FFF7FEFF 		bl	SystemCoreClockUpdate
 5478              	.LVL401:
 321:Core/Src/main_unique.c **** 
 5479              		.loc 1 321 5 view .LVU1155
 5480 0094 0F20     		movs	r0, #15
 5481 0096 FFF7FEFF 		bl	HAL_InitTick
 5482              	.LVL402:
 328:Core/Src/main_unique.c ****     osc.PLL.PLLState   = RCC_PLL_NONE;   /* no volver a tocar el PLL ya activo */
 5483              		.loc 1 328 5 view .LVU1156
 328:Core/Src/main_unique.c ****     osc.PLL.PLLState   = RCC_PLL_NONE;   /* no volver a tocar el PLL ya activo */
 5484              		.loc 1 328 24 is_stmt 0 view .LVU1157
 5485 009a 0423     		movs	r3, #4
 5486 009c 0893     		str	r3, [sp, #32]
 329:Core/Src/main_unique.c ****     osc.LSEState       = RCC_LSE_ON;
 5487              		.loc 1 329 5 is_stmt 1 view .LVU1158
 329:Core/Src/main_unique.c ****     osc.LSEState       = RCC_LSE_ON;
 5488              		.loc 1 329 24 is_stmt 0 view .LVU1159
 5489 009e 0023     		movs	r3, #0
 5490 00a0 0E93     		str	r3, [sp, #56]
 330:Core/Src/main_unique.c ****     /* Alternativa: RCC_LSE_BYPASS si se inyecta un reloj externo ya generado */
 5491              		.loc 1 330 5 is_stmt 1 view .LVU1160
ARM GAS  /tmp/ccjBgtoi.s 			page 164


 330:Core/Src/main_unique.c ****     /* Alternativa: RCC_LSE_BYPASS si se inyecta un reloj externo ya generado */
 5492              		.loc 1 330 24 is_stmt 0 view .LVU1161
 5493 00a2 0123     		movs	r3, #1
 5494 00a4 0A93     		str	r3, [sp, #40]
 333:Core/Src/main_unique.c **** 
 5495              		.loc 1 333 5 is_stmt 1 view .LVU1162
 333:Core/Src/main_unique.c **** 
 5496              		.loc 1 333 17 is_stmt 0 view .LVU1163
 5497 00a6 08A8     		add	r0, sp, #32
 5498 00a8 FFF7FEFF 		bl	HAL_RCC_OscConfig
 5499              	.LVL403:
 333:Core/Src/main_unique.c **** 
 5500              		.loc 1 333 14 discriminator 1 view .LVU1164
 5501 00ac 00B9     		cbnz	r0, .L442
 333:Core/Src/main_unique.c **** 
 5502              		.loc 1 333 14 discriminator 2 view .LVU1165
 5503 00ae 0124     		movs	r4, #1
 5504              	.L442:
 333:Core/Src/main_unique.c **** 
 5505              		.loc 1 333 14 discriminator 4 view .LVU1166
 5506 00b0 0C4B     		ldr	r3, .L448+8
 5507 00b2 1C70     		strb	r4, [r3]
 335:Core/Src/main_unique.c ****         /* Reserva: oscilador interno de baja velocidad. Permite que el RTC
 5508              		.loc 1 335 5 is_stmt 1 view .LVU1167
 335:Core/Src/main_unique.c ****         /* Reserva: oscilador interno de baja velocidad. Permite que el RTC
 5509              		.loc 1 335 8 is_stmt 0 view .LVU1168
 5510 00b4 44B1     		cbz	r4, .L447
 5511              	.L443:
 348:Core/Src/main_unique.c **** }
 5512              		.loc 1 348 5 is_stmt 1 view .LVU1169
 5513 00b6 0220     		movs	r0, #2
 5514 00b8 FFF7FEFF 		bl	system_clock_mco_set
 5515              	.LVL404:
 349:Core/Src/main_unique.c **** 
 5516              		.loc 1 349 1 is_stmt 0 view .LVU1170
 5517 00bc 15B0     		add	sp, sp, #84
 5518              	.LCFI91:
 5519              		.cfi_remember_state
 5520              		.cfi_def_cfa_offset 12
 5521              		@ sp needed
 5522 00be 30BD     		pop	{r4, r5, pc}
 5523              	.L445:
 5524              	.LCFI92:
 5525              		.cfi_restore_state
 298:Core/Src/main_unique.c ****     }
 5526              		.loc 1 298 9 is_stmt 1 view .LVU1171
 5527 00c0 FFF7FEFF 		bl	Error_Handler
 5528              	.LVL405:
 5529              	.L446:
 315:Core/Src/main_unique.c ****     }
 5530              		.loc 1 315 9 view .LVU1172
 5531 00c4 FFF7FEFF 		bl	Error_Handler
 5532              	.LVL406:
 5533              	.L447:
 341:Core/Src/main_unique.c ****         osc.PLL.PLLState   = RCC_PLL_NONE;
 5534              		.loc 1 341 9 view .LVU1173
 341:Core/Src/main_unique.c ****         osc.PLL.PLLState   = RCC_PLL_NONE;
ARM GAS  /tmp/ccjBgtoi.s 			page 165


 5535              		.loc 1 341 28 is_stmt 0 view .LVU1174
 5536 00c8 0823     		movs	r3, #8
 5537 00ca 0893     		str	r3, [sp, #32]
 342:Core/Src/main_unique.c ****         osc.LSIState       = RCC_LSI_ON;
 5538              		.loc 1 342 9 is_stmt 1 view .LVU1175
 342:Core/Src/main_unique.c ****         osc.LSIState       = RCC_LSI_ON;
 5539              		.loc 1 342 28 is_stmt 0 view .LVU1176
 5540 00cc 0E94     		str	r4, [sp, #56]
 343:Core/Src/main_unique.c ****         HAL_RCC_OscConfig(&osc);
 5541              		.loc 1 343 9 is_stmt 1 view .LVU1177
 343:Core/Src/main_unique.c ****         HAL_RCC_OscConfig(&osc);
 5542              		.loc 1 343 28 is_stmt 0 view .LVU1178
 5543 00ce 0123     		movs	r3, #1
 5544 00d0 0D93     		str	r3, [sp, #52]
 344:Core/Src/main_unique.c ****     }
 5545              		.loc 1 344 9 is_stmt 1 view .LVU1179
 5546 00d2 08A8     		add	r0, sp, #32
 5547 00d4 FFF7FEFF 		bl	HAL_RCC_OscConfig
 5548              	.LVL407:
 5549 00d8 EDE7     		b	.L443
 5550              	.L449:
 5551 00da 00BF     		.align	2
 5552              	.L448:
 5553 00dc 00380240 		.word	1073887232
 5554 00e0 00700040 		.word	1073770496
 5555 00e4 00000000 		.word	s_lse_ok
 5556              		.cfi_endproc
 5557              	.LFE268:
 5559              		.section	.text.uart_init,"ax",%progbits
 5560              		.align	1
 5561              		.global	uart_init
 5562              		.syntax unified
 5563              		.thumb
 5564              		.thumb_func
 5566              	uart_init:
 5567              	.LFB278:
 538:Core/Src/main_unique.c ****     __HAL_RCC_USART2_CLK_ENABLE();
 5568              		.loc 1 538 1 view -0
 5569              		.cfi_startproc
 5570              		@ args = 0, pretend = 0, frame = 8
 5571              		@ frame_needed = 0, uses_anonymous_args = 0
 5572 0000 00B5     		push	{lr}
 5573              	.LCFI93:
 5574              		.cfi_def_cfa_offset 4
 5575              		.cfi_offset 14, -4
 5576 0002 83B0     		sub	sp, sp, #12
 5577              	.LCFI94:
 5578              		.cfi_def_cfa_offset 16
 539:Core/Src/main_unique.c **** 
 5579              		.loc 1 539 5 view .LVU1181
 5580              	.LBB18:
 539:Core/Src/main_unique.c **** 
 5581              		.loc 1 539 5 view .LVU1182
 5582 0004 0023     		movs	r3, #0
 5583 0006 0193     		str	r3, [sp, #4]
 539:Core/Src/main_unique.c **** 
 5584              		.loc 1 539 5 view .LVU1183
ARM GAS  /tmp/ccjBgtoi.s 			page 166


 5585 0008 154A     		ldr	r2, .L454
 5586 000a 116C     		ldr	r1, [r2, #64]
 5587 000c 41F40031 		orr	r1, r1, #131072
 5588 0010 1164     		str	r1, [r2, #64]
 539:Core/Src/main_unique.c **** 
 5589              		.loc 1 539 5 view .LVU1184
 5590 0012 126C     		ldr	r2, [r2, #64]
 5591 0014 02F40032 		and	r2, r2, #131072
 5592 0018 0192     		str	r2, [sp, #4]
 539:Core/Src/main_unique.c **** 
 5593              		.loc 1 539 5 view .LVU1185
 5594 001a 019A     		ldr	r2, [sp, #4]
 5595              	.LBE18:
 539:Core/Src/main_unique.c **** 
 5596              		.loc 1 539 5 view .LVU1186
 541:Core/Src/main_unique.c ****     huart2.Init.BaudRate   = 115200U;   /* velocidad estandar; el ST-LINK
 5597              		.loc 1 541 5 view .LVU1187
 541:Core/Src/main_unique.c ****     huart2.Init.BaudRate   = 115200U;   /* velocidad estandar; el ST-LINK
 5598              		.loc 1 541 28 is_stmt 0 view .LVU1188
 5599 001c 1148     		ldr	r0, .L454+4
 5600 001e 124A     		ldr	r2, .L454+8
 5601 0020 0260     		str	r2, [r0]
 542:Core/Src/main_unique.c ****                                     admite hasta 1 Mbaudio */
 5602              		.loc 1 542 5 is_stmt 1 view .LVU1189
 542:Core/Src/main_unique.c ****                                     admite hasta 1 Mbaudio */
 5603              		.loc 1 542 28 is_stmt 0 view .LVU1190
 5604 0022 4FF4E132 		mov	r2, #115200
 5605 0026 4260     		str	r2, [r0, #4]
 544:Core/Src/main_unique.c ****                                     Alternativa: 9B, usada cuando se anade
 5606              		.loc 1 544 5 is_stmt 1 view .LVU1191
 544:Core/Src/main_unique.c ****                                     Alternativa: 9B, usada cuando se anade
 5607              		.loc 1 544 28 is_stmt 0 view .LVU1192
 5608 0028 8360     		str	r3, [r0, #8]
 547:Core/Src/main_unique.c ****     huart2.Init.Parity     = UART_PARITY_NONE;
 5609              		.loc 1 547 5 is_stmt 1 view .LVU1193
 547:Core/Src/main_unique.c ****     huart2.Init.Parity     = UART_PARITY_NONE;
 5610              		.loc 1 547 28 is_stmt 0 view .LVU1194
 5611 002a C360     		str	r3, [r0, #12]
 548:Core/Src/main_unique.c ****     huart2.Init.Mode       = UART_MODE_TX_RX;     /* bidireccional */
 5612              		.loc 1 548 5 is_stmt 1 view .LVU1195
 548:Core/Src/main_unique.c ****     huart2.Init.Mode       = UART_MODE_TX_RX;     /* bidireccional */
 5613              		.loc 1 548 28 is_stmt 0 view .LVU1196
 5614 002c 0361     		str	r3, [r0, #16]
 549:Core/Src/main_unique.c ****     huart2.Init.HwFlowCtl  = UART_HWCONTROL_NONE; /* sin RTS/CTS   */
 5615              		.loc 1 549 5 is_stmt 1 view .LVU1197
 549:Core/Src/main_unique.c ****     huart2.Init.HwFlowCtl  = UART_HWCONTROL_NONE; /* sin RTS/CTS   */
 5616              		.loc 1 549 28 is_stmt 0 view .LVU1198
 5617 002e 0C22     		movs	r2, #12
 5618 0030 4261     		str	r2, [r0, #20]
 550:Core/Src/main_unique.c ****     huart2.Init.OverSampling = UART_OVERSAMPLING_16;
 5619              		.loc 1 550 5 is_stmt 1 view .LVU1199
 550:Core/Src/main_unique.c ****     huart2.Init.OverSampling = UART_OVERSAMPLING_16;
 5620              		.loc 1 550 28 is_stmt 0 view .LVU1200
 5621 0032 8361     		str	r3, [r0, #24]
 551:Core/Src/main_unique.c ****                                     /* 16 muestras por bit: mayor inmunidad
 5622              		.loc 1 551 5 is_stmt 1 view .LVU1201
 551:Core/Src/main_unique.c ****                                     /* 16 muestras por bit: mayor inmunidad
ARM GAS  /tmp/ccjBgtoi.s 			page 167


 5623              		.loc 1 551 30 is_stmt 0 view .LVU1202
 5624 0034 C361     		str	r3, [r0, #28]
 556:Core/Src/main_unique.c ****         Error_Handler();
 5625              		.loc 1 556 5 is_stmt 1 view .LVU1203
 556:Core/Src/main_unique.c ****         Error_Handler();
 5626              		.loc 1 556 9 is_stmt 0 view .LVU1204
 5627 0036 FFF7FEFF 		bl	HAL_UART_Init
 5628              	.LVL408:
 556:Core/Src/main_unique.c ****         Error_Handler();
 5629              		.loc 1 556 8 discriminator 1 view .LVU1205
 5630 003a 70B9     		cbnz	r0, .L453
 562:Core/Src/main_unique.c ****     HAL_NVIC_EnableIRQ(USART2_IRQn);
 5631              		.loc 1 562 5 is_stmt 1 view .LVU1206
 5632 003c 0246     		mov	r2, r0
 5633 003e 0521     		movs	r1, #5
 5634 0040 2620     		movs	r0, #38
 5635 0042 FFF7FEFF 		bl	HAL_NVIC_SetPriority
 5636              	.LVL409:
 563:Core/Src/main_unique.c **** 
 5637              		.loc 1 563 5 view .LVU1207
 5638 0046 2620     		movs	r0, #38
 5639 0048 FFF7FEFF 		bl	HAL_NVIC_EnableIRQ
 5640              	.LVL410:
 567:Core/Src/main_unique.c **** }
 5641              		.loc 1 567 5 view .LVU1208
 5642 004c 0122     		movs	r2, #1
 5643 004e 0749     		ldr	r1, .L454+12
 5644 0050 0448     		ldr	r0, .L454+4
 5645 0052 FFF7FEFF 		bl	HAL_UART_Receive_IT
 5646              	.LVL411:
 568:Core/Src/main_unique.c **** 
 5647              		.loc 1 568 1 is_stmt 0 view .LVU1209
 5648 0056 03B0     		add	sp, sp, #12
 5649              	.LCFI95:
 5650              		.cfi_remember_state
 5651              		.cfi_def_cfa_offset 4
 5652              		@ sp needed
 5653 0058 00BD     		pop	{pc}
 5654              	.L453:
 5655              	.LCFI96:
 5656              		.cfi_restore_state
 557:Core/Src/main_unique.c ****     }
 5657              		.loc 1 557 9 is_stmt 1 view .LVU1210
 5658 005a FFF7FEFF 		bl	Error_Handler
 5659              	.LVL412:
 5660              	.L455:
 5661 005e 00BF     		.align	2
 5662              	.L454:
 5663 0060 00380240 		.word	1073887232
 5664 0064 00000000 		.word	huart2
 5665 0068 00440040 		.word	1073759232
 5666 006c 00000000 		.word	s_rx_byte
 5667              		.cfi_endproc
 5668              	.LFE278:
 5670              		.section	.text.adc_select_channel,"ax",%progbits
 5671              		.align	1
 5672              		.syntax unified
ARM GAS  /tmp/ccjBgtoi.s 			page 168


 5673              		.thumb
 5674              		.thumb_func
 5676              	adc_select_channel:
 5677              	.LVL413:
 5678              	.LFB284:
 690:Core/Src/main_unique.c ****     ADC_ChannelConfTypeDef ch = {0};
 5679              		.loc 1 690 1 view -0
 5680              		.cfi_startproc
 5681              		@ args = 0, pretend = 0, frame = 16
 5682              		@ frame_needed = 0, uses_anonymous_args = 0
 690:Core/Src/main_unique.c ****     ADC_ChannelConfTypeDef ch = {0};
 5683              		.loc 1 690 1 is_stmt 0 view .LVU1212
 5684 0000 00B5     		push	{lr}
 5685              	.LCFI97:
 5686              		.cfi_def_cfa_offset 4
 5687              		.cfi_offset 14, -4
 5688 0002 85B0     		sub	sp, sp, #20
 5689              	.LCFI98:
 5690              		.cfi_def_cfa_offset 24
 691:Core/Src/main_unique.c **** 
 5691              		.loc 1 691 5 is_stmt 1 view .LVU1213
 691:Core/Src/main_unique.c **** 
 5692              		.loc 1 691 28 is_stmt 0 view .LVU1214
 5693 0004 6946     		mov	r1, sp
 5694 0006 0023     		movs	r3, #0
 5695 0008 0093     		str	r3, [sp]
 5696 000a 0193     		str	r3, [sp, #4]
 5697 000c 0293     		str	r3, [sp, #8]
 5698 000e 0393     		str	r3, [sp, #12]
 693:Core/Src/main_unique.c ****     ch.Rank         = 1;   /* primera y unica posicion de la secuencia */
 5699              		.loc 1 693 5 is_stmt 1 view .LVU1215
 693:Core/Src/main_unique.c ****     ch.Rank         = 1;   /* primera y unica posicion de la secuencia */
 5700              		.loc 1 693 50 is_stmt 0 view .LVU1216
 5701 0010 C01A     		subs	r0, r0, r3
 5702              	.LVL414:
 693:Core/Src/main_unique.c ****     ch.Rank         = 1;   /* primera y unica posicion de la secuencia */
 5703              		.loc 1 693 50 view .LVU1217
 5704 0012 18BF     		it	ne
 5705 0014 0120     		movne	r0, #1
 693:Core/Src/main_unique.c ****     ch.Rank         = 1;   /* primera y unica posicion de la secuencia */
 5706              		.loc 1 693 21 view .LVU1218
 5707 0016 0090     		str	r0, [sp]
 694:Core/Src/main_unique.c ****     ch.SamplingTime = ADC_SAMPLETIME_84CYCLES;
 5708              		.loc 1 694 5 is_stmt 1 view .LVU1219
 694:Core/Src/main_unique.c ****     ch.SamplingTime = ADC_SAMPLETIME_84CYCLES;
 5709              		.loc 1 694 21 is_stmt 0 view .LVU1220
 5710 0018 0123     		movs	r3, #1
 5711 001a 0193     		str	r3, [sp, #4]
 695:Core/Src/main_unique.c ****     /* Tiempo de muestreo: 84 ciclos de ADCCLK. Debe ser suficiente para que el
 5712              		.loc 1 695 5 is_stmt 1 view .LVU1221
 695:Core/Src/main_unique.c ****     /* Tiempo de muestreo: 84 ciclos de ADCCLK. Debe ser suficiente para que el
 5713              		.loc 1 695 21 is_stmt 0 view .LVU1222
 5714 001c 0423     		movs	r3, #4
 5715 001e 0293     		str	r3, [sp, #8]
 702:Core/Src/main_unique.c ****         Error_Handler();
 5716              		.loc 1 702 5 is_stmt 1 view .LVU1223
 702:Core/Src/main_unique.c ****         Error_Handler();
ARM GAS  /tmp/ccjBgtoi.s 			page 169


 5717              		.loc 1 702 9 is_stmt 0 view .LVU1224
 5718 0020 0348     		ldr	r0, .L460
 5719 0022 FFF7FEFF 		bl	HAL_ADC_ConfigChannel
 5720              	.LVL415:
 702:Core/Src/main_unique.c ****         Error_Handler();
 5721              		.loc 1 702 8 discriminator 1 view .LVU1225
 5722 0026 08B9     		cbnz	r0, .L459
 705:Core/Src/main_unique.c **** 
 5723              		.loc 1 705 1 view .LVU1226
 5724 0028 05B0     		add	sp, sp, #20
 5725              	.LCFI99:
 5726              		.cfi_remember_state
 5727              		.cfi_def_cfa_offset 4
 5728              		@ sp needed
 5729 002a 00BD     		pop	{pc}
 5730              	.L459:
 5731              	.LCFI100:
 5732              		.cfi_restore_state
 703:Core/Src/main_unique.c ****     }
 5733              		.loc 1 703 9 is_stmt 1 view .LVU1227
 5734 002c FFF7FEFF 		bl	Error_Handler
 5735              	.LVL416:
 5736              	.L461:
 5737              		.align	2
 5738              	.L460:
 5739 0030 00000000 		.word	hadc1
 5740              		.cfi_endproc
 5741              	.LFE284:
 5743              		.section	.text.adc_joystick_start,"ax",%progbits
 5744              		.align	1
 5745              		.global	adc_joystick_start
 5746              		.syntax unified
 5747              		.thumb
 5748              		.thumb_func
 5750              	adc_joystick_start:
 5751              	.LFB286:
 756:Core/Src/main_unique.c ****     s_channel = 0;              /* la secuencia empieza siempre por VRX */
 5752              		.loc 1 756 1 view -0
 5753              		.cfi_startproc
 5754              		@ args = 0, pretend = 0, frame = 0
 5755              		@ frame_needed = 0, uses_anonymous_args = 0
 5756 0000 08B5     		push	{r3, lr}
 5757              	.LCFI101:
 5758              		.cfi_def_cfa_offset 8
 5759              		.cfi_offset 3, -8
 5760              		.cfi_offset 14, -4
 757:Core/Src/main_unique.c ****     adc_select_channel(0);
 5761              		.loc 1 757 5 view .LVU1229
 757:Core/Src/main_unique.c ****     adc_select_channel(0);
 5762              		.loc 1 757 15 is_stmt 0 view .LVU1230
 5763 0002 0020     		movs	r0, #0
 5764 0004 034B     		ldr	r3, .L464
 5765 0006 1870     		strb	r0, [r3]
 758:Core/Src/main_unique.c ****     HAL_ADC_Start_IT(&hadc1);   /* arranca la conversion con interrupcion EOC */
 5766              		.loc 1 758 5 is_stmt 1 view .LVU1231
 5767 0008 FFF7FEFF 		bl	adc_select_channel
 5768              	.LVL417:
ARM GAS  /tmp/ccjBgtoi.s 			page 170


 759:Core/Src/main_unique.c **** }
 5769              		.loc 1 759 5 view .LVU1232
 5770 000c 0248     		ldr	r0, .L464+4
 5771 000e FFF7FEFF 		bl	HAL_ADC_Start_IT
 5772              	.LVL418:
 760:Core/Src/main_unique.c **** 
 5773              		.loc 1 760 1 is_stmt 0 view .LVU1233
 5774 0012 08BD     		pop	{r3, pc}
 5775              	.L465:
 5776              		.align	2
 5777              	.L464:
 5778 0014 00000000 		.word	s_channel
 5779 0018 00000000 		.word	hadc1
 5780              		.cfi_endproc
 5781              	.LFE286:
 5783              		.section	.text.HAL_TIM_PeriodElapsedCallback,"ax",%progbits
 5784              		.align	1
 5785              		.global	HAL_TIM_PeriodElapsedCallback
 5786              		.syntax unified
 5787              		.thumb
 5788              		.thumb_func
 5790              	HAL_TIM_PeriodElapsedCallback:
 5791              	.LVL419:
 5792              	.LFB319:
1410:Core/Src/main_unique.c ****     if (htim->Instance == TIM3) {
 5793              		.loc 1 1410 1 is_stmt 1 view -0
 5794              		.cfi_startproc
 5795              		@ args = 0, pretend = 0, frame = 0
 5796              		@ frame_needed = 0, uses_anonymous_args = 0
1410:Core/Src/main_unique.c ****     if (htim->Instance == TIM3) {
 5797              		.loc 1 1410 1 is_stmt 0 view .LVU1235
 5798 0000 08B5     		push	{r3, lr}
 5799              	.LCFI102:
 5800              		.cfi_def_cfa_offset 8
 5801              		.cfi_offset 3, -8
 5802              		.cfi_offset 14, -4
1411:Core/Src/main_unique.c ****         /* Cada 250 ms: conmuta el LED de PH1 */
 5803              		.loc 1 1411 5 is_stmt 1 view .LVU1236
1411:Core/Src/main_unique.c ****         /* Cada 250 ms: conmuta el LED de PH1 */
 5804              		.loc 1 1411 13 is_stmt 0 view .LVU1237
 5805 0002 0368     		ldr	r3, [r0]
1411:Core/Src/main_unique.c ****         /* Cada 250 ms: conmuta el LED de PH1 */
 5806              		.loc 1 1411 8 view .LVU1238
 5807 0004 074A     		ldr	r2, .L472
 5808 0006 9342     		cmp	r3, r2
 5809 0008 03D0     		beq	.L470
1415:Core/Src/main_unique.c ****         /* Cada 100 ms: lanza la lectura del joystick y avisa a la FSM */
 5810              		.loc 1 1415 10 is_stmt 1 view .LVU1239
1415:Core/Src/main_unique.c ****         /* Cada 100 ms: lanza la lectura del joystick y avisa a la FSM */
 5811              		.loc 1 1415 13 is_stmt 0 view .LVU1240
 5812 000a 074A     		ldr	r2, .L472+4
 5813 000c 9342     		cmp	r3, r2
 5814 000e 03D0     		beq	.L471
 5815              	.LVL420:
 5816              	.L466:
1420:Core/Src/main_unique.c **** 
 5817              		.loc 1 1420 1 view .LVU1241
ARM GAS  /tmp/ccjBgtoi.s 			page 171


 5818 0010 08BD     		pop	{r3, pc}
 5819              	.LVL421:
 5820              	.L470:
1413:Core/Src/main_unique.c ****     }
 5821              		.loc 1 1413 9 is_stmt 1 view .LVU1242
 5822 0012 FFF7FEFF 		bl	gpio_led_toggle
 5823              	.LVL422:
1413:Core/Src/main_unique.c ****     }
 5824              		.loc 1 1413 9 is_stmt 0 view .LVU1243
 5825 0016 FBE7     		b	.L466
 5826              	.LVL423:
 5827              	.L471:
1417:Core/Src/main_unique.c ****         fsm_post_event(EV_TICK_100MS); /* encola el evento periodico             */
 5828              		.loc 1 1417 9 is_stmt 1 view .LVU1244
 5829 0018 FFF7FEFF 		bl	adc_joystick_start
 5830              	.LVL424:
1418:Core/Src/main_unique.c ****     }
 5831              		.loc 1 1418 9 view .LVU1245
 5832 001c 0D20     		movs	r0, #13
 5833 001e FFF7FEFF 		bl	fsm_post_event
 5834              	.LVL425:
1420:Core/Src/main_unique.c **** 
 5835              		.loc 1 1420 1 is_stmt 0 view .LVU1246
 5836 0022 F5E7     		b	.L466
 5837              	.L473:
 5838              		.align	2
 5839              	.L472:
 5840 0024 00040040 		.word	1073742848
 5841 0028 00080040 		.word	1073743872
 5842              		.cfi_endproc
 5843              	.LFE319:
 5845              		.section	.text.HAL_ADC_ConvCpltCallback,"ax",%progbits
 5846              		.align	1
 5847              		.global	HAL_ADC_ConvCpltCallback
 5848              		.syntax unified
 5849              		.thumb
 5850              		.thumb_func
 5852              	HAL_ADC_ConvCpltCallback:
 5853              	.LVL426:
 5854              	.LFB287:
 768:Core/Src/main_unique.c ****     if (hadc->Instance != ADC1) {
 5855              		.loc 1 768 1 is_stmt 1 view -0
 5856              		.cfi_startproc
 5857              		@ args = 0, pretend = 0, frame = 0
 5858              		@ frame_needed = 0, uses_anonymous_args = 0
 769:Core/Src/main_unique.c ****         return;   /* proteccion por si se anadiese otro ADC al proyecto */
 5859              		.loc 1 769 5 view .LVU1248
 769:Core/Src/main_unique.c ****         return;   /* proteccion por si se anadiese otro ADC al proyecto */
 5860              		.loc 1 769 13 is_stmt 0 view .LVU1249
 5861 0000 0268     		ldr	r2, [r0]
 769:Core/Src/main_unique.c ****         return;   /* proteccion por si se anadiese otro ADC al proyecto */
 5862              		.loc 1 769 8 view .LVU1250
 5863 0002 0F4B     		ldr	r3, .L482
 5864 0004 9A42     		cmp	r2, r3
 5865 0006 00D0     		beq	.L481
 5866 0008 7047     		bx	lr
 5867              	.L481:
ARM GAS  /tmp/ccjBgtoi.s 			page 172


 768:Core/Src/main_unique.c ****     if (hadc->Instance != ADC1) {
 5868              		.loc 1 768 1 view .LVU1251
 5869 000a 10B5     		push	{r4, lr}
 5870              	.LCFI103:
 5871              		.cfi_def_cfa_offset 8
 5872              		.cfi_offset 4, -8
 5873              		.cfi_offset 14, -4
 5874 000c 0446     		mov	r4, r0
 773:Core/Src/main_unique.c ****         s_raw_x   = (uint16_t)HAL_ADC_GetValue(hadc); /* lee y limpia EOC */
 5875              		.loc 1 773 5 is_stmt 1 view .LVU1252
 773:Core/Src/main_unique.c ****         s_raw_x   = (uint16_t)HAL_ADC_GetValue(hadc); /* lee y limpia EOC */
 5876              		.loc 1 773 19 is_stmt 0 view .LVU1253
 5877 000e 0D4B     		ldr	r3, .L482+4
 5878 0010 1B78     		ldrb	r3, [r3]	@ zero_extendqisi2
 773:Core/Src/main_unique.c ****         s_raw_x   = (uint16_t)HAL_ADC_GetValue(hadc); /* lee y limpia EOC */
 5879              		.loc 1 773 8 view .LVU1254
 5880 0012 63B9     		cbnz	r3, .L476
 774:Core/Src/main_unique.c ****         s_channel = 1;
 5881              		.loc 1 774 9 is_stmt 1 view .LVU1255
 774:Core/Src/main_unique.c ****         s_channel = 1;
 5882              		.loc 1 774 31 is_stmt 0 view .LVU1256
 5883 0014 FFF7FEFF 		bl	HAL_ADC_GetValue
 5884              	.LVL427:
 774:Core/Src/main_unique.c ****         s_channel = 1;
 5885              		.loc 1 774 19 discriminator 1 view .LVU1257
 5886 0018 0B4B     		ldr	r3, .L482+8
 5887 001a 1880     		strh	r0, [r3]	@ movhi
 775:Core/Src/main_unique.c ****         adc_select_channel(1);        /* conmuta a VRY */
 5888              		.loc 1 775 9 is_stmt 1 view .LVU1258
 775:Core/Src/main_unique.c ****         adc_select_channel(1);        /* conmuta a VRY */
 5889              		.loc 1 775 19 is_stmt 0 view .LVU1259
 5890 001c 0120     		movs	r0, #1
 5891 001e 094B     		ldr	r3, .L482+4
 5892 0020 1870     		strb	r0, [r3]
 776:Core/Src/main_unique.c ****         HAL_ADC_Start_IT(hadc);       /* segunda conversion */
 5893              		.loc 1 776 9 is_stmt 1 view .LVU1260
 5894 0022 FFF7FEFF 		bl	adc_select_channel
 5895              	.LVL428:
 777:Core/Src/main_unique.c ****     } else {
 5896              		.loc 1 777 9 view .LVU1261
 5897 0026 2046     		mov	r0, r4
 5898 0028 FFF7FEFF 		bl	HAL_ADC_Start_IT
 5899              	.LVL429:
 5900              	.L474:
 782:Core/Src/main_unique.c **** 
 5901              		.loc 1 782 1 is_stmt 0 view .LVU1262
 5902 002c 10BD     		pop	{r4, pc}
 5903              	.LVL430:
 5904              	.L476:
 779:Core/Src/main_unique.c ****         s_channel = 0;                /* secuencia completa */
 5905              		.loc 1 779 9 is_stmt 1 view .LVU1263
 779:Core/Src/main_unique.c ****         s_channel = 0;                /* secuencia completa */
 5906              		.loc 1 779 31 is_stmt 0 view .LVU1264
 5907 002e FFF7FEFF 		bl	HAL_ADC_GetValue
 5908              	.LVL431:
 779:Core/Src/main_unique.c ****         s_channel = 0;                /* secuencia completa */
 5909              		.loc 1 779 19 discriminator 1 view .LVU1265
ARM GAS  /tmp/ccjBgtoi.s 			page 173


 5910 0032 064B     		ldr	r3, .L482+12
 5911 0034 1880     		strh	r0, [r3]	@ movhi
 780:Core/Src/main_unique.c ****     }
 5912              		.loc 1 780 9 is_stmt 1 view .LVU1266
 780:Core/Src/main_unique.c ****     }
 5913              		.loc 1 780 19 is_stmt 0 view .LVU1267
 5914 0036 034B     		ldr	r3, .L482+4
 5915 0038 0022     		movs	r2, #0
 5916 003a 1A70     		strb	r2, [r3]
 5917 003c F6E7     		b	.L474
 5918              	.L483:
 5919 003e 00BF     		.align	2
 5920              	.L482:
 5921 0040 00200140 		.word	1073815552
 5922 0044 00000000 		.word	s_channel
 5923 0048 00000000 		.word	s_raw_x
 5924 004c 00000000 		.word	s_raw_y
 5925              		.cfi_endproc
 5926              	.LFE287:
 5928              		.section	.text.adc_joystick_init,"ax",%progbits
 5929              		.align	1
 5930              		.global	adc_joystick_init
 5931              		.syntax unified
 5932              		.thumb
 5933              		.thumb_func
 5935              	adc_joystick_init:
 5936              	.LFB285:
 708:Core/Src/main_unique.c ****     __HAL_RCC_ADC1_CLK_ENABLE();   /* reloj del ADC1 (bus APB2) */
 5937              		.loc 1 708 1 is_stmt 1 view -0
 5938              		.cfi_startproc
 5939              		@ args = 0, pretend = 0, frame = 8
 5940              		@ frame_needed = 0, uses_anonymous_args = 0
 5941 0000 00B5     		push	{lr}
 5942              	.LCFI104:
 5943              		.cfi_def_cfa_offset 4
 5944              		.cfi_offset 14, -4
 5945 0002 83B0     		sub	sp, sp, #12
 5946              	.LCFI105:
 5947              		.cfi_def_cfa_offset 16
 709:Core/Src/main_unique.c **** 
 5948              		.loc 1 709 5 view .LVU1269
 5949              	.LBB19:
 709:Core/Src/main_unique.c **** 
 5950              		.loc 1 709 5 view .LVU1270
 5951 0004 0023     		movs	r3, #0
 5952 0006 0193     		str	r3, [sp, #4]
 709:Core/Src/main_unique.c **** 
 5953              		.loc 1 709 5 view .LVU1271
 5954 0008 174A     		ldr	r2, .L488
 5955 000a 516C     		ldr	r1, [r2, #68]
 5956 000c 41F48071 		orr	r1, r1, #256
 5957 0010 5164     		str	r1, [r2, #68]
 709:Core/Src/main_unique.c **** 
 5958              		.loc 1 709 5 view .LVU1272
 5959 0012 526C     		ldr	r2, [r2, #68]
 5960 0014 02F48072 		and	r2, r2, #256
 5961 0018 0192     		str	r2, [sp, #4]
ARM GAS  /tmp/ccjBgtoi.s 			page 174


 709:Core/Src/main_unique.c **** 
 5962              		.loc 1 709 5 view .LVU1273
 5963 001a 019A     		ldr	r2, [sp, #4]
 5964              	.LBE19:
 709:Core/Src/main_unique.c **** 
 5965              		.loc 1 709 5 view .LVU1274
 711:Core/Src/main_unique.c **** 
 5966              		.loc 1 711 5 view .LVU1275
 711:Core/Src/main_unique.c **** 
 5967              		.loc 1 711 20 is_stmt 0 view .LVU1276
 5968 001c 1348     		ldr	r0, .L488+4
 5969 001e 144A     		ldr	r2, .L488+8
 5970 0020 0260     		str	r2, [r0]
 716:Core/Src/main_unique.c **** 
 5971              		.loc 1 716 5 is_stmt 1 view .LVU1277
 716:Core/Src/main_unique.c **** 
 5972              		.loc 1 716 31 is_stmt 0 view .LVU1278
 5973 0022 4FF48032 		mov	r2, #65536
 5974 0026 4260     		str	r2, [r0, #4]
 718:Core/Src/main_unique.c ****                                         10B, 8B, 6B; menor resolucion implica
 5975              		.loc 1 718 5 is_stmt 1 view .LVU1279
 718:Core/Src/main_unique.c ****                                         10B, 8B, 6B; menor resolucion implica
 5976              		.loc 1 718 27 is_stmt 0 view .LVU1280
 5977 0028 8360     		str	r3, [r0, #8]
 721:Core/Src/main_unique.c ****     hadc1.Init.ContinuousConvMode    = DISABLE;  /* conversion unica bajo demanda */
 5978              		.loc 1 721 5 is_stmt 1 view .LVU1281
 721:Core/Src/main_unique.c ****     hadc1.Init.ContinuousConvMode    = DISABLE;  /* conversion unica bajo demanda */
 5979              		.loc 1 721 38 is_stmt 0 view .LVU1282
 5980 002a 0361     		str	r3, [r0, #16]
 722:Core/Src/main_unique.c ****     hadc1.Init.DiscontinuousConvMode = DISABLE;
 5981              		.loc 1 722 5 is_stmt 1 view .LVU1283
 722:Core/Src/main_unique.c ****     hadc1.Init.DiscontinuousConvMode = DISABLE;
 5982              		.loc 1 722 38 is_stmt 0 view .LVU1284
 5983 002c 0376     		strb	r3, [r0, #24]
 723:Core/Src/main_unique.c ****     hadc1.Init.ExternalTrigConv      = ADC_SOFTWARE_START;
 5984              		.loc 1 723 5 is_stmt 1 view .LVU1285
 723:Core/Src/main_unique.c ****     hadc1.Init.ExternalTrigConv      = ADC_SOFTWARE_START;
 5985              		.loc 1 723 38 is_stmt 0 view .LVU1286
 5986 002e 80F82030 		strb	r3, [r0, #32]
 724:Core/Src/main_unique.c ****                                         /* el disparo lo da el software desde
 5987              		.loc 1 724 5 is_stmt 1 view .LVU1287
 724:Core/Src/main_unique.c ****                                         /* el disparo lo da el software desde
 5988              		.loc 1 724 38 is_stmt 0 view .LVU1288
 5989 0032 104A     		ldr	r2, .L488+12
 5990 0034 8262     		str	r2, [r0, #40]
 728:Core/Src/main_unique.c ****     hadc1.Init.DataAlign             = ADC_DATAALIGN_RIGHT;
 5991              		.loc 1 728 5 is_stmt 1 view .LVU1289
 728:Core/Src/main_unique.c ****     hadc1.Init.DataAlign             = ADC_DATAALIGN_RIGHT;
 5992              		.loc 1 728 38 is_stmt 0 view .LVU1290
 5993 0036 C362     		str	r3, [r0, #44]
 729:Core/Src/main_unique.c ****                                         /* resultado justificado a la derecha:
 5994              		.loc 1 729 5 is_stmt 1 view .LVU1291
 729:Core/Src/main_unique.c ****                                         /* resultado justificado a la derecha:
 5995              		.loc 1 729 38 is_stmt 0 view .LVU1292
 5996 0038 C360     		str	r3, [r0, #12]
 733:Core/Src/main_unique.c ****     hadc1.Init.DMAContinuousRequests = DISABLE;
 5997              		.loc 1 733 5 is_stmt 1 view .LVU1293
ARM GAS  /tmp/ccjBgtoi.s 			page 175


 733:Core/Src/main_unique.c ****     hadc1.Init.DMAContinuousRequests = DISABLE;
 5998              		.loc 1 733 38 is_stmt 0 view .LVU1294
 5999 003a 0122     		movs	r2, #1
 6000 003c C261     		str	r2, [r0, #28]
 734:Core/Src/main_unique.c ****     hadc1.Init.EOCSelection          = ADC_EOC_SINGLE_CONV;
 6001              		.loc 1 734 5 is_stmt 1 view .LVU1295
 734:Core/Src/main_unique.c ****     hadc1.Init.EOCSelection          = ADC_EOC_SINGLE_CONV;
 6002              		.loc 1 734 38 is_stmt 0 view .LVU1296
 6003 003e 80F83030 		strb	r3, [r0, #48]
 735:Core/Src/main_unique.c ****                                         /* la bandera EOC se activa al terminar
 6004              		.loc 1 735 5 is_stmt 1 view .LVU1297
 735:Core/Src/main_unique.c ****                                         /* la bandera EOC se activa al terminar
 6005              		.loc 1 735 38 is_stmt 0 view .LVU1298
 6006 0042 4261     		str	r2, [r0, #20]
 739:Core/Src/main_unique.c ****         Error_Handler();
 6007              		.loc 1 739 5 is_stmt 1 view .LVU1299
 739:Core/Src/main_unique.c ****         Error_Handler();
 6008              		.loc 1 739 9 is_stmt 0 view .LVU1300
 6009 0044 FFF7FEFF 		bl	HAL_ADC_Init
 6010              	.LVL432:
 739:Core/Src/main_unique.c ****         Error_Handler();
 6011              		.loc 1 739 8 discriminator 1 view .LVU1301
 6012 0048 58B9     		cbnz	r0, .L487
 743:Core/Src/main_unique.c **** 
 6013              		.loc 1 743 5 is_stmt 1 view .LVU1302
 6014 004a FFF7FEFF 		bl	adc_select_channel
 6015              	.LVL433:
 746:Core/Src/main_unique.c ****     HAL_NVIC_EnableIRQ(ADC_IRQn);
 6016              		.loc 1 746 5 view .LVU1303
 6017 004e 0022     		movs	r2, #0
 6018 0050 0621     		movs	r1, #6
 6019 0052 1220     		movs	r0, #18
 6020 0054 FFF7FEFF 		bl	HAL_NVIC_SetPriority
 6021              	.LVL434:
 747:Core/Src/main_unique.c **** }
 6022              		.loc 1 747 5 view .LVU1304
 6023 0058 1220     		movs	r0, #18
 6024 005a FFF7FEFF 		bl	HAL_NVIC_EnableIRQ
 6025              	.LVL435:
 748:Core/Src/main_unique.c **** 
 6026              		.loc 1 748 1 is_stmt 0 view .LVU1305
 6027 005e 03B0     		add	sp, sp, #12
 6028              	.LCFI106:
 6029              		.cfi_remember_state
 6030              		.cfi_def_cfa_offset 4
 6031              		@ sp needed
 6032 0060 00BD     		pop	{pc}
 6033              	.L487:
 6034              	.LCFI107:
 6035              		.cfi_restore_state
 740:Core/Src/main_unique.c ****     }
 6036              		.loc 1 740 9 is_stmt 1 view .LVU1306
 6037 0062 FFF7FEFF 		bl	Error_Handler
 6038              	.LVL436:
 6039              	.L489:
 6040 0066 00BF     		.align	2
 6041              	.L488:
ARM GAS  /tmp/ccjBgtoi.s 			page 176


 6042 0068 00380240 		.word	1073887232
 6043 006c 00000000 		.word	hadc1
 6044 0070 00200140 		.word	1073815552
 6045 0074 0100000F 		.word	251658241
 6046              		.cfi_endproc
 6047              	.LFE285:
 6049              		.section	.rodata.rtc_init.str1.4,"aMS",%progbits,1
 6050              		.align	2
 6051              	.LC48:
 6052 0000 41564953 		.ascii	"AVISO: el LSE no arranco. RTC funcionando con LSI.\000"
 6052      4F3A2065 
 6052      6C204C53 
 6052      45206E6F 
 6052      20617272 
 6053 0033 00       		.align	2
 6054              	.LC49:
 6055 0034 20202020 		.ascii	"       Revisar el cristal X2 y los puentes SB48/SB4"
 6055      20202052 
 6055      65766973 
 6055      61722065 
 6055      6C206372 
 6056 0067 392E00   		.ascii	"9.\000"
 6057              		.section	.text.rtc_init,"ax",%progbits
 6058              		.align	1
 6059              		.global	rtc_init
 6060              		.syntax unified
 6061              		.thumb
 6062              		.thumb_func
 6064              	rtc_init:
 6065              	.LFB297:
 866:Core/Src/main_unique.c ****     RTC_TimeTypeDef          time = {0};
 6066              		.loc 1 866 1 view -0
 6067              		.cfi_startproc
 6068              		@ args = 0, pretend = 0, frame = 48
 6069              		@ frame_needed = 0, uses_anonymous_args = 0
 6070 0000 10B5     		push	{r4, lr}
 6071              	.LCFI108:
 6072              		.cfi_def_cfa_offset 8
 6073              		.cfi_offset 4, -8
 6074              		.cfi_offset 14, -4
 6075 0002 8CB0     		sub	sp, sp, #48
 6076              	.LCFI109:
 6077              		.cfi_def_cfa_offset 56
 867:Core/Src/main_unique.c ****     RTC_DateTypeDef          date = {0};
 6078              		.loc 1 867 5 view .LVU1308
 867:Core/Src/main_unique.c ****     RTC_DateTypeDef          date = {0};
 6079              		.loc 1 867 30 is_stmt 0 view .LVU1309
 6080 0004 0023     		movs	r3, #0
 6081 0006 0793     		str	r3, [sp, #28]
 6082 0008 0893     		str	r3, [sp, #32]
 6083 000a 0993     		str	r3, [sp, #36]
 6084 000c 0A93     		str	r3, [sp, #40]
 6085 000e 0B93     		str	r3, [sp, #44]
 868:Core/Src/main_unique.c ****     RCC_PeriphCLKInitTypeDef pclk = {0};
 6086              		.loc 1 868 5 is_stmt 1 view .LVU1310
 868:Core/Src/main_unique.c ****     RCC_PeriphCLKInitTypeDef pclk = {0};
 6087              		.loc 1 868 30 is_stmt 0 view .LVU1311
ARM GAS  /tmp/ccjBgtoi.s 			page 177


 6088 0010 0693     		str	r3, [sp, #24]
 869:Core/Src/main_unique.c ****     uint32_t src_wanted;      /* fuente de reloj elegida para el RTC   */
 6089              		.loc 1 869 5 is_stmt 1 view .LVU1312
 869:Core/Src/main_unique.c ****     uint32_t src_wanted;      /* fuente de reloj elegida para el RTC   */
 6090              		.loc 1 869 30 is_stmt 0 view .LVU1313
 6091 0012 0093     		str	r3, [sp]
 6092 0014 0193     		str	r3, [sp, #4]
 6093 0016 0293     		str	r3, [sp, #8]
 6094 0018 0393     		str	r3, [sp, #12]
 6095 001a 0493     		str	r3, [sp, #16]
 6096 001c 0593     		str	r3, [sp, #20]
 870:Core/Src/main_unique.c ****     uint32_t prediv_a;        /* prescalador asincrono                 */
 6097              		.loc 1 870 5 is_stmt 1 view .LVU1314
 871:Core/Src/main_unique.c ****     uint32_t prediv_s;        /* prescalador sincrono                  */
 6098              		.loc 1 871 5 view .LVU1315
 872:Core/Src/main_unique.c **** 
 6099              		.loc 1 872 5 view .LVU1316
 881:Core/Src/main_unique.c ****         src_wanted = RCC_RTCCLKSOURCE_LSE;
 6100              		.loc 1 881 5 view .LVU1317
 881:Core/Src/main_unique.c ****         src_wanted = RCC_RTCCLKSOURCE_LSE;
 6101              		.loc 1 881 9 is_stmt 0 view .LVU1318
 6102 001e FFF7FEFF 		bl	system_clock_lse_ok
 6103              	.LVL437:
 881:Core/Src/main_unique.c ****         src_wanted = RCC_RTCCLKSOURCE_LSE;
 6104              		.loc 1 881 8 discriminator 1 view .LVU1319
 6105 0022 0028     		cmp	r0, #0
 6106 0024 40F08180 		bne	.L499
 886:Core/Src/main_unique.c ****         while (__HAL_RCC_GET_FLAG(RCC_FLAG_LSIRDY) == RESET) { }
 6107              		.loc 1 886 9 is_stmt 1 view .LVU1320
 6108 0028 474B     		ldr	r3, .L506
 6109 002a 0122     		movs	r2, #1
 6110 002c C3F8802E 		str	r2, [r3, #3712]
 887:Core/Src/main_unique.c **** 
 6111              		.loc 1 887 9 view .LVU1321
 6112              	.L492:
 887:Core/Src/main_unique.c **** 
 6113              		.loc 1 887 64 discriminator 1 view .LVU1322
 887:Core/Src/main_unique.c **** 
 6114              		.loc 1 887 52 discriminator 1 view .LVU1323
 887:Core/Src/main_unique.c **** 
 6115              		.loc 1 887 16 is_stmt 0 discriminator 1 view .LVU1324
 6116 0030 464B     		ldr	r3, .L506+4
 6117 0032 5B6F     		ldr	r3, [r3, #116]
 887:Core/Src/main_unique.c **** 
 6118              		.loc 1 887 52 discriminator 1 view .LVU1325
 6119 0034 13F0020F 		tst	r3, #2
 6120 0038 FAD0     		beq	.L492
 889:Core/Src/main_unique.c ****         prediv_a   = 127U;   /* LSI nominal 32 kHz: 32000 / 128 = 250 Hz */
 6121              		.loc 1 889 9 is_stmt 1 view .LVU1326
 6122              	.LVL438:
 890:Core/Src/main_unique.c ****         prediv_s   = 249U;   /* 250 / 250 = 1 Hz (aproximado)            */
 6123              		.loc 1 890 9 view .LVU1327
 891:Core/Src/main_unique.c **** 
 6124              		.loc 1 891 9 view .LVU1328
 893:Core/Src/main_unique.c ****         uart_send_line("       Revisar el cristal X2 y los puentes SB48/SB49.");
 6125              		.loc 1 893 9 view .LVU1329
 6126 003a 4548     		ldr	r0, .L506+8
ARM GAS  /tmp/ccjBgtoi.s 			page 178


 6127 003c FFF7FEFF 		bl	uart_send_line
 6128              	.LVL439:
 894:Core/Src/main_unique.c ****     }
 6129              		.loc 1 894 9 view .LVU1330
 6130 0040 4448     		ldr	r0, .L506+12
 6131 0042 FFF7FEFF 		bl	uart_send_line
 6132              	.LVL440:
 891:Core/Src/main_unique.c **** 
 6133              		.loc 1 891 20 is_stmt 0 view .LVU1331
 6134 0046 F924     		movs	r4, #249
 889:Core/Src/main_unique.c ****         prediv_a   = 127U;   /* LSI nominal 32 kHz: 32000 / 128 = 250 Hz */
 6135              		.loc 1 889 20 view .LVU1332
 6136 0048 4FF40072 		mov	r2, #512
 6137              	.LVL441:
 6138              	.L491:
 901:Core/Src/main_unique.c ****         pclk.PeriphClockSelection = RCC_PERIPHCLK_RTC;
 6139              		.loc 1 901 5 is_stmt 1 view .LVU1333
 901:Core/Src/main_unique.c ****         pclk.PeriphClockSelection = RCC_PERIPHCLK_RTC;
 6140              		.loc 1 901 9 is_stmt 0 view .LVU1334
 6141 004c 3F4B     		ldr	r3, .L506+4
 6142 004e 1B6F     		ldr	r3, [r3, #112]
 6143 0050 03F44073 		and	r3, r3, #768
 901:Core/Src/main_unique.c ****         pclk.PeriphClockSelection = RCC_PERIPHCLK_RTC;
 6144              		.loc 1 901 8 view .LVU1335
 6145 0054 9342     		cmp	r3, r2
 6146 0056 07D0     		beq	.L493
 902:Core/Src/main_unique.c ****         pclk.RTCClockSelection    = src_wanted;
 6147              		.loc 1 902 9 is_stmt 1 view .LVU1336
 902:Core/Src/main_unique.c ****         pclk.RTCClockSelection    = src_wanted;
 6148              		.loc 1 902 35 is_stmt 0 view .LVU1337
 6149 0058 0223     		movs	r3, #2
 6150 005a 0093     		str	r3, [sp]
 903:Core/Src/main_unique.c ****         if (HAL_RCCEx_PeriphCLKConfig(&pclk) != HAL_OK) {
 6151              		.loc 1 903 9 is_stmt 1 view .LVU1338
 903:Core/Src/main_unique.c ****         if (HAL_RCCEx_PeriphCLKConfig(&pclk) != HAL_OK) {
 6152              		.loc 1 903 35 is_stmt 0 view .LVU1339
 6153 005c 0492     		str	r2, [sp, #16]
 904:Core/Src/main_unique.c ****             Error_Handler();
 6154              		.loc 1 904 9 is_stmt 1 view .LVU1340
 904:Core/Src/main_unique.c ****             Error_Handler();
 6155              		.loc 1 904 13 is_stmt 0 view .LVU1341
 6156 005e 6846     		mov	r0, sp
 6157 0060 FFF7FEFF 		bl	HAL_RCCEx_PeriphCLKConfig
 6158              	.LVL442:
 904:Core/Src/main_unique.c ****             Error_Handler();
 6159              		.loc 1 904 12 discriminator 1 view .LVU1342
 6160 0064 0028     		cmp	r0, #0
 6161 0066 64D1     		bne	.L501
 6162              	.L493:
 909:Core/Src/main_unique.c **** 
 6163              		.loc 1 909 5 is_stmt 1 view .LVU1343
 6164 0068 374B     		ldr	r3, .L506
 6165 006a 0122     		movs	r2, #1
 6166 006c C3F83C2E 		str	r2, [r3, #3644]
 912:Core/Src/main_unique.c ****     hrtc.Init.HourFormat     = RTC_HOURFORMAT_24;  /* alternativa: _12 con AM/PM */
 6167              		.loc 1 912 5 view .LVU1344
 912:Core/Src/main_unique.c ****     hrtc.Init.HourFormat     = RTC_HOURFORMAT_24;  /* alternativa: _12 con AM/PM */
ARM GAS  /tmp/ccjBgtoi.s 			page 179


 6168              		.loc 1 912 30 is_stmt 0 view .LVU1345
 6169 0070 3948     		ldr	r0, .L506+16
 6170 0072 3A4B     		ldr	r3, .L506+20
 6171 0074 0360     		str	r3, [r0]
 913:Core/Src/main_unique.c ****     hrtc.Init.AsynchPrediv   = prediv_a;           /* calculado mas arriba  */
 6172              		.loc 1 913 5 is_stmt 1 view .LVU1346
 913:Core/Src/main_unique.c ****     hrtc.Init.AsynchPrediv   = prediv_a;           /* calculado mas arriba  */
 6173              		.loc 1 913 30 is_stmt 0 view .LVU1347
 6174 0076 0023     		movs	r3, #0
 6175 0078 4360     		str	r3, [r0, #4]
 914:Core/Src/main_unique.c ****     hrtc.Init.SynchPrediv    = prediv_s;           /* segun la fuente activa */
 6176              		.loc 1 914 5 is_stmt 1 view .LVU1348
 914:Core/Src/main_unique.c ****     hrtc.Init.SynchPrediv    = prediv_s;           /* segun la fuente activa */
 6177              		.loc 1 914 30 is_stmt 0 view .LVU1349
 6178 007a 7F22     		movs	r2, #127
 6179 007c 8260     		str	r2, [r0, #8]
 915:Core/Src/main_unique.c ****     hrtc.Init.OutPut         = RTC_OUTPUT_DISABLE; /* sin salida por PC13   */
 6180              		.loc 1 915 5 is_stmt 1 view .LVU1350
 915:Core/Src/main_unique.c ****     hrtc.Init.OutPut         = RTC_OUTPUT_DISABLE; /* sin salida por PC13   */
 6181              		.loc 1 915 30 is_stmt 0 view .LVU1351
 6182 007e C460     		str	r4, [r0, #12]
 916:Core/Src/main_unique.c ****     hrtc.Init.OutPutPolarity = RTC_OUTPUT_POLARITY_HIGH;
 6183              		.loc 1 916 5 is_stmt 1 view .LVU1352
 916:Core/Src/main_unique.c ****     hrtc.Init.OutPutPolarity = RTC_OUTPUT_POLARITY_HIGH;
 6184              		.loc 1 916 30 is_stmt 0 view .LVU1353
 6185 0080 0361     		str	r3, [r0, #16]
 917:Core/Src/main_unique.c ****     hrtc.Init.OutPutType     = RTC_OUTPUT_TYPE_OPENDRAIN;
 6186              		.loc 1 917 5 is_stmt 1 view .LVU1354
 917:Core/Src/main_unique.c ****     hrtc.Init.OutPutType     = RTC_OUTPUT_TYPE_OPENDRAIN;
 6187              		.loc 1 917 30 is_stmt 0 view .LVU1355
 6188 0082 4361     		str	r3, [r0, #20]
 918:Core/Src/main_unique.c **** 
 6189              		.loc 1 918 5 is_stmt 1 view .LVU1356
 918:Core/Src/main_unique.c **** 
 6190              		.loc 1 918 30 is_stmt 0 view .LVU1357
 6191 0084 8361     		str	r3, [r0, #24]
 920:Core/Src/main_unique.c ****         Error_Handler();
 6192              		.loc 1 920 5 is_stmt 1 view .LVU1358
 920:Core/Src/main_unique.c ****         Error_Handler();
 6193              		.loc 1 920 9 is_stmt 0 view .LVU1359
 6194 0086 FFF7FEFF 		bl	HAL_RTC_Init
 6195              	.LVL443:
 920:Core/Src/main_unique.c ****         Error_Handler();
 6196              		.loc 1 920 8 discriminator 1 view .LVU1360
 6197 008a 0028     		cmp	r0, #0
 6198 008c 53D1     		bne	.L502
 925:Core/Src/main_unique.c **** 
 6199              		.loc 1 925 5 is_stmt 1 view .LVU1361
 925:Core/Src/main_unique.c **** 
 6200              		.loc 1 925 9 is_stmt 0 view .LVU1362
 6201 008e 0146     		mov	r1, r0
 6202 0090 3148     		ldr	r0, .L506+16
 6203 0092 FFF7FEFF 		bl	HAL_RTCEx_BKUPRead
 6204              	.LVL444:
 925:Core/Src/main_unique.c **** 
 6205              		.loc 1 925 8 discriminator 1 view .LVU1363
 6206 0096 324B     		ldr	r3, .L506+24
ARM GAS  /tmp/ccjBgtoi.s 			page 180


 6207 0098 9842     		cmp	r0, r3
 6208 009a 32D0     		beq	.L495
 927:Core/Src/main_unique.c ****         time.Minutes = build_field(3);   /* posiciones 3-4             */
 6209              		.loc 1 927 9 is_stmt 1 view .LVU1364
 927:Core/Src/main_unique.c ****         time.Minutes = build_field(3);   /* posiciones 3-4             */
 6210              		.loc 1 927 24 is_stmt 0 view .LVU1365
 6211 009c 0020     		movs	r0, #0
 6212 009e FFF7FEFF 		bl	build_field
 6213              	.LVL445:
 927:Core/Src/main_unique.c ****         time.Minutes = build_field(3);   /* posiciones 3-4             */
 6214              		.loc 1 927 22 discriminator 1 view .LVU1366
 6215 00a2 8DF81C00 		strb	r0, [sp, #28]
 928:Core/Src/main_unique.c ****         time.Seconds = build_field(6);   /* posiciones 6-7             */
 6216              		.loc 1 928 9 is_stmt 1 view .LVU1367
 928:Core/Src/main_unique.c ****         time.Seconds = build_field(6);   /* posiciones 6-7             */
 6217              		.loc 1 928 24 is_stmt 0 view .LVU1368
 6218 00a6 0320     		movs	r0, #3
 6219 00a8 FFF7FEFF 		bl	build_field
 6220              	.LVL446:
 928:Core/Src/main_unique.c ****         time.Seconds = build_field(6);   /* posiciones 6-7             */
 6221              		.loc 1 928 22 discriminator 1 view .LVU1369
 6222 00ac 8DF81D00 		strb	r0, [sp, #29]
 929:Core/Src/main_unique.c ****         time.TimeFormat     = RTC_HOURFORMAT12_AM;  /* ignorado en modo 24 h */
 6223              		.loc 1 929 9 is_stmt 1 view .LVU1370
 929:Core/Src/main_unique.c ****         time.TimeFormat     = RTC_HOURFORMAT12_AM;  /* ignorado en modo 24 h */
 6224              		.loc 1 929 24 is_stmt 0 view .LVU1371
 6225 00b0 0620     		movs	r0, #6
 6226 00b2 FFF7FEFF 		bl	build_field
 6227              	.LVL447:
 929:Core/Src/main_unique.c ****         time.TimeFormat     = RTC_HOURFORMAT12_AM;  /* ignorado en modo 24 h */
 6228              		.loc 1 929 22 discriminator 1 view .LVU1372
 6229 00b6 8DF81E00 		strb	r0, [sp, #30]
 930:Core/Src/main_unique.c ****         time.DayLightSaving = RTC_DAYLIGHTSAVING_NONE;
 6230              		.loc 1 930 9 is_stmt 1 view .LVU1373
 930:Core/Src/main_unique.c ****         time.DayLightSaving = RTC_DAYLIGHTSAVING_NONE;
 6231              		.loc 1 930 29 is_stmt 0 view .LVU1374
 6232 00ba 0022     		movs	r2, #0
 6233 00bc 8DF81F20 		strb	r2, [sp, #31]
 931:Core/Src/main_unique.c ****         time.StoreOperation = RTC_STOREOPERATION_RESET;
 6234              		.loc 1 931 9 is_stmt 1 view .LVU1375
 931:Core/Src/main_unique.c ****         time.StoreOperation = RTC_STOREOPERATION_RESET;
 6235              		.loc 1 931 29 is_stmt 0 view .LVU1376
 6236 00c0 0A92     		str	r2, [sp, #40]
 932:Core/Src/main_unique.c **** 
 6237              		.loc 1 932 9 is_stmt 1 view .LVU1377
 932:Core/Src/main_unique.c **** 
 6238              		.loc 1 932 29 is_stmt 0 view .LVU1378
 6239 00c2 0B92     		str	r2, [sp, #44]
 934:Core/Src/main_unique.c ****             Error_Handler();
 6240              		.loc 1 934 9 is_stmt 1 view .LVU1379
 934:Core/Src/main_unique.c ****             Error_Handler();
 6241              		.loc 1 934 13 is_stmt 0 view .LVU1380
 6242 00c4 07A9     		add	r1, sp, #28
 6243 00c6 2448     		ldr	r0, .L506+16
 6244 00c8 FFF7FEFF 		bl	HAL_RTC_SetTime
 6245              	.LVL448:
 934:Core/Src/main_unique.c ****             Error_Handler();
ARM GAS  /tmp/ccjBgtoi.s 			page 181


 6246              		.loc 1 934 12 discriminator 1 view .LVU1381
 6247 00cc A8BB     		cbnz	r0, .L503
 940:Core/Src/main_unique.c ****         date.Month   = build_month();
 6248              		.loc 1 940 9 is_stmt 1 view .LVU1382
 940:Core/Src/main_unique.c ****         date.Month   = build_month();
 6249              		.loc 1 940 22 is_stmt 0 view .LVU1383
 6250 00ce 0123     		movs	r3, #1
 6251 00d0 8DF81830 		strb	r3, [sp, #24]
 941:Core/Src/main_unique.c ****         date.Date    = build_day();
 6252              		.loc 1 941 9 is_stmt 1 view .LVU1384
 941:Core/Src/main_unique.c ****         date.Date    = build_day();
 6253              		.loc 1 941 24 is_stmt 0 view .LVU1385
 6254 00d4 FFF7FEFF 		bl	build_month
 6255              	.LVL449:
 941:Core/Src/main_unique.c ****         date.Date    = build_day();
 6256              		.loc 1 941 22 discriminator 1 view .LVU1386
 6257 00d8 8DF81900 		strb	r0, [sp, #25]
 942:Core/Src/main_unique.c ****         date.Year    = build_year();
 6258              		.loc 1 942 9 is_stmt 1 view .LVU1387
 942:Core/Src/main_unique.c ****         date.Year    = build_year();
 6259              		.loc 1 942 24 is_stmt 0 view .LVU1388
 6260 00dc FFF7FEFF 		bl	build_day
 6261              	.LVL450:
 942:Core/Src/main_unique.c ****         date.Year    = build_year();
 6262              		.loc 1 942 22 discriminator 1 view .LVU1389
 6263 00e0 8DF81A00 		strb	r0, [sp, #26]
 943:Core/Src/main_unique.c **** 
 6264              		.loc 1 943 9 is_stmt 1 view .LVU1390
 943:Core/Src/main_unique.c **** 
 6265              		.loc 1 943 24 is_stmt 0 view .LVU1391
 6266 00e4 FFF7FEFF 		bl	build_year
 6267              	.LVL451:
 943:Core/Src/main_unique.c **** 
 6268              		.loc 1 943 22 discriminator 1 view .LVU1392
 6269 00e8 8DF81B00 		strb	r0, [sp, #27]
 945:Core/Src/main_unique.c ****             Error_Handler();
 6270              		.loc 1 945 9 is_stmt 1 view .LVU1393
 945:Core/Src/main_unique.c ****             Error_Handler();
 6271              		.loc 1 945 13 is_stmt 0 view .LVU1394
 6272 00ec 0022     		movs	r2, #0
 6273 00ee 06A9     		add	r1, sp, #24
 6274 00f0 1948     		ldr	r0, .L506+16
 6275 00f2 FFF7FEFF 		bl	HAL_RTC_SetDate
 6276              	.LVL452:
 945:Core/Src/main_unique.c ****             Error_Handler();
 6277              		.loc 1 945 12 discriminator 1 view .LVU1395
 6278 00f6 10BB     		cbnz	r0, .L504
 950:Core/Src/main_unique.c ****     }
 6279              		.loc 1 950 9 is_stmt 1 view .LVU1396
 6280 00f8 194A     		ldr	r2, .L506+24
 6281 00fa 0146     		mov	r1, r0
 6282 00fc 1648     		ldr	r0, .L506+16
 6283 00fe FFF7FEFF 		bl	HAL_RTCEx_BKUPWrite
 6284              	.LVL453:
 6285              	.L495:
 956:Core/Src/main_unique.c **** 
 6286              		.loc 1 956 5 view .LVU1397
ARM GAS  /tmp/ccjBgtoi.s 			page 182


 6287 0102 154C     		ldr	r4, .L506+16
 6288              	.LVL454:
 956:Core/Src/main_unique.c **** 
 6289              		.loc 1 956 5 is_stmt 0 view .LVU1398
 6290 0104 2046     		mov	r0, r4
 6291 0106 FFF7FEFF 		bl	HAL_RTCEx_DeactivateWakeUpTimer
 6292              	.LVL455:
 958:Core/Src/main_unique.c ****     HAL_NVIC_EnableIRQ(RTC_WKUP_IRQn);
 6293              		.loc 1 958 5 is_stmt 1 view .LVU1399
 6294 010a 0022     		movs	r2, #0
 6295 010c 0921     		movs	r1, #9
 6296 010e 0320     		movs	r0, #3
 6297 0110 FFF7FEFF 		bl	HAL_NVIC_SetPriority
 6298              	.LVL456:
 959:Core/Src/main_unique.c **** 
 6299              		.loc 1 959 5 view .LVU1400
 6300 0114 0320     		movs	r0, #3
 6301 0116 FFF7FEFF 		bl	HAL_NVIC_EnableIRQ
 6302              	.LVL457:
 964:Core/Src/main_unique.c ****                                     RTC_WAKEUPCLOCK_CK_SPRE_16BITS) != HAL_OK) {
 6303              		.loc 1 964 5 view .LVU1401
 964:Core/Src/main_unique.c ****                                     RTC_WAKEUPCLOCK_CK_SPRE_16BITS) != HAL_OK) {
 6304              		.loc 1 964 9 is_stmt 0 view .LVU1402
 6305 011a 0422     		movs	r2, #4
 6306 011c 0021     		movs	r1, #0
 6307 011e 2046     		mov	r0, r4
 6308 0120 FFF7FEFF 		bl	HAL_RTCEx_SetWakeUpTimer_IT
 6309              	.LVL458:
 964:Core/Src/main_unique.c ****                                     RTC_WAKEUPCLOCK_CK_SPRE_16BITS) != HAL_OK) {
 6310              		.loc 1 964 8 discriminator 1 view .LVU1403
 6311 0124 68B9     		cbnz	r0, .L505
 968:Core/Src/main_unique.c **** 
 6312              		.loc 1 968 1 view .LVU1404
 6313 0126 0CB0     		add	sp, sp, #48
 6314              	.LCFI110:
 6315              		.cfi_remember_state
 6316              		.cfi_def_cfa_offset 8
 6317              		@ sp needed
 6318 0128 10BD     		pop	{r4, pc}
 6319              	.LVL459:
 6320              	.L499:
 6321              	.LCFI111:
 6322              		.cfi_restore_state
 884:Core/Src/main_unique.c ****     } else {
 6323              		.loc 1 884 20 view .LVU1405
 6324 012a FF24     		movs	r4, #255
 882:Core/Src/main_unique.c ****         prediv_a   = 127U;   /* 32768 / 128 = 256 Hz */
 6325              		.loc 1 882 20 view .LVU1406
 6326 012c 4FF48072 		mov	r2, #256
 6327 0130 8CE7     		b	.L491
 6328              	.LVL460:
 6329              	.L501:
 905:Core/Src/main_unique.c ****         }
 6330              		.loc 1 905 13 is_stmt 1 view .LVU1407
 6331 0132 FFF7FEFF 		bl	Error_Handler
 6332              	.LVL461:
 6333              	.L502:
ARM GAS  /tmp/ccjBgtoi.s 			page 183


 921:Core/Src/main_unique.c ****     }
 6334              		.loc 1 921 9 view .LVU1408
 6335 0136 FFF7FEFF 		bl	Error_Handler
 6336              	.LVL462:
 6337              	.L503:
 935:Core/Src/main_unique.c ****         }
 6338              		.loc 1 935 13 view .LVU1409
 6339 013a FFF7FEFF 		bl	Error_Handler
 6340              	.LVL463:
 6341              	.L504:
 946:Core/Src/main_unique.c ****         }
 6342              		.loc 1 946 13 view .LVU1410
 6343 013e FFF7FEFF 		bl	Error_Handler
 6344              	.LVL464:
 6345              	.L505:
 966:Core/Src/main_unique.c ****     }
 6346              		.loc 1 966 9 view .LVU1411
 6347 0142 FFF7FEFF 		bl	Error_Handler
 6348              	.LVL465:
 6349              	.L507:
 6350 0146 00BF     		.align	2
 6351              	.L506:
 6352 0148 00004742 		.word	1111949312
 6353 014c 00380240 		.word	1073887232
 6354 0150 00000000 		.word	.LC48
 6355 0154 34000000 		.word	.LC49
 6356 0158 00000000 		.word	hrtc
 6357 015c 00280040 		.word	1073752064
 6358 0160 C3A5F232 		.word	854762947
 6359              		.cfi_endproc
 6360              	.LFE297:
 6362              		.section	.text.i2c_bus_init,"ax",%progbits
 6363              		.align	1
 6364              		.syntax unified
 6365              		.thumb
 6366              		.thumb_func
 6368              	i2c_bus_init:
 6369              	.LFB308:
1139:Core/Src/main_unique.c ****     __HAL_RCC_I2C1_CLK_ENABLE();
 6370              		.loc 1 1139 1 view -0
 6371              		.cfi_startproc
 6372              		@ args = 0, pretend = 0, frame = 8
 6373              		@ frame_needed = 0, uses_anonymous_args = 0
 6374 0000 00B5     		push	{lr}
 6375              	.LCFI112:
 6376              		.cfi_def_cfa_offset 4
 6377              		.cfi_offset 14, -4
 6378 0002 83B0     		sub	sp, sp, #12
 6379              	.LCFI113:
 6380              		.cfi_def_cfa_offset 16
1140:Core/Src/main_unique.c **** 
 6381              		.loc 1 1140 5 view .LVU1413
 6382              	.LBB20:
1140:Core/Src/main_unique.c **** 
 6383              		.loc 1 1140 5 view .LVU1414
 6384 0004 0023     		movs	r3, #0
 6385 0006 0193     		str	r3, [sp, #4]
ARM GAS  /tmp/ccjBgtoi.s 			page 184


1140:Core/Src/main_unique.c **** 
 6386              		.loc 1 1140 5 view .LVU1415
 6387 0008 0F4A     		ldr	r2, .L512
 6388 000a 116C     		ldr	r1, [r2, #64]
 6389 000c 41F40011 		orr	r1, r1, #2097152
 6390 0010 1164     		str	r1, [r2, #64]
1140:Core/Src/main_unique.c **** 
 6391              		.loc 1 1140 5 view .LVU1416
 6392 0012 126C     		ldr	r2, [r2, #64]
 6393 0014 02F40012 		and	r2, r2, #2097152
 6394 0018 0192     		str	r2, [sp, #4]
1140:Core/Src/main_unique.c **** 
 6395              		.loc 1 1140 5 view .LVU1417
 6396 001a 019A     		ldr	r2, [sp, #4]
 6397              	.LBE20:
1140:Core/Src/main_unique.c **** 
 6398              		.loc 1 1140 5 view .LVU1418
1142:Core/Src/main_unique.c ****     hi2c1.Init.ClockSpeed      = 100000U;  /* 100 kHz, modo estandar */
 6399              		.loc 1 1142 5 view .LVU1419
1142:Core/Src/main_unique.c ****     hi2c1.Init.ClockSpeed      = 100000U;  /* 100 kHz, modo estandar */
 6400              		.loc 1 1142 32 is_stmt 0 view .LVU1420
 6401 001c 0B48     		ldr	r0, .L512+4
 6402 001e 0C4A     		ldr	r2, .L512+8
 6403 0020 0260     		str	r2, [r0]
1143:Core/Src/main_unique.c ****     hi2c1.Init.DutyCycle       = I2C_DUTYCYCLE_2;
 6404              		.loc 1 1143 5 is_stmt 1 view .LVU1421
1143:Core/Src/main_unique.c ****     hi2c1.Init.DutyCycle       = I2C_DUTYCYCLE_2;
 6405              		.loc 1 1143 32 is_stmt 0 view .LVU1422
 6406 0022 0C4A     		ldr	r2, .L512+12
 6407 0024 4260     		str	r2, [r0, #4]
1144:Core/Src/main_unique.c ****     hi2c1.Init.OwnAddress1     = 0U;
 6408              		.loc 1 1144 5 is_stmt 1 view .LVU1423
1144:Core/Src/main_unique.c ****     hi2c1.Init.OwnAddress1     = 0U;
 6409              		.loc 1 1144 32 is_stmt 0 view .LVU1424
 6410 0026 8360     		str	r3, [r0, #8]
1145:Core/Src/main_unique.c ****     hi2c1.Init.AddressingMode  = I2C_ADDRESSINGMODE_7BIT;
 6411              		.loc 1 1145 5 is_stmt 1 view .LVU1425
1145:Core/Src/main_unique.c ****     hi2c1.Init.AddressingMode  = I2C_ADDRESSINGMODE_7BIT;
 6412              		.loc 1 1145 32 is_stmt 0 view .LVU1426
 6413 0028 C360     		str	r3, [r0, #12]
1146:Core/Src/main_unique.c ****     hi2c1.Init.DualAddressMode = I2C_DUALADDRESS_DISABLE;
 6414              		.loc 1 1146 5 is_stmt 1 view .LVU1427
1146:Core/Src/main_unique.c ****     hi2c1.Init.DualAddressMode = I2C_DUALADDRESS_DISABLE;
 6415              		.loc 1 1146 32 is_stmt 0 view .LVU1428
 6416 002a 4FF48042 		mov	r2, #16384
 6417 002e 0261     		str	r2, [r0, #16]
1147:Core/Src/main_unique.c ****     hi2c1.Init.OwnAddress2     = 0U;
 6418              		.loc 1 1147 5 is_stmt 1 view .LVU1429
1147:Core/Src/main_unique.c ****     hi2c1.Init.OwnAddress2     = 0U;
 6419              		.loc 1 1147 32 is_stmt 0 view .LVU1430
 6420 0030 4361     		str	r3, [r0, #20]
1148:Core/Src/main_unique.c ****     hi2c1.Init.GeneralCallMode = I2C_GENERALCALL_DISABLE;
 6421              		.loc 1 1148 5 is_stmt 1 view .LVU1431
1148:Core/Src/main_unique.c ****     hi2c1.Init.GeneralCallMode = I2C_GENERALCALL_DISABLE;
 6422              		.loc 1 1148 32 is_stmt 0 view .LVU1432
 6423 0032 8361     		str	r3, [r0, #24]
1149:Core/Src/main_unique.c ****     hi2c1.Init.NoStretchMode   = I2C_NOSTRETCH_DISABLE;
ARM GAS  /tmp/ccjBgtoi.s 			page 185


 6424              		.loc 1 1149 5 is_stmt 1 view .LVU1433
1149:Core/Src/main_unique.c ****     hi2c1.Init.NoStretchMode   = I2C_NOSTRETCH_DISABLE;
 6425              		.loc 1 1149 32 is_stmt 0 view .LVU1434
 6426 0034 C361     		str	r3, [r0, #28]
1150:Core/Src/main_unique.c **** 
 6427              		.loc 1 1150 5 is_stmt 1 view .LVU1435
1150:Core/Src/main_unique.c **** 
 6428              		.loc 1 1150 32 is_stmt 0 view .LVU1436
 6429 0036 0362     		str	r3, [r0, #32]
1152:Core/Src/main_unique.c ****         Error_Handler();
 6430              		.loc 1 1152 5 is_stmt 1 view .LVU1437
1152:Core/Src/main_unique.c ****         Error_Handler();
 6431              		.loc 1 1152 9 is_stmt 0 view .LVU1438
 6432 0038 FFF7FEFF 		bl	HAL_I2C_Init
 6433              	.LVL466:
1152:Core/Src/main_unique.c ****         Error_Handler();
 6434              		.loc 1 1152 8 discriminator 1 view .LVU1439
 6435 003c 08B9     		cbnz	r0, .L511
1155:Core/Src/main_unique.c **** 
 6436              		.loc 1 1155 1 view .LVU1440
 6437 003e 03B0     		add	sp, sp, #12
 6438              	.LCFI114:
 6439              		.cfi_remember_state
 6440              		.cfi_def_cfa_offset 4
 6441              		@ sp needed
 6442 0040 00BD     		pop	{pc}
 6443              	.L511:
 6444              	.LCFI115:
 6445              		.cfi_restore_state
1153:Core/Src/main_unique.c ****     }
 6446              		.loc 1 1153 9 is_stmt 1 view .LVU1441
 6447 0042 FFF7FEFF 		bl	Error_Handler
 6448              	.LVL467:
 6449              	.L513:
 6450 0046 00BF     		.align	2
 6451              	.L512:
 6452 0048 00380240 		.word	1073887232
 6453 004c 00000000 		.word	hi2c1
 6454 0050 00540040 		.word	1073763328
 6455 0054 A0860100 		.word	100000
 6456              		.cfi_endproc
 6457              	.LFE308:
 6459              		.section	.rodata.lcd_init.str1.4,"aMS",%progbits,1
 6460              		.align	2
 6461              	.LC50:
 6462 0000 4C43443A 		.ascii	"LCD: expansor detectado en 0x%02X\000"
 6462      20657870 
 6462      616E736F 
 6462      72206465 
 6462      74656374 
 6463 0022 0000     		.align	2
 6464              	.LC51:
 6465 0024 4C43443A 		.ascii	"LCD: NO se detecto ningun expansor I2C.\000"
 6465      204E4F20 
 6465      73652064 
 6465      65746563 
 6465      746F206E 
ARM GAS  /tmp/ccjBgtoi.s 			page 186


 6466              		.align	2
 6467              	.LC52:
 6468 004c 4C43443A 		.ascii	"LCD: %lu fallos I2C durante el arranque\000"
 6468      20256C75 
 6468      2066616C 
 6468      6C6F7320 
 6468      49324320 
 6469              		.section	.text.lcd_init,"ax",%progbits
 6470              		.align	1
 6471              		.global	lcd_init
 6472              		.syntax unified
 6473              		.thumb
 6474              		.thumb_func
 6476              	lcd_init:
 6477              	.LFB310:
1195:Core/Src/main_unique.c ****     char    buf[48];
 6478              		.loc 1 1195 1 view -0
 6479              		.cfi_startproc
 6480              		@ args = 0, pretend = 0, frame = 48
 6481              		@ frame_needed = 0, uses_anonymous_args = 0
 6482 0000 10B5     		push	{r4, lr}
 6483              	.LCFI116:
 6484              		.cfi_def_cfa_offset 8
 6485              		.cfi_offset 4, -8
 6486              		.cfi_offset 14, -4
 6487 0002 8CB0     		sub	sp, sp, #48
 6488              	.LCFI117:
 6489              		.cfi_def_cfa_offset 56
1196:Core/Src/main_unique.c ****     uint8_t a;
 6490              		.loc 1 1196 5 view .LVU1443
1197:Core/Src/main_unique.c **** 
 6491              		.loc 1 1197 5 view .LVU1444
1199:Core/Src/main_unique.c ****     i2c_bus_init();
 6492              		.loc 1 1199 5 view .LVU1445
 6493 0004 FFF7FEFF 		bl	dwt_init
 6494              	.LVL468:
1200:Core/Src/main_unique.c **** 
 6495              		.loc 1 1200 5 view .LVU1446
 6496 0008 FFF7FEFF 		bl	i2c_bus_init
 6497              	.LVL469:
1208:Core/Src/main_unique.c **** 
 6498              		.loc 1 1208 5 view .LVU1447
1208:Core/Src/main_unique.c **** 
 6499              		.loc 1 1208 15 is_stmt 0 view .LVU1448
 6500 000c 3D4B     		ldr	r3, .L532
 6501 000e 0022     		movs	r2, #0
 6502 0010 1A70     		strb	r2, [r3]
1210:Core/Src/main_unique.c ****         if (HAL_I2C_IsDeviceReady(&hi2c1, (uint16_t)(a << 1), 2U, 10U) == HAL_OK) {
 6503              		.loc 1 1210 5 is_stmt 1 view .LVU1449
 6504              	.LVL470:
1210:Core/Src/main_unique.c ****         if (HAL_I2C_IsDeviceReady(&hi2c1, (uint16_t)(a << 1), 2U, 10U) == HAL_OK) {
 6505              		.loc 1 1210 12 is_stmt 0 view .LVU1450
 6506 0012 2024     		movs	r4, #32
 6507              	.LVL471:
 6508              	.L515:
1210:Core/Src/main_unique.c ****         if (HAL_I2C_IsDeviceReady(&hi2c1, (uint16_t)(a << 1), 2U, 10U) == HAL_OK) {
 6509              		.loc 1 1210 23 is_stmt 1 discriminator 2 view .LVU1451
ARM GAS  /tmp/ccjBgtoi.s 			page 187


 6510 0014 272C     		cmp	r4, #39
 6511 0016 0ED8     		bhi	.L517
1211:Core/Src/main_unique.c ****             s_addr7 = a; s_present = 1U; break;
 6512              		.loc 1 1211 9 view .LVU1452
1211:Core/Src/main_unique.c ****             s_addr7 = a; s_present = 1U; break;
 6513              		.loc 1 1211 13 is_stmt 0 view .LVU1453
 6514 0018 0A23     		movs	r3, #10
 6515 001a 0222     		movs	r2, #2
 6516 001c 6100     		lsls	r1, r4, #1
 6517 001e 3A48     		ldr	r0, .L532+4
 6518 0020 FFF7FEFF 		bl	HAL_I2C_IsDeviceReady
 6519              	.LVL472:
1211:Core/Src/main_unique.c ****             s_addr7 = a; s_present = 1U; break;
 6520              		.loc 1 1211 12 discriminator 1 view .LVU1454
 6521 0024 10B1     		cbz	r0, .L529
1210:Core/Src/main_unique.c ****         if (HAL_I2C_IsDeviceReady(&hi2c1, (uint16_t)(a << 1), 2U, 10U) == HAL_OK) {
 6522              		.loc 1 1210 34 is_stmt 1 discriminator 1 view .LVU1455
 6523 0026 0134     		adds	r4, r4, #1
 6524              	.LVL473:
1210:Core/Src/main_unique.c ****         if (HAL_I2C_IsDeviceReady(&hi2c1, (uint16_t)(a << 1), 2U, 10U) == HAL_OK) {
 6525              		.loc 1 1210 34 is_stmt 0 discriminator 1 view .LVU1456
 6526 0028 E4B2     		uxtb	r4, r4
 6527              	.LVL474:
1210:Core/Src/main_unique.c ****         if (HAL_I2C_IsDeviceReady(&hi2c1, (uint16_t)(a << 1), 2U, 10U) == HAL_OK) {
 6528              		.loc 1 1210 34 discriminator 1 view .LVU1457
 6529 002a F3E7     		b	.L515
 6530              	.LVL475:
 6531              	.L529:
1212:Core/Src/main_unique.c ****         }
 6532              		.loc 1 1212 13 is_stmt 1 view .LVU1458
1212:Core/Src/main_unique.c ****         }
 6533              		.loc 1 1212 21 is_stmt 0 view .LVU1459
 6534 002c 374B     		ldr	r3, .L532+8
 6535 002e 1C70     		strb	r4, [r3]
1212:Core/Src/main_unique.c ****         }
 6536              		.loc 1 1212 26 is_stmt 1 view .LVU1460
1212:Core/Src/main_unique.c ****         }
 6537              		.loc 1 1212 36 is_stmt 0 view .LVU1461
 6538 0030 344B     		ldr	r3, .L532
 6539 0032 0122     		movs	r2, #1
 6540 0034 1A70     		strb	r2, [r3]
1212:Core/Src/main_unique.c ****         }
 6541              		.loc 1 1212 42 is_stmt 1 view .LVU1462
 6542              	.L517:
1215:Core/Src/main_unique.c ****         for (a = 0x38U; a <= 0x3FU; a++) {
 6543              		.loc 1 1215 5 view .LVU1463
1215:Core/Src/main_unique.c ****         for (a = 0x38U; a <= 0x3FU; a++) {
 6544              		.loc 1 1215 9 is_stmt 0 view .LVU1464
 6545 0036 334B     		ldr	r3, .L532
 6546 0038 1B78     		ldrb	r3, [r3]	@ zero_extendqisi2
1215:Core/Src/main_unique.c ****         for (a = 0x38U; a <= 0x3FU; a++) {
 6547              		.loc 1 1215 8 view .LVU1465
 6548 003a 002B     		cmp	r3, #0
 6549 003c 45D0     		beq	.L527
 6550              	.L520:
1223:Core/Src/main_unique.c ****         snprintf(buf, sizeof(buf), "LCD: expansor detectado en 0x%02X",
 6551              		.loc 1 1223 5 is_stmt 1 view .LVU1466
ARM GAS  /tmp/ccjBgtoi.s 			page 188


1223:Core/Src/main_unique.c ****         snprintf(buf, sizeof(buf), "LCD: expansor detectado en 0x%02X",
 6552              		.loc 1 1223 9 is_stmt 0 view .LVU1467
 6553 003e 314B     		ldr	r3, .L532
 6554 0040 1B78     		ldrb	r3, [r3]	@ zero_extendqisi2
1223:Core/Src/main_unique.c ****         snprintf(buf, sizeof(buf), "LCD: expansor detectado en 0x%02X",
 6555              		.loc 1 1223 8 view .LVU1468
 6556 0042 002B     		cmp	r3, #0
 6557 0044 4FD0     		beq	.L523
1224:Core/Src/main_unique.c ****                  (unsigned)s_addr7);
 6558              		.loc 1 1224 9 is_stmt 1 view .LVU1469
 6559 0046 314B     		ldr	r3, .L532+8
 6560 0048 1B78     		ldrb	r3, [r3]	@ zero_extendqisi2
 6561 004a 314A     		ldr	r2, .L532+12
 6562 004c 3021     		movs	r1, #48
 6563 004e 6846     		mov	r0, sp
 6564 0050 FFF7FEFF 		bl	snprintf
 6565              	.LVL476:
1226:Core/Src/main_unique.c ****     } else {
 6566              		.loc 1 1226 9 view .LVU1470
 6567 0054 6846     		mov	r0, sp
 6568 0056 FFF7FEFF 		bl	uart_send_line
 6569              	.LVL477:
1234:Core/Src/main_unique.c **** 
 6570              		.loc 1 1234 5 view .LVU1471
 6571 005a 3220     		movs	r0, #50
 6572 005c FFF7FEFF 		bl	HAL_Delay
 6573              	.LVL478:
1236:Core/Src/main_unique.c ****     lcd_pulse_nibble(0x30U | s_backlight);  HAL_Delay(1);  /* intento 2         */
 6574              		.loc 1 1236 5 view .LVU1472
 6575 0060 3820     		movs	r0, #56
 6576 0062 FFF7FEFF 		bl	lcd_pulse_nibble
 6577              	.LVL479:
1236:Core/Src/main_unique.c ****     lcd_pulse_nibble(0x30U | s_backlight);  HAL_Delay(1);  /* intento 2         */
 6578              		.loc 1 1236 45 discriminator 1 view .LVU1473
 6579 0066 0520     		movs	r0, #5
 6580 0068 FFF7FEFF 		bl	HAL_Delay
 6581              	.LVL480:
1237:Core/Src/main_unique.c ****     lcd_pulse_nibble(0x30U | s_backlight);  HAL_Delay(1);  /* intento 3         */
 6582              		.loc 1 1237 5 view .LVU1474
 6583 006c 3820     		movs	r0, #56
 6584 006e FFF7FEFF 		bl	lcd_pulse_nibble
 6585              	.LVL481:
1237:Core/Src/main_unique.c ****     lcd_pulse_nibble(0x30U | s_backlight);  HAL_Delay(1);  /* intento 3         */
 6586              		.loc 1 1237 45 discriminator 1 view .LVU1475
 6587 0072 0120     		movs	r0, #1
 6588 0074 FFF7FEFF 		bl	HAL_Delay
 6589              	.LVL482:
1238:Core/Src/main_unique.c ****     lcd_pulse_nibble(0x20U | s_backlight);  HAL_Delay(1);  /* conmuta a 4 bits  */
 6590              		.loc 1 1238 5 view .LVU1476
 6591 0078 3820     		movs	r0, #56
 6592 007a FFF7FEFF 		bl	lcd_pulse_nibble
 6593              	.LVL483:
1238:Core/Src/main_unique.c ****     lcd_pulse_nibble(0x20U | s_backlight);  HAL_Delay(1);  /* conmuta a 4 bits  */
 6594              		.loc 1 1238 45 discriminator 1 view .LVU1477
 6595 007e 0120     		movs	r0, #1
 6596 0080 FFF7FEFF 		bl	HAL_Delay
 6597              	.LVL484:
ARM GAS  /tmp/ccjBgtoi.s 			page 189


1239:Core/Src/main_unique.c **** 
 6598              		.loc 1 1239 5 view .LVU1478
 6599 0084 2820     		movs	r0, #40
 6600 0086 FFF7FEFF 		bl	lcd_pulse_nibble
 6601              	.LVL485:
1239:Core/Src/main_unique.c **** 
 6602              		.loc 1 1239 45 discriminator 1 view .LVU1479
 6603 008a 0120     		movs	r0, #1
 6604 008c FFF7FEFF 		bl	HAL_Delay
 6605              	.LVL486:
1241:Core/Src/main_unique.c ****     lcd_command(0x08U);   /* Display off                                        */
 6606              		.loc 1 1241 5 view .LVU1480
 6607 0090 2820     		movs	r0, #40
 6608 0092 FFF7FEFF 		bl	lcd_command
 6609              	.LVL487:
1242:Core/Src/main_unique.c ****     lcd_command(0x01U);   /* Clear display                                      */
 6610              		.loc 1 1242 5 view .LVU1481
 6611 0096 0820     		movs	r0, #8
 6612 0098 FFF7FEFF 		bl	lcd_command
 6613              	.LVL488:
1243:Core/Src/main_unique.c ****     HAL_Delay(2);         /* el borrado tarda 1.52 ms                           */
 6614              		.loc 1 1243 5 view .LVU1482
 6615 009c 0120     		movs	r0, #1
 6616 009e FFF7FEFF 		bl	lcd_command
 6617              	.LVL489:
1244:Core/Src/main_unique.c ****     lcd_command(0x06U);   /* Entry mode: incrementa el cursor, sin desplazar    */
 6618              		.loc 1 1244 5 view .LVU1483
 6619 00a2 0220     		movs	r0, #2
 6620 00a4 FFF7FEFF 		bl	HAL_Delay
 6621              	.LVL490:
1245:Core/Src/main_unique.c ****     lcd_command(0x0CU);   /* Display on, cursor oculto, sin parpadeo.
 6622              		.loc 1 1245 5 view .LVU1484
 6623 00a8 0620     		movs	r0, #6
 6624 00aa FFF7FEFF 		bl	lcd_command
 6625              	.LVL491:
1246:Core/Src/main_unique.c ****                              Alternativas: 0x0E muestra el cursor, 0x0F lo hace
 6626              		.loc 1 1246 5 view .LVU1485
 6627 00ae 0C20     		movs	r0, #12
 6628 00b0 FFF7FEFF 		bl	lcd_command
 6629              	.LVL492:
1250:Core/Src/main_unique.c ****         snprintf(buf, sizeof(buf), "LCD: %lu fallos I2C durante el arranque",
 6630              		.loc 1 1250 5 view .LVU1486
1250:Core/Src/main_unique.c ****         snprintf(buf, sizeof(buf), "LCD: %lu fallos I2C durante el arranque",
 6631              		.loc 1 1250 18 is_stmt 0 view .LVU1487
 6632 00b4 174B     		ldr	r3, .L532+16
 6633 00b6 1B68     		ldr	r3, [r3]
1250:Core/Src/main_unique.c ****         snprintf(buf, sizeof(buf), "LCD: %lu fallos I2C durante el arranque",
 6634              		.loc 1 1250 8 view .LVU1488
 6635 00b8 DBB9     		cbnz	r3, .L530
 6636              	.L514:
1255:Core/Src/main_unique.c **** 
 6637              		.loc 1 1255 1 view .LVU1489
 6638 00ba 0CB0     		add	sp, sp, #48
 6639              	.LCFI118:
 6640              		.cfi_remember_state
 6641              		.cfi_def_cfa_offset 8
 6642              		@ sp needed
ARM GAS  /tmp/ccjBgtoi.s 			page 190


 6643 00bc 10BD     		pop	{r4, pc}
 6644              	.LVL493:
 6645              	.L531:
 6646              	.LCFI119:
 6647              		.cfi_restore_state
1218:Core/Src/main_unique.c ****             }
 6648              		.loc 1 1218 17 is_stmt 1 view .LVU1490
1218:Core/Src/main_unique.c ****             }
 6649              		.loc 1 1218 25 is_stmt 0 view .LVU1491
 6650 00be 134B     		ldr	r3, .L532+8
 6651 00c0 1C70     		strb	r4, [r3]
1218:Core/Src/main_unique.c ****             }
 6652              		.loc 1 1218 30 is_stmt 1 view .LVU1492
1218:Core/Src/main_unique.c ****             }
 6653              		.loc 1 1218 40 is_stmt 0 view .LVU1493
 6654 00c2 104B     		ldr	r3, .L532
 6655 00c4 0122     		movs	r2, #1
 6656 00c6 1A70     		strb	r2, [r3]
1218:Core/Src/main_unique.c ****             }
 6657              		.loc 1 1218 46 is_stmt 1 view .LVU1494
 6658 00c8 B9E7     		b	.L520
 6659              	.L527:
1216:Core/Src/main_unique.c ****             if (HAL_I2C_IsDeviceReady(&hi2c1, (uint16_t)(a << 1), 2U, 10U) == HAL_OK) {
 6660              		.loc 1 1216 16 is_stmt 0 view .LVU1495
 6661 00ca 3824     		movs	r4, #56
 6662              	.LVL494:
 6663              	.L519:
1216:Core/Src/main_unique.c ****             if (HAL_I2C_IsDeviceReady(&hi2c1, (uint16_t)(a << 1), 2U, 10U) == HAL_OK) {
 6664              		.loc 1 1216 27 is_stmt 1 discriminator 2 view .LVU1496
 6665 00cc 3F2C     		cmp	r4, #63
 6666 00ce B6D8     		bhi	.L520
1217:Core/Src/main_unique.c ****                 s_addr7 = a; s_present = 1U; break;
 6667              		.loc 1 1217 13 view .LVU1497
1217:Core/Src/main_unique.c ****                 s_addr7 = a; s_present = 1U; break;
 6668              		.loc 1 1217 17 is_stmt 0 view .LVU1498
 6669 00d0 0A23     		movs	r3, #10
 6670 00d2 0222     		movs	r2, #2
 6671 00d4 6100     		lsls	r1, r4, #1
 6672 00d6 0C48     		ldr	r0, .L532+4
 6673 00d8 FFF7FEFF 		bl	HAL_I2C_IsDeviceReady
 6674              	.LVL495:
1217:Core/Src/main_unique.c ****                 s_addr7 = a; s_present = 1U; break;
 6675              		.loc 1 1217 16 discriminator 1 view .LVU1499
 6676 00dc 0028     		cmp	r0, #0
 6677 00de EED0     		beq	.L531
1216:Core/Src/main_unique.c ****             if (HAL_I2C_IsDeviceReady(&hi2c1, (uint16_t)(a << 1), 2U, 10U) == HAL_OK) {
 6678              		.loc 1 1216 38 is_stmt 1 discriminator 1 view .LVU1500
 6679 00e0 0134     		adds	r4, r4, #1
 6680              	.LVL496:
1216:Core/Src/main_unique.c ****             if (HAL_I2C_IsDeviceReady(&hi2c1, (uint16_t)(a << 1), 2U, 10U) == HAL_OK) {
 6681              		.loc 1 1216 38 is_stmt 0 discriminator 1 view .LVU1501
 6682 00e2 E4B2     		uxtb	r4, r4
 6683              	.LVL497:
1216:Core/Src/main_unique.c ****             if (HAL_I2C_IsDeviceReady(&hi2c1, (uint16_t)(a << 1), 2U, 10U) == HAL_OK) {
 6684              		.loc 1 1216 38 discriminator 1 view .LVU1502
 6685 00e4 F2E7     		b	.L519
 6686              	.L523:
ARM GAS  /tmp/ccjBgtoi.s 			page 191


1228:Core/Src/main_unique.c ****         lcd_bus_scan_report();
 6687              		.loc 1 1228 9 is_stmt 1 view .LVU1503
 6688 00e6 0C48     		ldr	r0, .L532+20
 6689 00e8 FFF7FEFF 		bl	uart_send_line
 6690              	.LVL498:
1229:Core/Src/main_unique.c ****         return;   /* sin dispositivo no tiene sentido enviar la secuencia */
 6691              		.loc 1 1229 9 view .LVU1504
 6692 00ec FFF7FEFF 		bl	lcd_bus_scan_report
 6693              	.LVL499:
1230:Core/Src/main_unique.c ****     }
 6694              		.loc 1 1230 9 view .LVU1505
 6695 00f0 E3E7     		b	.L514
 6696              	.L530:
1251:Core/Src/main_unique.c ****                  (unsigned long)s_errors);
 6697              		.loc 1 1251 9 view .LVU1506
 6698 00f2 0A4A     		ldr	r2, .L532+24
 6699 00f4 3021     		movs	r1, #48
 6700 00f6 6846     		mov	r0, sp
 6701 00f8 FFF7FEFF 		bl	snprintf
 6702              	.LVL500:
1253:Core/Src/main_unique.c ****     }
 6703              		.loc 1 1253 9 view .LVU1507
 6704 00fc 6846     		mov	r0, sp
 6705 00fe FFF7FEFF 		bl	uart_send_line
 6706              	.LVL501:
 6707 0102 DAE7     		b	.L514
 6708              	.L533:
 6709              		.align	2
 6710              	.L532:
 6711 0104 00000000 		.word	s_present
 6712 0108 00000000 		.word	hi2c1
 6713 010c 00000000 		.word	s_addr7
 6714 0110 00000000 		.word	.LC50
 6715 0114 00000000 		.word	s_errors
 6716 0118 24000000 		.word	.LC51
 6717 011c 4C000000 		.word	.LC52
 6718              		.cfi_endproc
 6719              	.LFE310:
 6721              		.section	.text.timer_init,"ax",%progbits
 6722              		.align	1
 6723              		.global	timer_init
 6724              		.syntax unified
 6725              		.thumb
 6726              		.thumb_func
 6728              	timer_init:
 6729              	.LFB318:
1328:Core/Src/main_unique.c ****     TIM_ClockConfigTypeDef  src = {0};  /* fuente de reloj del contador   */
 6730              		.loc 1 1328 1 view -0
 6731              		.cfi_startproc
 6732              		@ args = 0, pretend = 0, frame = 32
 6733              		@ frame_needed = 0, uses_anonymous_args = 0
 6734 0000 00B5     		push	{lr}
 6735              	.LCFI120:
 6736              		.cfi_def_cfa_offset 4
 6737              		.cfi_offset 14, -4
 6738 0002 89B0     		sub	sp, sp, #36
 6739              	.LCFI121:
ARM GAS  /tmp/ccjBgtoi.s 			page 192


 6740              		.cfi_def_cfa_offset 40
1329:Core/Src/main_unique.c ****     TIM_MasterConfigTypeDef mst = {0};  /* configuracion maestro/esclavo  */
 6741              		.loc 1 1329 5 view .LVU1509
1329:Core/Src/main_unique.c ****     TIM_MasterConfigTypeDef mst = {0};  /* configuracion maestro/esclavo  */
 6742              		.loc 1 1329 29 is_stmt 0 view .LVU1510
 6743 0004 0023     		movs	r3, #0
 6744 0006 0493     		str	r3, [sp, #16]
 6745 0008 0593     		str	r3, [sp, #20]
 6746 000a 0693     		str	r3, [sp, #24]
 6747 000c 0793     		str	r3, [sp, #28]
1330:Core/Src/main_unique.c **** 
 6748              		.loc 1 1330 5 is_stmt 1 view .LVU1511
1330:Core/Src/main_unique.c **** 
 6749              		.loc 1 1330 29 is_stmt 0 view .LVU1512
 6750 000e 0293     		str	r3, [sp, #8]
 6751 0010 0393     		str	r3, [sp, #12]
1333:Core/Src/main_unique.c **** 
 6752              		.loc 1 1333 5 is_stmt 1 view .LVU1513
 6753              	.LBB21:
1333:Core/Src/main_unique.c **** 
 6754              		.loc 1 1333 5 view .LVU1514
 6755 0012 0093     		str	r3, [sp]
1333:Core/Src/main_unique.c **** 
 6756              		.loc 1 1333 5 view .LVU1515
 6757 0014 3B4A     		ldr	r2, .L548
 6758 0016 116C     		ldr	r1, [r2, #64]
 6759 0018 41F00201 		orr	r1, r1, #2
 6760 001c 1164     		str	r1, [r2, #64]
1333:Core/Src/main_unique.c **** 
 6761              		.loc 1 1333 5 view .LVU1516
 6762 001e 126C     		ldr	r2, [r2, #64]
 6763 0020 02F00202 		and	r2, r2, #2
 6764 0024 0092     		str	r2, [sp]
1333:Core/Src/main_unique.c **** 
 6765              		.loc 1 1333 5 view .LVU1517
 6766 0026 009A     		ldr	r2, [sp]
 6767              	.LBE21:
1333:Core/Src/main_unique.c **** 
 6768              		.loc 1 1333 5 view .LVU1518
1335:Core/Src/main_unique.c ****     htim3.Init.Prescaler     = 10000U - 1U;  /* divide 100 MHz hasta 10 kHz */
 6769              		.loc 1 1335 5 view .LVU1519
1335:Core/Src/main_unique.c ****     htim3.Init.Prescaler     = 10000U - 1U;  /* divide 100 MHz hasta 10 kHz */
 6770              		.loc 1 1335 30 is_stmt 0 view .LVU1520
 6771 0028 3748     		ldr	r0, .L548+4
 6772 002a 384A     		ldr	r2, .L548+8
 6773 002c 0260     		str	r2, [r0]
1336:Core/Src/main_unique.c ****     htim3.Init.CounterMode   = TIM_COUNTERMODE_UP;  /* cuenta 0 -> ARR.
 6774              		.loc 1 1336 5 is_stmt 1 view .LVU1521
1336:Core/Src/main_unique.c ****     htim3.Init.CounterMode   = TIM_COUNTERMODE_UP;  /* cuenta 0 -> ARR.
 6775              		.loc 1 1336 30 is_stmt 0 view .LVU1522
 6776 002e 42F20F72 		movw	r2, #9999
 6777 0032 4260     		str	r2, [r0, #4]
1337:Core/Src/main_unique.c ****                                         Alternativas: DOWN, CENTERALIGNED1/2/3 */
 6778              		.loc 1 1337 5 is_stmt 1 view .LVU1523
1337:Core/Src/main_unique.c ****                                         Alternativas: DOWN, CENTERALIGNED1/2/3 */
 6779              		.loc 1 1337 30 is_stmt 0 view .LVU1524
 6780 0034 8360     		str	r3, [r0, #8]
ARM GAS  /tmp/ccjBgtoi.s 			page 193


1339:Core/Src/main_unique.c ****     htim3.Init.ClockDivision = TIM_CLOCKDIVISION_DIV1;  /* divisor del filtro
 6781              		.loc 1 1339 5 is_stmt 1 view .LVU1525
1339:Core/Src/main_unique.c ****     htim3.Init.ClockDivision = TIM_CLOCKDIVISION_DIV1;  /* divisor del filtro
 6782              		.loc 1 1339 30 is_stmt 0 view .LVU1526
 6783 0036 40F6C312 		movw	r2, #2499
 6784 003a C260     		str	r2, [r0, #12]
1340:Core/Src/main_unique.c ****                                         digital de las entradas, no del contador */
 6785              		.loc 1 1340 5 is_stmt 1 view .LVU1527
1340:Core/Src/main_unique.c ****                                         digital de las entradas, no del contador */
 6786              		.loc 1 1340 30 is_stmt 0 view .LVU1528
 6787 003c 0361     		str	r3, [r0, #16]
1342:Core/Src/main_unique.c ****                                         /* ARR se escribe de inmediato; con
 6788              		.loc 1 1342 5 is_stmt 1 view .LVU1529
1342:Core/Src/main_unique.c ****                                         /* ARR se escribe de inmediato; con
 6789              		.loc 1 1342 34 is_stmt 0 view .LVU1530
 6790 003e 8361     		str	r3, [r0, #24]
1347:Core/Src/main_unique.c ****         Error_Handler();
 6791              		.loc 1 1347 5 is_stmt 1 view .LVU1531
1347:Core/Src/main_unique.c ****         Error_Handler();
 6792              		.loc 1 1347 9 is_stmt 0 view .LVU1532
 6793 0040 FFF7FEFF 		bl	HAL_TIM_Base_Init
 6794              	.LVL502:
1347:Core/Src/main_unique.c ****         Error_Handler();
 6795              		.loc 1 1347 8 discriminator 1 view .LVU1533
 6796 0044 0028     		cmp	r0, #0
 6797 0046 50D1     		bne	.L542
1353:Core/Src/main_unique.c ****     if (HAL_TIM_ConfigClockSource(&htim3, &src) != HAL_OK) {
 6798              		.loc 1 1353 5 is_stmt 1 view .LVU1534
1353:Core/Src/main_unique.c ****     if (HAL_TIM_ConfigClockSource(&htim3, &src) != HAL_OK) {
 6799              		.loc 1 1353 21 is_stmt 0 view .LVU1535
 6800 0048 4FF48053 		mov	r3, #4096
 6801 004c 0493     		str	r3, [sp, #16]
1354:Core/Src/main_unique.c ****         Error_Handler();
 6802              		.loc 1 1354 5 is_stmt 1 view .LVU1536
1354:Core/Src/main_unique.c ****         Error_Handler();
 6803              		.loc 1 1354 9 is_stmt 0 view .LVU1537
 6804 004e 04A9     		add	r1, sp, #16
 6805 0050 2D48     		ldr	r0, .L548+4
 6806 0052 FFF7FEFF 		bl	HAL_TIM_ConfigClockSource
 6807              	.LVL503:
1354:Core/Src/main_unique.c ****         Error_Handler();
 6808              		.loc 1 1354 8 discriminator 1 view .LVU1538
 6809 0056 0028     		cmp	r0, #0
 6810 0058 49D1     		bne	.L543
1359:Core/Src/main_unique.c ****     mst.MasterSlaveMode     = TIM_MASTERSLAVEMODE_DISABLE;
 6811              		.loc 1 1359 5 is_stmt 1 view .LVU1539
1359:Core/Src/main_unique.c ****     mst.MasterSlaveMode     = TIM_MASTERSLAVEMODE_DISABLE;
 6812              		.loc 1 1359 29 is_stmt 0 view .LVU1540
 6813 005a 0290     		str	r0, [sp, #8]
1360:Core/Src/main_unique.c ****     if (HAL_TIMEx_MasterConfigSynchronization(&htim3, &mst) != HAL_OK) {
 6814              		.loc 1 1360 5 is_stmt 1 view .LVU1541
1360:Core/Src/main_unique.c ****     if (HAL_TIMEx_MasterConfigSynchronization(&htim3, &mst) != HAL_OK) {
 6815              		.loc 1 1360 29 is_stmt 0 view .LVU1542
 6816 005c 0390     		str	r0, [sp, #12]
1361:Core/Src/main_unique.c ****         Error_Handler();
 6817              		.loc 1 1361 5 is_stmt 1 view .LVU1543
1361:Core/Src/main_unique.c ****         Error_Handler();
ARM GAS  /tmp/ccjBgtoi.s 			page 194


 6818              		.loc 1 1361 9 is_stmt 0 view .LVU1544
 6819 005e 02A9     		add	r1, sp, #8
 6820 0060 2948     		ldr	r0, .L548+4
 6821 0062 FFF7FEFF 		bl	HAL_TIMEx_MasterConfigSynchronization
 6822              	.LVL504:
1361:Core/Src/main_unique.c ****         Error_Handler();
 6823              		.loc 1 1361 8 discriminator 1 view .LVU1545
 6824 0066 0028     		cmp	r0, #0
 6825 0068 43D1     		bne	.L544
1366:Core/Src/main_unique.c **** 
 6826              		.loc 1 1366 5 is_stmt 1 view .LVU1546
 6827              	.LBB22:
1366:Core/Src/main_unique.c **** 
 6828              		.loc 1 1366 5 view .LVU1547
 6829 006a 0346     		mov	r3, r0
 6830 006c 0190     		str	r0, [sp, #4]
1366:Core/Src/main_unique.c **** 
 6831              		.loc 1 1366 5 view .LVU1548
 6832 006e 254A     		ldr	r2, .L548
 6833 0070 116C     		ldr	r1, [r2, #64]
 6834 0072 41F00401 		orr	r1, r1, #4
 6835 0076 1164     		str	r1, [r2, #64]
1366:Core/Src/main_unique.c **** 
 6836              		.loc 1 1366 5 view .LVU1549
 6837 0078 126C     		ldr	r2, [r2, #64]
 6838 007a 02F00402 		and	r2, r2, #4
 6839 007e 0192     		str	r2, [sp, #4]
1366:Core/Src/main_unique.c **** 
 6840              		.loc 1 1366 5 view .LVU1550
 6841 0080 019A     		ldr	r2, [sp, #4]
 6842              	.LBE22:
1366:Core/Src/main_unique.c **** 
 6843              		.loc 1 1366 5 view .LVU1551
1368:Core/Src/main_unique.c ****     htim4.Init.Prescaler         = 10000U - 1U;   /* 10 kHz            */
 6844              		.loc 1 1368 5 view .LVU1552
1368:Core/Src/main_unique.c ****     htim4.Init.Prescaler         = 10000U - 1U;   /* 10 kHz            */
 6845              		.loc 1 1368 34 is_stmt 0 view .LVU1553
 6846 0082 2348     		ldr	r0, .L548+12
 6847 0084 234A     		ldr	r2, .L548+16
 6848 0086 0260     		str	r2, [r0]
1369:Core/Src/main_unique.c ****     htim4.Init.CounterMode       = TIM_COUNTERMODE_UP;
 6849              		.loc 1 1369 5 is_stmt 1 view .LVU1554
1369:Core/Src/main_unique.c ****     htim4.Init.CounterMode       = TIM_COUNTERMODE_UP;
 6850              		.loc 1 1369 34 is_stmt 0 view .LVU1555
 6851 0088 42F20F72 		movw	r2, #9999
 6852 008c 4260     		str	r2, [r0, #4]
1370:Core/Src/main_unique.c ****     htim4.Init.Period            = 1000U - 1U;    /* 1000 * 100 us = 100 ms */
 6853              		.loc 1 1370 5 is_stmt 1 view .LVU1556
1370:Core/Src/main_unique.c ****     htim4.Init.Period            = 1000U - 1U;    /* 1000 * 100 us = 100 ms */
 6854              		.loc 1 1370 34 is_stmt 0 view .LVU1557
 6855 008e 8360     		str	r3, [r0, #8]
1371:Core/Src/main_unique.c ****     htim4.Init.ClockDivision     = TIM_CLOCKDIVISION_DIV1;
 6856              		.loc 1 1371 5 is_stmt 1 view .LVU1558
1371:Core/Src/main_unique.c ****     htim4.Init.ClockDivision     = TIM_CLOCKDIVISION_DIV1;
 6857              		.loc 1 1371 34 is_stmt 0 view .LVU1559
 6858 0090 40F2E732 		movw	r2, #999
 6859 0094 C260     		str	r2, [r0, #12]
ARM GAS  /tmp/ccjBgtoi.s 			page 195


1372:Core/Src/main_unique.c ****     htim4.Init.AutoReloadPreload = TIM_AUTORELOAD_PRELOAD_DISABLE;
 6860              		.loc 1 1372 5 is_stmt 1 view .LVU1560
1372:Core/Src/main_unique.c ****     htim4.Init.AutoReloadPreload = TIM_AUTORELOAD_PRELOAD_DISABLE;
 6861              		.loc 1 1372 34 is_stmt 0 view .LVU1561
 6862 0096 0361     		str	r3, [r0, #16]
1373:Core/Src/main_unique.c **** 
 6863              		.loc 1 1373 5 is_stmt 1 view .LVU1562
1373:Core/Src/main_unique.c **** 
 6864              		.loc 1 1373 34 is_stmt 0 view .LVU1563
 6865 0098 8361     		str	r3, [r0, #24]
1375:Core/Src/main_unique.c ****         Error_Handler();
 6866              		.loc 1 1375 5 is_stmt 1 view .LVU1564
1375:Core/Src/main_unique.c ****         Error_Handler();
 6867              		.loc 1 1375 9 is_stmt 0 view .LVU1565
 6868 009a FFF7FEFF 		bl	HAL_TIM_Base_Init
 6869              	.LVL505:
1375:Core/Src/main_unique.c ****         Error_Handler();
 6870              		.loc 1 1375 8 discriminator 1 view .LVU1566
 6871 009e 50BB     		cbnz	r0, .L545
1378:Core/Src/main_unique.c ****     if (HAL_TIM_ConfigClockSource(&htim4, &src) != HAL_OK) {
 6872              		.loc 1 1378 5 is_stmt 1 view .LVU1567
1378:Core/Src/main_unique.c ****     if (HAL_TIM_ConfigClockSource(&htim4, &src) != HAL_OK) {
 6873              		.loc 1 1378 21 is_stmt 0 view .LVU1568
 6874 00a0 4FF48053 		mov	r3, #4096
 6875 00a4 0493     		str	r3, [sp, #16]
1379:Core/Src/main_unique.c ****         Error_Handler();
 6876              		.loc 1 1379 5 is_stmt 1 view .LVU1569
1379:Core/Src/main_unique.c ****         Error_Handler();
 6877              		.loc 1 1379 9 is_stmt 0 view .LVU1570
 6878 00a6 04A9     		add	r1, sp, #16
 6879 00a8 1948     		ldr	r0, .L548+12
 6880 00aa FFF7FEFF 		bl	HAL_TIM_ConfigClockSource
 6881              	.LVL506:
1379:Core/Src/main_unique.c ****         Error_Handler();
 6882              		.loc 1 1379 8 discriminator 1 view .LVU1571
 6883 00ae 20BB     		cbnz	r0, .L546
1382:Core/Src/main_unique.c ****         Error_Handler();
 6884              		.loc 1 1382 5 is_stmt 1 view .LVU1572
1382:Core/Src/main_unique.c ****         Error_Handler();
 6885              		.loc 1 1382 9 is_stmt 0 view .LVU1573
 6886 00b0 02A9     		add	r1, sp, #8
 6887 00b2 1748     		ldr	r0, .L548+12
 6888 00b4 FFF7FEFF 		bl	HAL_TIMEx_MasterConfigSynchronization
 6889              	.LVL507:
1382:Core/Src/main_unique.c ****         Error_Handler();
 6890              		.loc 1 1382 8 discriminator 1 view .LVU1574
 6891 00b8 08BB     		cbnz	r0, .L547
1388:Core/Src/main_unique.c ****     HAL_NVIC_EnableIRQ(TIM3_IRQn);
 6892              		.loc 1 1388 5 is_stmt 1 view .LVU1575
 6893 00ba 0246     		mov	r2, r0
 6894 00bc 0721     		movs	r1, #7
 6895 00be 1D20     		movs	r0, #29
 6896 00c0 FFF7FEFF 		bl	HAL_NVIC_SetPriority
 6897              	.LVL508:
1389:Core/Src/main_unique.c ****     HAL_NVIC_SetPriority(TIM4_IRQn, 7, 0);
 6898              		.loc 1 1389 5 view .LVU1576
 6899 00c4 1D20     		movs	r0, #29
ARM GAS  /tmp/ccjBgtoi.s 			page 196


 6900 00c6 FFF7FEFF 		bl	HAL_NVIC_EnableIRQ
 6901              	.LVL509:
1390:Core/Src/main_unique.c ****     HAL_NVIC_EnableIRQ(TIM4_IRQn);
 6902              		.loc 1 1390 5 view .LVU1577
 6903 00ca 0022     		movs	r2, #0
 6904 00cc 0721     		movs	r1, #7
 6905 00ce 1E20     		movs	r0, #30
 6906 00d0 FFF7FEFF 		bl	HAL_NVIC_SetPriority
 6907              	.LVL510:
1391:Core/Src/main_unique.c **** 
 6908              		.loc 1 1391 5 view .LVU1578
 6909 00d4 1E20     		movs	r0, #30
 6910 00d6 FFF7FEFF 		bl	HAL_NVIC_EnableIRQ
 6911              	.LVL511:
1396:Core/Src/main_unique.c ****     HAL_TIM_Base_Start_IT(&htim4);
 6912              		.loc 1 1396 5 view .LVU1579
 6913 00da 0B48     		ldr	r0, .L548+4
 6914 00dc FFF7FEFF 		bl	HAL_TIM_Base_Start_IT
 6915              	.LVL512:
1397:Core/Src/main_unique.c **** }
 6916              		.loc 1 1397 5 view .LVU1580
 6917 00e0 0B48     		ldr	r0, .L548+12
 6918 00e2 FFF7FEFF 		bl	HAL_TIM_Base_Start_IT
 6919              	.LVL513:
1398:Core/Src/main_unique.c **** 
 6920              		.loc 1 1398 1 is_stmt 0 view .LVU1581
 6921 00e6 09B0     		add	sp, sp, #36
 6922              	.LCFI122:
 6923              		.cfi_remember_state
 6924              		.cfi_def_cfa_offset 4
 6925              		@ sp needed
 6926 00e8 00BD     		pop	{pc}
 6927              	.L542:
 6928              	.LCFI123:
 6929              		.cfi_restore_state
1348:Core/Src/main_unique.c ****     }
 6930              		.loc 1 1348 9 is_stmt 1 view .LVU1582
 6931 00ea FFF7FEFF 		bl	Error_Handler
 6932              	.LVL514:
 6933              	.L543:
1355:Core/Src/main_unique.c ****     }
 6934              		.loc 1 1355 9 view .LVU1583
 6935 00ee FFF7FEFF 		bl	Error_Handler
 6936              	.LVL515:
 6937              	.L544:
1362:Core/Src/main_unique.c ****     }
 6938              		.loc 1 1362 9 view .LVU1584
 6939 00f2 FFF7FEFF 		bl	Error_Handler
 6940              	.LVL516:
 6941              	.L545:
1376:Core/Src/main_unique.c ****     }
 6942              		.loc 1 1376 9 view .LVU1585
 6943 00f6 FFF7FEFF 		bl	Error_Handler
 6944              	.LVL517:
 6945              	.L546:
1380:Core/Src/main_unique.c ****     }
 6946              		.loc 1 1380 9 view .LVU1586
ARM GAS  /tmp/ccjBgtoi.s 			page 197


 6947 00fa FFF7FEFF 		bl	Error_Handler
 6948              	.LVL518:
 6949              	.L547:
1383:Core/Src/main_unique.c ****     }
 6950              		.loc 1 1383 9 view .LVU1587
 6951 00fe FFF7FEFF 		bl	Error_Handler
 6952              	.LVL519:
 6953              	.L549:
 6954 0102 00BF     		.align	2
 6955              	.L548:
 6956 0104 00380240 		.word	1073887232
 6957 0108 00000000 		.word	htim3
 6958 010c 00040040 		.word	1073742848
 6959 0110 00000000 		.word	htim4
 6960 0114 00080040 		.word	1073743872
 6961              		.cfi_endproc
 6962              	.LFE318:
 6964              		.section	.text.main,"ax",%progbits
 6965              		.align	1
 6966              		.global	main
 6967              		.syntax unified
 6968              		.thumb
 6969              		.thumb_func
 6971              	main:
 6972              	.LFB368:
2213:Core/Src/main_unique.c ****     /* --- Capa de arranque ------------------------------------------------ */
 6973              		.loc 1 2213 1 view -0
 6974              		.cfi_startproc
 6975              		@ Volatile: function does not return.
 6976              		@ args = 0, pretend = 0, frame = 0
 6977              		@ frame_needed = 0, uses_anonymous_args = 0
 6978 0000 08B5     		push	{r3, lr}
 6979              	.LCFI124:
 6980              		.cfi_def_cfa_offset 8
 6981              		.cfi_offset 3, -8
 6982              		.cfi_offset 14, -4
2215:Core/Src/main_unique.c ****                        HAL_MspInit(). Debe ser la primera llamada. */
 6983              		.loc 1 2215 5 view .LVU1589
 6984 0002 FFF7FEFF 		bl	HAL_Init
 6985              	.LVL520:
2221:Core/Src/main_unique.c **** 
 6986              		.loc 1 2221 5 view .LVU1590
 6987 0006 0320     		movs	r0, #3
 6988 0008 FFF7FEFF 		bl	HAL_NVIC_SetPriorityGrouping
 6989              	.LVL521:
2223:Core/Src/main_unique.c **** 
 6990              		.loc 1 2223 5 view .LVU1591
 6991 000c FFF7FEFF 		bl	system_clock_init
 6992              	.LVL522:
2226:Core/Src/main_unique.c ****     uart_init();           /* USART2 a 115200 por interrupciones            */
 6993              		.loc 1 2226 5 view .LVU1592
 6994 0010 FFF7FEFF 		bl	gpio_init
 6995              	.LVL523:
2227:Core/Src/main_unique.c ****     adc_joystick_init();   /* ADC1 sobre PA0 y PA1 por interrupciones       */
 6996              		.loc 1 2227 5 view .LVU1593
 6997 0014 FFF7FEFF 		bl	uart_init
 6998              	.LVL524:
ARM GAS  /tmp/ccjBgtoi.s 			page 198


2228:Core/Src/main_unique.c ****     rtc_init();            /* RTC con LSE y despertador de 1 s              */
 6999              		.loc 1 2228 5 view .LVU1594
 7000 0018 FFF7FEFF 		bl	adc_joystick_init
 7001              	.LVL525:
2229:Core/Src/main_unique.c ****     lcd_init();            /* LCD por I2C1 (unico periferico sondeado)      */
 7002              		.loc 1 2229 5 view .LVU1595
 7003 001c FFF7FEFF 		bl	rtc_init
 7004              	.LVL526:
2230:Core/Src/main_unique.c ****     timer_init();          /* TIM3 (LED, 250 ms) y TIM4 (base de 100 ms)    */
 7005              		.loc 1 2230 5 view .LVU1596
 7006 0020 FFF7FEFF 		bl	lcd_init
 7007              	.LVL527:
2231:Core/Src/main_unique.c **** 
 7008              		.loc 1 2231 5 view .LVU1597
 7009 0024 FFF7FEFF 		bl	timer_init
 7010              	.LVL528:
2234:Core/Src/main_unique.c **** 
 7011              		.loc 1 2234 5 view .LVU1598
 7012 0028 FFF7FEFF 		bl	fsm_init
 7013              	.LVL529:
 7014              	.L551:
2236:Core/Src/main_unique.c ****         fsm_run();         /* consume los eventos encolados por las ISR     */
 7015              		.loc 1 2236 5 view .LVU1599
2237:Core/Src/main_unique.c ****     }
 7016              		.loc 1 2237 9 view .LVU1600
 7017 002c FFF7FEFF 		bl	fsm_run
 7018              	.LVL530:
2236:Core/Src/main_unique.c ****         fsm_run();         /* consume los eventos encolados por las ISR     */
 7019              		.loc 1 2236 11 discriminator 1 view .LVU1601
 7020 0030 FCE7     		b	.L551
 7021              		.cfi_endproc
 7022              	.LFE368:
 7024              		.section	.bss.heap.0,"aw",%nobits
 7025              		.align	2
 7028              	heap.0:
 7029 0000 00000000 		.space	4
 7030              		.section	.bss.last.1,"aw",%nobits
 7031              		.align	2
 7034              	last.1:
 7035 0000 00000000 		.space	4
 7036              		.section	.rodata.months.2,"a"
 7037              		.align	2
 7040              	months.2:
 7041 0000 4A616E46 		.ascii	"JanFebMarAprMayJunJulAugSepOctNovDec\000"
 7041      65624D61 
 7041      72417072 
 7041      4D61794A 
 7041      756E4A75 
 7042              		.section	.rodata.TXT_NO_MODE,"a"
 7043              		.align	2
 7046              	TXT_NO_MODE:
 7047 0000 41435449 		.ascii	"ACTIVAR MODO X O Y\000"
 7047      56415220 
 7047      4D4F444F 
 7047      2058204F 
 7047      205900
 7048              		.section	.rodata.TXT_MODE_Y,"a"
ARM GAS  /tmp/ccjBgtoi.s 			page 199


 7049              		.align	2
 7052              	TXT_MODE_Y:
 7053 0000 4D4F444F 		.ascii	"MODO Y\000"
 7053      205900
 7054              		.section	.rodata.TXT_MODE_X,"a"
 7055              		.align	2
 7058              	TXT_MODE_X:
 7059 0000 4D4F444F 		.ascii	"MODO X\000"
 7059      205800
 7060              		.section	.rodata.TXT_BANNER,"a"
 7061              		.align	2
 7064              	TXT_BANNER:
 7065 0000 44414E49 		.ascii	"DANIEL VARGAS - PARCIAL TALLER V 2026-1 - UNAL\000"
 7065      454C2056 
 7065      41524741 
 7065      53202D20 
 7065      50415243 
 7066              		.section	.bss.s_msg_timeout,"aw",%nobits
 7067              		.align	1
 7070              	s_msg_timeout:
 7071 0000 0000     		.space	2
 7072              		.section	.bss.s_tick_scroll,"aw",%nobits
 7073              		.align	1
 7076              	s_tick_scroll:
 7077 0000 0000     		.space	2
 7078              		.section	.bss.s_shadow,"aw",%nobits
 7079              		.align	2
 7082              	s_shadow:
 7083 0000 00000000 		.space	84
 7083      00000000 
 7083      00000000 
 7083      00000000 
 7083      00000000 
 7084              		.section	.bss.s_scroll,"aw",%nobits
 7085              		.align	1
 7088              	s_scroll:
 7089 0000 0000     		.space	2
 7090              		.section	.bss.s_line2,"aw",%nobits
 7091              		.align	2
 7094              	s_line2:
 7095 0000 00000000 		.space	4
 7096              		.section	.bss.s_coord_y,"aw",%nobits
 7097              		.align	1
 7100              	s_coord_y:
 7101 0000 0000     		.space	2
 7102              		.section	.bss.s_coord_x,"aw",%nobits
 7103              		.align	1
 7106              	s_coord_x:
 7107 0000 0000     		.space	2
 7108              		.section	.data.s_prev,"aw"
 7111              	s_prev:
 7112 0000 01       		.byte	1
 7113              		.section	.bss.s_state,"aw",%nobits
 7116              	s_state:
 7117 0000 00       		.space	1
 7118              		.section	.bss.s_evq_tail,"aw",%nobits
 7121              	s_evq_tail:
ARM GAS  /tmp/ccjBgtoi.s 			page 200


 7122 0000 00       		.space	1
 7123              		.section	.bss.s_evq_head,"aw",%nobits
 7126              	s_evq_head:
 7127 0000 00       		.space	1
 7128              		.section	.bss.s_evq,"aw",%nobits
 7129              		.align	2
 7132              	s_evq:
 7133 0000 00000000 		.space	32
 7133      00000000 
 7133      00000000 
 7133      00000000 
 7133      00000000 
 7134              		.section	.rodata.s_row_offset,"a"
 7135              		.align	2
 7138              	s_row_offset:
 7139 0000 00401454 		.ascii	"\000@\024T"
 7140              		.section	.bss.s_errors,"aw",%nobits
 7141              		.align	2
 7144              	s_errors:
 7145 0000 00000000 		.space	4
 7146              		.section	.bss.s_present,"aw",%nobits
 7149              	s_present:
 7150 0000 00       		.space	1
 7151              		.section	.data.s_addr7,"aw"
 7154              	s_addr7:
 7155 0000 27       		.byte	39
 7156              		.global	g_rtc_second_flag
 7157              		.section	.bss.g_rtc_second_flag,"aw",%nobits
 7160              	g_rtc_second_flag:
 7161 0000 00       		.space	1
 7162              		.section	.data.s_raw_y,"aw"
 7163              		.align	1
 7166              	s_raw_y:
 7167 0000 0008     		.short	2048
 7168              		.section	.data.s_raw_x,"aw"
 7169              		.align	1
 7172              	s_raw_x:
 7173 0000 0008     		.short	2048
 7174              		.section	.bss.s_channel,"aw",%nobits
 7177              	s_channel:
 7178 0000 00       		.space	1
 7179              		.section	.bss.s_tx_current,"aw",%nobits
 7182              	s_tx_current:
 7183 0000 00       		.space	1
 7184              		.section	.bss.s_tx_busy,"aw",%nobits
 7187              	s_tx_busy:
 7188 0000 00       		.space	1
 7189              		.section	.bss.s_tx_tail,"aw",%nobits
 7190              		.align	1
 7193              	s_tx_tail:
 7194 0000 0000     		.space	2
 7195              		.section	.bss.s_tx_head,"aw",%nobits
 7196              		.align	1
 7199              	s_tx_head:
 7200 0000 0000     		.space	2
 7201              		.section	.bss.s_tx_buf,"aw",%nobits
 7202              		.align	2
ARM GAS  /tmp/ccjBgtoi.s 			page 201


 7205              	s_tx_buf:
 7206 0000 00000000 		.space	512
 7206      00000000 
 7206      00000000 
 7206      00000000 
 7206      00000000 
 7207              		.section	.bss.s_rx_byte,"aw",%nobits
 7210              	s_rx_byte:
 7211 0000 00       		.space	1
 7212              		.section	.bss.s_lse_ok,"aw",%nobits
 7215              	s_lse_ok:
 7216 0000 00       		.space	1
 7217              		.section	.data.s_mco_freq,"aw"
 7218              		.align	2
 7221              	s_mco_freq:
 7222 0000 002D3101 		.word	20000000
 7223              		.section	.data.s_mco_src,"aw"
 7226              	s_mco_src:
 7227 0000 02       		.byte	2
 7228              		.global	htim4
 7229              		.section	.bss.htim4,"aw",%nobits
 7230              		.align	2
 7233              	htim4:
 7234 0000 00000000 		.space	72
 7234      00000000 
 7234      00000000 
 7234      00000000 
 7234      00000000 
 7235              		.global	htim3
 7236              		.section	.bss.htim3,"aw",%nobits
 7237              		.align	2
 7240              	htim3:
 7241 0000 00000000 		.space	72
 7241      00000000 
 7241      00000000 
 7241      00000000 
 7241      00000000 
 7242              		.global	hrtc
 7243              		.section	.bss.hrtc,"aw",%nobits
 7244              		.align	2
 7247              	hrtc:
 7248 0000 00000000 		.space	32
 7248      00000000 
 7248      00000000 
 7248      00000000 
 7248      00000000 
 7249              		.global	hi2c1
 7250              		.section	.bss.hi2c1,"aw",%nobits
 7251              		.align	2
 7254              	hi2c1:
 7255 0000 00000000 		.space	84
 7255      00000000 
 7255      00000000 
 7255      00000000 
 7255      00000000 
 7256              		.global	hadc1
 7257              		.section	.bss.hadc1,"aw",%nobits
ARM GAS  /tmp/ccjBgtoi.s 			page 202


 7258              		.align	2
 7261              	hadc1:
 7262 0000 00000000 		.space	72
 7262      00000000 
 7262      00000000 
 7262      00000000 
 7262      00000000 
 7263              		.global	huart2
 7264              		.section	.bss.huart2,"aw",%nobits
 7265              		.align	2
 7268              	huart2:
 7269 0000 00000000 		.space	72
 7269      00000000 
 7269      00000000 
 7269      00000000 
 7269      00000000 
 7270              		.text
 7271              	.Letext0:
 7272              		.file 3 "Drivers/CMSIS/Device/ST/STM32F4xx/Include/stm32f411xe.h"
 7273              		.file 4 "/usr/arm-none-eabi/include/machine/_default_types.h"
 7274              		.file 5 "/usr/arm-none-eabi/include/sys/_stdint.h"
 7275              		.file 6 "Drivers/CMSIS/Include/core_cm4.h"
 7276              		.file 7 "Drivers/CMSIS/Device/ST/STM32F4xx/Include/stm32f4xx.h"
 7277              		.file 8 "/usr/lib/gcc/arm-none-eabi/16.1.0/include/stddef.h"
 7278              		.file 9 "Drivers/STM32F4xx_HAL_Driver/Inc/stm32f4xx_hal_def.h"
 7279              		.file 10 "Drivers/STM32F4xx_HAL_Driver/Inc/stm32f4xx_hal_rcc_ex.h"
 7280              		.file 11 "Drivers/STM32F4xx_HAL_Driver/Inc/stm32f4xx_hal_rcc.h"
 7281              		.file 12 "Drivers/STM32F4xx_HAL_Driver/Inc/stm32f4xx_hal_gpio.h"
 7282              		.file 13 "Drivers/STM32F4xx_HAL_Driver/Inc/stm32f4xx_hal_dma.h"
 7283              		.file 14 "Drivers/STM32F4xx_HAL_Driver/Inc/stm32f4xx_hal_adc.h"
 7284              		.file 15 "Drivers/STM32F4xx_HAL_Driver/Inc/stm32f4xx_hal_i2c.h"
 7285              		.file 16 "Drivers/STM32F4xx_HAL_Driver/Inc/stm32f4xx_hal_rtc.h"
 7286              		.file 17 "Drivers/STM32F4xx_HAL_Driver/Inc/stm32f4xx_hal_tim.h"
 7287              		.file 18 "Drivers/STM32F4xx_HAL_Driver/Inc/stm32f4xx_hal_uart.h"
 7288              		.file 19 "/usr/arm-none-eabi/include/sys/_types.h"
 7289              		.file 20 "/usr/arm-none-eabi/include/stdio.h"
 7290              		.file 21 "/usr/arm-none-eabi/include/sys/_timeval.h"
 7291              		.file 22 "/usr/arm-none-eabi/include/sys/_timespec.h"
 7292              		.file 23 "/usr/arm-none-eabi/include/sys/types.h"
 7293              		.file 24 "/usr/arm-none-eabi/include/sys/stat.h"
 7294              		.file 25 "Drivers/CMSIS/Device/ST/STM32F4xx/Include/system_stm32f4xx.h"
 7295              		.file 26 "Drivers/STM32F4xx_HAL_Driver/Inc/stm32f4xx_hal.h"
 7296              		.file 27 "/usr/arm-none-eabi/include/sys/errno.h"
 7297              		.file 28 "Drivers/STM32F4xx_HAL_Driver/Inc/stm32f4xx_hal_cortex.h"
 7298              		.file 29 "Drivers/STM32F4xx_HAL_Driver/Inc/stm32f4xx_hal_rtc_ex.h"
 7299              		.file 30 "/usr/arm-none-eabi/include/string.h"
 7300              		.file 31 "Drivers/STM32F4xx_HAL_Driver/Inc/stm32f4xx_hal_tim_ex.h"
 7301              		.file 32 "Drivers/STM32F4xx_HAL_Driver/Inc/stm32f4xx_hal_pwr.h"
 7302              		.file 33 "<built-in>"
ARM GAS  /tmp/ccjBgtoi.s 			page 203


DEFINED SYMBOLS
                            *ABS*:00000000 main_unique.c
     /tmp/ccjBgtoi.s:21     .text.adc_dir:00000000 $t
     /tmp/ccjBgtoi.s:26     .text.adc_dir:00000000 adc_dir
     /tmp/ccjBgtoi.s:66     .text.build_month:00000000 $t
     /tmp/ccjBgtoi.s:71     .text.build_month:00000000 build_month
     /tmp/ccjBgtoi.s:139    .text.build_month:00000034 $d
     /tmp/ccjBgtoi.s:7040   .rodata.months.2:00000000 months.2
     /tmp/ccjBgtoi.s:144    .text.build_day:00000000 $t
     /tmp/ccjBgtoi.s:149    .text.build_day:00000000 build_day
     /tmp/ccjBgtoi.s:167    .text.build_year:00000000 $t
     /tmp/ccjBgtoi.s:172    .text.build_year:00000000 build_year
     /tmp/ccjBgtoi.s:189    .rodata.build_field.str1.4:00000000 $d
     /tmp/ccjBgtoi.s:193    .text.build_field:00000000 $t
     /tmp/ccjBgtoi.s:198    .text.build_field:00000000 build_field
     /tmp/ccjBgtoi.s:230    .text.build_field:0000001c $d
     /tmp/ccjBgtoi.s:235    .text.dwt_init:00000000 $t
     /tmp/ccjBgtoi.s:240    .text.dwt_init:00000000 dwt_init
     /tmp/ccjBgtoi.s:270    .text.dwt_init:00000020 $d
     /tmp/ccjBgtoi.s:276    .text.delay_us:00000000 $t
     /tmp/ccjBgtoi.s:281    .text.delay_us:00000000 delay_us
     /tmp/ccjBgtoi.s:330    .text.delay_us:00000024 $d
     /tmp/ccjBgtoi.s:337    .text.fsm_get_event:00000000 $t
     /tmp/ccjBgtoi.s:342    .text.fsm_get_event:00000000 fsm_get_event
     /tmp/ccjBgtoi.s:386    .text.fsm_get_event:00000024 $d
     /tmp/ccjBgtoi.s:7126   .bss.s_evq_head:00000000 s_evq_head
     /tmp/ccjBgtoi.s:7121   .bss.s_evq_tail:00000000 s_evq_tail
     /tmp/ccjBgtoi.s:7132   .bss.s_evq:00000000 s_evq
     /tmp/ccjBgtoi.s:393    .text.clamp_coord:00000000 $t
     /tmp/ccjBgtoi.s:398    .text.clamp_coord:00000000 clamp_coord
     /tmp/ccjBgtoi.s:437    .text.clamp_coord:0000001c $d
     /tmp/ccjBgtoi.s:442    .text.set_line2:00000000 $t
     /tmp/ccjBgtoi.s:447    .text.set_line2:00000000 set_line2
     /tmp/ccjBgtoi.s:469    .text.set_line2:0000000c $d
     /tmp/ccjBgtoi.s:7094   .bss.s_line2:00000000 s_line2
     /tmp/ccjBgtoi.s:7088   .bss.s_scroll:00000000 s_scroll
     /tmp/ccjBgtoi.s:475    .text.uart_start_tx:00000000 $t
     /tmp/ccjBgtoi.s:480    .text.uart_start_tx:00000000 uart_start_tx
     /tmp/ccjBgtoi.s:536    .text.uart_start_tx:00000038 $d
     /tmp/ccjBgtoi.s:7187   .bss.s_tx_busy:00000000 s_tx_busy
     /tmp/ccjBgtoi.s:7199   .bss.s_tx_head:00000000 s_tx_head
     /tmp/ccjBgtoi.s:7193   .bss.s_tx_tail:00000000 s_tx_tail
     /tmp/ccjBgtoi.s:7205   .bss.s_tx_buf:00000000 s_tx_buf
     /tmp/ccjBgtoi.s:7182   .bss.s_tx_current:00000000 s_tx_current
     /tmp/ccjBgtoi.s:7268   .bss.huart2:00000000 huart2
     /tmp/ccjBgtoi.s:546    .text.lcd_tx:00000000 $t
     /tmp/ccjBgtoi.s:551    .text.lcd_tx:00000000 lcd_tx
     /tmp/ccjBgtoi.s:617    .text.lcd_tx:00000030 $d
     /tmp/ccjBgtoi.s:7154   .data.s_addr7:00000000 s_addr7
     /tmp/ccjBgtoi.s:7254   .bss.hi2c1:00000000 hi2c1
     /tmp/ccjBgtoi.s:7144   .bss.s_errors:00000000 s_errors
     /tmp/ccjBgtoi.s:624    .text.lcd_pulse_nibble:00000000 $t
     /tmp/ccjBgtoi.s:629    .text.lcd_pulse_nibble:00000000 lcd_pulse_nibble
     /tmp/ccjBgtoi.s:675    .text.lcd_send:00000000 $t
     /tmp/ccjBgtoi.s:680    .text.lcd_send:00000000 lcd_send
     /tmp/ccjBgtoi.s:758    .text.lcd_command:00000000 $t
     /tmp/ccjBgtoi.s:763    .text.lcd_command:00000000 lcd_command
ARM GAS  /tmp/ccjBgtoi.s 			page 204


     /tmp/ccjBgtoi.s:786    .text.lcd_data:00000000 $t
     /tmp/ccjBgtoi.s:791    .text.lcd_data:00000000 lcd_data
     /tmp/ccjBgtoi.s:814    .text.system_clock_mco_set:00000000 $t
     /tmp/ccjBgtoi.s:820    .text.system_clock_mco_set:00000000 system_clock_mco_set
     /tmp/ccjBgtoi.s:916    .text.system_clock_mco_set:00000060 $d
     /tmp/ccjBgtoi.s:7221   .data.s_mco_freq:00000000 s_mco_freq
     /tmp/ccjBgtoi.s:7226   .data.s_mco_src:00000000 s_mco_src
     /tmp/ccjBgtoi.s:7215   .bss.s_lse_ok:00000000 s_lse_ok
     /tmp/ccjBgtoi.s:925    .text.system_clock_mco_get:00000000 $t
     /tmp/ccjBgtoi.s:931    .text.system_clock_mco_get:00000000 system_clock_mco_get
     /tmp/ccjBgtoi.s:946    .text.system_clock_mco_get:00000008 $d
     /tmp/ccjBgtoi.s:951    .rodata.system_clock_mco_label.str1.4:00000000 $d
     /tmp/ccjBgtoi.s:967    .text.system_clock_mco_label:00000000 $t
     /tmp/ccjBgtoi.s:973    .text.system_clock_mco_label:00000000 system_clock_mco_label
     /tmp/ccjBgtoi.s:1016   .text.system_clock_mco_label:00000028 $d
     /tmp/ccjBgtoi.s:1027   .text.system_clock_lse_ok:00000000 $t
     /tmp/ccjBgtoi.s:1033   .text.system_clock_lse_ok:00000000 system_clock_lse_ok
     /tmp/ccjBgtoi.s:1048   .text.system_clock_lse_ok:00000008 $d
     /tmp/ccjBgtoi.s:1053   .text.system_clock_mco_freq:00000000 $t
     /tmp/ccjBgtoi.s:1059   .text.system_clock_mco_freq:00000000 system_clock_mco_freq
     /tmp/ccjBgtoi.s:1074   .text.system_clock_mco_freq:00000008 $d
     /tmp/ccjBgtoi.s:1079   .text.gpio_init:00000000 $t
     /tmp/ccjBgtoi.s:1085   .text.gpio_init:00000000 gpio_init
     /tmp/ccjBgtoi.s:1205   .text.gpio_init:00000084 $d
     /tmp/ccjBgtoi.s:1212   .text.gpio_led_toggle:00000000 $t
     /tmp/ccjBgtoi.s:1218   .text.gpio_led_toggle:00000000 gpio_led_toggle
     /tmp/ccjBgtoi.s:1239   .text.gpio_led_toggle:0000000c $d
     /tmp/ccjBgtoi.s:1244   .text.gpio_led_write:00000000 $t
     /tmp/ccjBgtoi.s:1250   .text.gpio_led_write:00000000 gpio_led_write
     /tmp/ccjBgtoi.s:1278   .text.gpio_led_write:00000014 $d
     /tmp/ccjBgtoi.s:1283   .text.uart_send:00000000 $t
     /tmp/ccjBgtoi.s:1289   .text.uart_send:00000000 uart_send
     /tmp/ccjBgtoi.s:1353   .text.uart_send:00000034 $d
     /tmp/ccjBgtoi.s:1360   .rodata.uart_send_line.str1.4:00000000 $d
     /tmp/ccjBgtoi.s:1364   .text.uart_send_line:00000000 $t
     /tmp/ccjBgtoi.s:1370   .text.uart_send_line:00000000 uart_send_line
     /tmp/ccjBgtoi.s:1395   .text.uart_send_line:00000010 $d
     /tmp/ccjBgtoi.s:1400   .rodata.print_help.str1.4:00000000 $d
     /tmp/ccjBgtoi.s:1445   .text.print_help:00000000 $t
     /tmp/ccjBgtoi.s:1450   .text.print_help:00000000 print_help
     /tmp/ccjBgtoi.s:1522   .text.print_help:00000058 $d
     /tmp/ccjBgtoi.s:1540   .text.HAL_UART_TxCpltCallback:00000000 $t
     /tmp/ccjBgtoi.s:1546   .text.HAL_UART_TxCpltCallback:00000000 HAL_UART_TxCpltCallback
     /tmp/ccjBgtoi.s:1585   .text.HAL_UART_TxCpltCallback:00000018 $d
     /tmp/ccjBgtoi.s:1591   .text.HAL_UART_ErrorCallback:00000000 $t
     /tmp/ccjBgtoi.s:1597   .text.HAL_UART_ErrorCallback:00000000 HAL_UART_ErrorCallback
     /tmp/ccjBgtoi.s:1653   .text.HAL_UART_ErrorCallback:0000002c $d
     /tmp/ccjBgtoi.s:7210   .bss.s_rx_byte:00000000 s_rx_byte
     /tmp/ccjBgtoi.s:1660   .text.adc_joystick_raw_x:00000000 $t
     /tmp/ccjBgtoi.s:1666   .text.adc_joystick_raw_x:00000000 adc_joystick_raw_x
     /tmp/ccjBgtoi.s:1681   .text.adc_joystick_raw_x:00000008 $d
     /tmp/ccjBgtoi.s:7172   .data.s_raw_x:00000000 s_raw_x
     /tmp/ccjBgtoi.s:1686   .text.adc_joystick_raw_y:00000000 $t
     /tmp/ccjBgtoi.s:1692   .text.adc_joystick_raw_y:00000000 adc_joystick_raw_y
     /tmp/ccjBgtoi.s:1707   .text.adc_joystick_raw_y:00000008 $d
     /tmp/ccjBgtoi.s:7166   .data.s_raw_y:00000000 s_raw_y
     /tmp/ccjBgtoi.s:1712   .text.adc_joystick_dir_x:00000000 $t
ARM GAS  /tmp/ccjBgtoi.s 			page 205


     /tmp/ccjBgtoi.s:1718   .text.adc_joystick_dir_x:00000000 adc_joystick_dir_x
     /tmp/ccjBgtoi.s:1740   .text.adc_joystick_dir_x:0000000c $d
     /tmp/ccjBgtoi.s:1745   .text.adc_joystick_dir_y:00000000 $t
     /tmp/ccjBgtoi.s:1751   .text.adc_joystick_dir_y:00000000 adc_joystick_dir_y
     /tmp/ccjBgtoi.s:1773   .text.adc_joystick_dir_y:0000000c $d
     /tmp/ccjBgtoi.s:1778   .text.apply_joystick:00000000 $t
     /tmp/ccjBgtoi.s:1783   .text.apply_joystick:00000000 apply_joystick
     /tmp/ccjBgtoi.s:1846   .text.apply_joystick:00000034 $d
     /tmp/ccjBgtoi.s:7106   .bss.s_coord_x:00000000 s_coord_x
     /tmp/ccjBgtoi.s:7100   .bss.s_coord_y:00000000 s_coord_y
     /tmp/ccjBgtoi.s:1852   .text.rtc_get_time:00000000 $t
     /tmp/ccjBgtoi.s:1858   .text.rtc_get_time:00000000 rtc_get_time
     /tmp/ccjBgtoi.s:1898   .text.rtc_get_time:0000001c $d
     /tmp/ccjBgtoi.s:7247   .bss.hrtc:00000000 hrtc
     /tmp/ccjBgtoi.s:1903   .rodata.rtc_format_line.str1.4:00000000 $d
     /tmp/ccjBgtoi.s:1907   .text.rtc_format_line:00000000 $t
     /tmp/ccjBgtoi.s:1913   .text.rtc_format_line:00000000 rtc_format_line
     /tmp/ccjBgtoi.s:1974   .text.rtc_format_line:0000003c $d
     /tmp/ccjBgtoi.s:1979   .text.HAL_RTCEx_WakeUpTimerEventCallback:00000000 $t
     /tmp/ccjBgtoi.s:1985   .text.HAL_RTCEx_WakeUpTimerEventCallback:00000000 HAL_RTCEx_WakeUpTimerEventCallback
     /tmp/ccjBgtoi.s:2004   .text.HAL_RTCEx_WakeUpTimerEventCallback:00000008 $d
     /tmp/ccjBgtoi.s:7160   .bss.g_rtc_second_flag:00000000 g_rtc_second_flag
     /tmp/ccjBgtoi.s:2009   .rodata.lcd_bus_scan_report.str1.4:00000000 $d
     /tmp/ccjBgtoi.s:2032   .text.lcd_bus_scan_report:00000000 $t
     /tmp/ccjBgtoi.s:2038   .text.lcd_bus_scan_report:00000000 lcd_bus_scan_report
     /tmp/ccjBgtoi.s:2164   .text.lcd_bus_scan_report:00000078 $d
     /tmp/ccjBgtoi.s:2177   .text.lcd_clear:00000000 $t
     /tmp/ccjBgtoi.s:2183   .text.lcd_clear:00000000 lcd_clear
     /tmp/ccjBgtoi.s:2216   .text.lcd_clear:00000018 $d
     /tmp/ccjBgtoi.s:7149   .bss.s_present:00000000 s_present
     /tmp/ccjBgtoi.s:2221   .text.lcd_set_cursor:00000000 $t
     /tmp/ccjBgtoi.s:2227   .text.lcd_set_cursor:00000000 lcd_set_cursor
     /tmp/ccjBgtoi.s:2281   .text.lcd_set_cursor:00000028 $d
     /tmp/ccjBgtoi.s:7138   .rodata.s_row_offset:00000000 s_row_offset
     /tmp/ccjBgtoi.s:2287   .text.lcd_print:00000000 $t
     /tmp/ccjBgtoi.s:2293   .text.lcd_print:00000000 lcd_print
     /tmp/ccjBgtoi.s:2338   .text.lcd_print:0000001c $d
     /tmp/ccjBgtoi.s:2343   .text.lcd_print_line:00000000 $t
     /tmp/ccjBgtoi.s:2349   .text.lcd_print_line:00000000 lcd_print_line
     /tmp/ccjBgtoi.s:2431   .text.lcd_print_line:00000038 $d
     /tmp/ccjBgtoi.s:2436   .text.lcd_update:00000000 $t
     /tmp/ccjBgtoi.s:2441   .text.lcd_update:00000000 lcd_update
     /tmp/ccjBgtoi.s:2567   .text.lcd_update:00000090 $d
     /tmp/ccjBgtoi.s:7082   .bss.s_shadow:00000000 s_shadow
     /tmp/ccjBgtoi.s:2572   .text.render_time:00000000 $t
     /tmp/ccjBgtoi.s:2577   .text.render_time:00000000 render_time
     /tmp/ccjBgtoi.s:2612   .text.render_line2:00000000 $t
     /tmp/ccjBgtoi.s:2617   .text.render_line2:00000000 render_line2
     /tmp/ccjBgtoi.s:2738   .text.render_line2:00000074 $d
     /tmp/ccjBgtoi.s:2744   .text.show_message:00000000 $t
     /tmp/ccjBgtoi.s:2749   .text.show_message:00000000 show_message
     /tmp/ccjBgtoi.s:2795   .text.show_message:00000024 $d
     /tmp/ccjBgtoi.s:7116   .bss.s_state:00000000 s_state
     /tmp/ccjBgtoi.s:7111   .data.s_prev:00000000 s_prev
     /tmp/ccjBgtoi.s:7070   .bss.s_msg_timeout:00000000 s_msg_timeout
     /tmp/ccjBgtoi.s:2802   .text.restore_line2:00000000 $t
     /tmp/ccjBgtoi.s:2807   .text.restore_line2:00000000 restore_line2
ARM GAS  /tmp/ccjBgtoi.s 			page 206


     /tmp/ccjBgtoi.s:2853   .text.restore_line2:0000002c $d
     /tmp/ccjBgtoi.s:7064   .rodata.TXT_BANNER:00000000 TXT_BANNER
     /tmp/ccjBgtoi.s:7058   .rodata.TXT_MODE_X:00000000 TXT_MODE_X
     /tmp/ccjBgtoi.s:7052   .rodata.TXT_MODE_Y:00000000 TXT_MODE_Y
     /tmp/ccjBgtoi.s:2861   .rodata.render_coords.str1.4:00000000 $d
     /tmp/ccjBgtoi.s:2868   .text.render_coords:00000000 $t
     /tmp/ccjBgtoi.s:2873   .text.render_coords:00000000 render_coords
     /tmp/ccjBgtoi.s:2939   .text.render_coords:00000050 $d
     /tmp/ccjBgtoi.s:2947   .rodata.coord_step.str1.4:00000000 $d
     /tmp/ccjBgtoi.s:2951   .text.coord_step:00000000 $t
     /tmp/ccjBgtoi.s:2956   .text.coord_step:00000000 coord_step
     /tmp/ccjBgtoi.s:3088   .text.coord_step:00000084 $d
     /tmp/ccjBgtoi.s:7046   .rodata.TXT_NO_MODE:00000000 TXT_NO_MODE
     /tmp/ccjBgtoi.s:3099   .text.lcd_is_present:00000000 $t
     /tmp/ccjBgtoi.s:3105   .text.lcd_is_present:00000000 lcd_is_present
     /tmp/ccjBgtoi.s:3120   .text.lcd_is_present:00000008 $d
     /tmp/ccjBgtoi.s:3125   .text.lcd_address:00000000 $t
     /tmp/ccjBgtoi.s:3131   .text.lcd_address:00000000 lcd_address
     /tmp/ccjBgtoi.s:3146   .text.lcd_address:00000008 $d
     /tmp/ccjBgtoi.s:3151   .text.lcd_error_count:00000000 $t
     /tmp/ccjBgtoi.s:3157   .text.lcd_error_count:00000000 lcd_error_count
     /tmp/ccjBgtoi.s:3172   .text.lcd_error_count:00000008 $d
     /tmp/ccjBgtoi.s:3177   .rodata.print_diagnostics.str1.4:00000000 $d
     /tmp/ccjBgtoi.s:3205   .text.print_diagnostics:00000000 $t
     /tmp/ccjBgtoi.s:3210   .text.print_diagnostics:00000000 print_diagnostics
     /tmp/ccjBgtoi.s:3354   .text.print_diagnostics:000000b8 $d
     /tmp/ccjBgtoi.s:3368   .text.fsm_post_event:00000000 $t
     /tmp/ccjBgtoi.s:3374   .text.fsm_post_event:00000000 fsm_post_event
     /tmp/ccjBgtoi.s:3413   .text.fsm_post_event:00000024 $d
     /tmp/ccjBgtoi.s:3420   .text.HAL_UART_RxCpltCallback:00000000 $t
     /tmp/ccjBgtoi.s:3426   .text.HAL_UART_RxCpltCallback:00000000 HAL_UART_RxCpltCallback
     /tmp/ccjBgtoi.s:3466   .text.HAL_UART_RxCpltCallback:0000001a $d
     /tmp/ccjBgtoi.s:3665   .text.HAL_UART_RxCpltCallback:000000cc $d
     /tmp/ccjBgtoi.s:3672   .text.fsm_init:00000000 $t
     /tmp/ccjBgtoi.s:3678   .text.fsm_init:00000000 fsm_init
     /tmp/ccjBgtoi.s:3734   .text.fsm_init:00000038 $d
     /tmp/ccjBgtoi.s:3743   .text.fsm_get_state:00000000 $t
     /tmp/ccjBgtoi.s:3749   .text.fsm_get_state:00000000 fsm_get_state
     /tmp/ccjBgtoi.s:3764   .text.fsm_get_state:00000008 $d
     /tmp/ccjBgtoi.s:3769   .rodata.fsm_run.str1.4:00000000 $d
     /tmp/ccjBgtoi.s:3791   .text.fsm_run:00000000 $t
     /tmp/ccjBgtoi.s:3797   .text.fsm_run:00000000 fsm_run
     /tmp/ccjBgtoi.s:3861   .text.fsm_run:00000044 $d
     /tmp/ccjBgtoi.s:3875   .text.fsm_run:0000007c $t
     /tmp/ccjBgtoi.s:4113   .text.fsm_run:00000180 $d
     /tmp/ccjBgtoi.s:7076   .bss.s_tick_scroll:00000000 s_tick_scroll
     /tmp/ccjBgtoi.s:4132   .text.HAL_MspInit:00000000 $t
     /tmp/ccjBgtoi.s:4138   .text.HAL_MspInit:00000000 HAL_MspInit
     /tmp/ccjBgtoi.s:4191   .text.HAL_MspInit:00000034 $d
     /tmp/ccjBgtoi.s:4196   .text.HAL_UART_MspInit:00000000 $t
     /tmp/ccjBgtoi.s:4202   .text.HAL_UART_MspInit:00000000 HAL_UART_MspInit
     /tmp/ccjBgtoi.s:4294   .text.HAL_UART_MspInit:00000054 $d
     /tmp/ccjBgtoi.s:4301   .text.HAL_ADC_MspInit:00000000 $t
     /tmp/ccjBgtoi.s:4307   .text.HAL_ADC_MspInit:00000000 HAL_ADC_MspInit
     /tmp/ccjBgtoi.s:4388   .text.HAL_ADC_MspInit:0000004c $d
     /tmp/ccjBgtoi.s:4394   .text.HAL_I2C_MspInit:00000000 $t
     /tmp/ccjBgtoi.s:4400   .text.HAL_I2C_MspInit:00000000 HAL_I2C_MspInit
ARM GAS  /tmp/ccjBgtoi.s 			page 207


     /tmp/ccjBgtoi.s:4492   .text.HAL_I2C_MspInit:00000058 $d
     /tmp/ccjBgtoi.s:4499   .text.HAL_RTC_MspInit:00000000 $t
     /tmp/ccjBgtoi.s:4505   .text.HAL_RTC_MspInit:00000000 HAL_RTC_MspInit
     /tmp/ccjBgtoi.s:4520   .text.NMI_Handler:00000000 $t
     /tmp/ccjBgtoi.s:4526   .text.NMI_Handler:00000000 NMI_Handler
     /tmp/ccjBgtoi.s:4543   .text.HardFault_Handler:00000000 $t
     /tmp/ccjBgtoi.s:4549   .text.HardFault_Handler:00000000 HardFault_Handler
     /tmp/ccjBgtoi.s:4566   .text.MemManage_Handler:00000000 $t
     /tmp/ccjBgtoi.s:4572   .text.MemManage_Handler:00000000 MemManage_Handler
     /tmp/ccjBgtoi.s:4589   .text.BusFault_Handler:00000000 $t
     /tmp/ccjBgtoi.s:4595   .text.BusFault_Handler:00000000 BusFault_Handler
     /tmp/ccjBgtoi.s:4612   .text.UsageFault_Handler:00000000 $t
     /tmp/ccjBgtoi.s:4618   .text.UsageFault_Handler:00000000 UsageFault_Handler
     /tmp/ccjBgtoi.s:4635   .text.SVC_Handler:00000000 $t
     /tmp/ccjBgtoi.s:4641   .text.SVC_Handler:00000000 SVC_Handler
     /tmp/ccjBgtoi.s:4654   .text.DebugMon_Handler:00000000 $t
     /tmp/ccjBgtoi.s:4660   .text.DebugMon_Handler:00000000 DebugMon_Handler
     /tmp/ccjBgtoi.s:4673   .text.PendSV_Handler:00000000 $t
     /tmp/ccjBgtoi.s:4679   .text.PendSV_Handler:00000000 PendSV_Handler
     /tmp/ccjBgtoi.s:4692   .text.SysTick_Handler:00000000 $t
     /tmp/ccjBgtoi.s:4698   .text.SysTick_Handler:00000000 SysTick_Handler
     /tmp/ccjBgtoi.s:4718   .text.USART2_IRQHandler:00000000 $t
     /tmp/ccjBgtoi.s:4724   .text.USART2_IRQHandler:00000000 USART2_IRQHandler
     /tmp/ccjBgtoi.s:4744   .text.USART2_IRQHandler:0000000c $d
     /tmp/ccjBgtoi.s:4749   .text.ADC_IRQHandler:00000000 $t
     /tmp/ccjBgtoi.s:4755   .text.ADC_IRQHandler:00000000 ADC_IRQHandler
     /tmp/ccjBgtoi.s:4775   .text.ADC_IRQHandler:0000000c $d
     /tmp/ccjBgtoi.s:7261   .bss.hadc1:00000000 hadc1
     /tmp/ccjBgtoi.s:4780   .text.TIM3_IRQHandler:00000000 $t
     /tmp/ccjBgtoi.s:4786   .text.TIM3_IRQHandler:00000000 TIM3_IRQHandler
     /tmp/ccjBgtoi.s:4806   .text.TIM3_IRQHandler:0000000c $d
     /tmp/ccjBgtoi.s:7240   .bss.htim3:00000000 htim3
     /tmp/ccjBgtoi.s:4811   .text.TIM4_IRQHandler:00000000 $t
     /tmp/ccjBgtoi.s:4817   .text.TIM4_IRQHandler:00000000 TIM4_IRQHandler
     /tmp/ccjBgtoi.s:4837   .text.TIM4_IRQHandler:0000000c $d
     /tmp/ccjBgtoi.s:7233   .bss.htim4:00000000 htim4
     /tmp/ccjBgtoi.s:4842   .text.EXTI9_5_IRQHandler:00000000 $t
     /tmp/ccjBgtoi.s:4848   .text.EXTI9_5_IRQHandler:00000000 EXTI9_5_IRQHandler
     /tmp/ccjBgtoi.s:4869   .text.RTC_WKUP_IRQHandler:00000000 $t
     /tmp/ccjBgtoi.s:4875   .text.RTC_WKUP_IRQHandler:00000000 RTC_WKUP_IRQHandler
     /tmp/ccjBgtoi.s:4895   .text.RTC_WKUP_IRQHandler:0000000c $d
     /tmp/ccjBgtoi.s:4900   .text.HAL_GPIO_EXTI_Callback:00000000 $t
     /tmp/ccjBgtoi.s:4906   .text.HAL_GPIO_EXTI_Callback:00000000 HAL_GPIO_EXTI_Callback
     /tmp/ccjBgtoi.s:4958   .text.HAL_GPIO_EXTI_Callback:00000024 $d
     /tmp/ccjBgtoi.s:7034   .bss.last.1:00000000 last.1
     /tmp/ccjBgtoi.s:4963   .text._sbrk:00000000 $t
     /tmp/ccjBgtoi.s:4969   .text._sbrk:00000000 _sbrk
     /tmp/ccjBgtoi.s:5013   .text._sbrk:0000001c $d
     /tmp/ccjBgtoi.s:7028   .bss.heap.0:00000000 heap.0
     /tmp/ccjBgtoi.s:5019   .text._close:00000000 $t
     /tmp/ccjBgtoi.s:5025   .text._close:00000000 _close
     /tmp/ccjBgtoi.s:5044   .text._fstat:00000000 $t
     /tmp/ccjBgtoi.s:5050   .text._fstat:00000000 _fstat
     /tmp/ccjBgtoi.s:5073   .text._isatty:00000000 $t
     /tmp/ccjBgtoi.s:5079   .text._isatty:00000000 _isatty
     /tmp/ccjBgtoi.s:5098   .text._lseek:00000000 $t
     /tmp/ccjBgtoi.s:5104   .text._lseek:00000000 _lseek
ARM GAS  /tmp/ccjBgtoi.s 			page 208


     /tmp/ccjBgtoi.s:5125   .text._read:00000000 $t
     /tmp/ccjBgtoi.s:5131   .text._read:00000000 _read
     /tmp/ccjBgtoi.s:5152   .text._write:00000000 $t
     /tmp/ccjBgtoi.s:5158   .text._write:00000000 _write
     /tmp/ccjBgtoi.s:5178   .text._exit:00000000 $t
     /tmp/ccjBgtoi.s:5184   .text._exit:00000000 _exit
     /tmp/ccjBgtoi.s:5203   .text._kill:00000000 $t
     /tmp/ccjBgtoi.s:5209   .text._kill:00000000 _kill
     /tmp/ccjBgtoi.s:5238   .text._getpid:00000000 $t
     /tmp/ccjBgtoi.s:5244   .text._getpid:00000000 _getpid
     /tmp/ccjBgtoi.s:5259   .text.Error_Handler:00000000 $t
     /tmp/ccjBgtoi.s:5265   .text.Error_Handler:00000000 Error_Handler
     /tmp/ccjBgtoi.s:5328   .text.Error_Handler:00000024 $d
     /tmp/ccjBgtoi.s:5335   .text.system_clock_init:00000000 $t
     /tmp/ccjBgtoi.s:5341   .text.system_clock_init:00000000 system_clock_init
     /tmp/ccjBgtoi.s:5553   .text.system_clock_init:000000dc $d
     /tmp/ccjBgtoi.s:5560   .text.uart_init:00000000 $t
     /tmp/ccjBgtoi.s:5566   .text.uart_init:00000000 uart_init
     /tmp/ccjBgtoi.s:5663   .text.uart_init:00000060 $d
     /tmp/ccjBgtoi.s:5671   .text.adc_select_channel:00000000 $t
     /tmp/ccjBgtoi.s:5676   .text.adc_select_channel:00000000 adc_select_channel
     /tmp/ccjBgtoi.s:5739   .text.adc_select_channel:00000030 $d
     /tmp/ccjBgtoi.s:5744   .text.adc_joystick_start:00000000 $t
     /tmp/ccjBgtoi.s:5750   .text.adc_joystick_start:00000000 adc_joystick_start
     /tmp/ccjBgtoi.s:5778   .text.adc_joystick_start:00000014 $d
     /tmp/ccjBgtoi.s:7177   .bss.s_channel:00000000 s_channel
     /tmp/ccjBgtoi.s:5784   .text.HAL_TIM_PeriodElapsedCallback:00000000 $t
     /tmp/ccjBgtoi.s:5790   .text.HAL_TIM_PeriodElapsedCallback:00000000 HAL_TIM_PeriodElapsedCallback
     /tmp/ccjBgtoi.s:5840   .text.HAL_TIM_PeriodElapsedCallback:00000024 $d
     /tmp/ccjBgtoi.s:5846   .text.HAL_ADC_ConvCpltCallback:00000000 $t
     /tmp/ccjBgtoi.s:5852   .text.HAL_ADC_ConvCpltCallback:00000000 HAL_ADC_ConvCpltCallback
     /tmp/ccjBgtoi.s:5921   .text.HAL_ADC_ConvCpltCallback:00000040 $d
     /tmp/ccjBgtoi.s:5929   .text.adc_joystick_init:00000000 $t
     /tmp/ccjBgtoi.s:5935   .text.adc_joystick_init:00000000 adc_joystick_init
     /tmp/ccjBgtoi.s:6042   .text.adc_joystick_init:00000068 $d
     /tmp/ccjBgtoi.s:6050   .rodata.rtc_init.str1.4:00000000 $d
     /tmp/ccjBgtoi.s:6058   .text.rtc_init:00000000 $t
     /tmp/ccjBgtoi.s:6064   .text.rtc_init:00000000 rtc_init
     /tmp/ccjBgtoi.s:6352   .text.rtc_init:00000148 $d
     /tmp/ccjBgtoi.s:6363   .text.i2c_bus_init:00000000 $t
     /tmp/ccjBgtoi.s:6368   .text.i2c_bus_init:00000000 i2c_bus_init
     /tmp/ccjBgtoi.s:6452   .text.i2c_bus_init:00000048 $d
     /tmp/ccjBgtoi.s:6460   .rodata.lcd_init.str1.4:00000000 $d
     /tmp/ccjBgtoi.s:6470   .text.lcd_init:00000000 $t
     /tmp/ccjBgtoi.s:6476   .text.lcd_init:00000000 lcd_init
     /tmp/ccjBgtoi.s:6711   .text.lcd_init:00000104 $d
     /tmp/ccjBgtoi.s:6722   .text.timer_init:00000000 $t
     /tmp/ccjBgtoi.s:6728   .text.timer_init:00000000 timer_init
     /tmp/ccjBgtoi.s:6956   .text.timer_init:00000104 $d
     /tmp/ccjBgtoi.s:6965   .text.main:00000000 $t
     /tmp/ccjBgtoi.s:6971   .text.main:00000000 main
     /tmp/ccjBgtoi.s:7025   .bss.heap.0:00000000 $d
     /tmp/ccjBgtoi.s:7031   .bss.last.1:00000000 $d
     /tmp/ccjBgtoi.s:7037   .rodata.months.2:00000000 $d
     /tmp/ccjBgtoi.s:7043   .rodata.TXT_NO_MODE:00000000 $d
     /tmp/ccjBgtoi.s:7049   .rodata.TXT_MODE_Y:00000000 $d
     /tmp/ccjBgtoi.s:7055   .rodata.TXT_MODE_X:00000000 $d
ARM GAS  /tmp/ccjBgtoi.s 			page 209


     /tmp/ccjBgtoi.s:7061   .rodata.TXT_BANNER:00000000 $d
     /tmp/ccjBgtoi.s:7067   .bss.s_msg_timeout:00000000 $d
     /tmp/ccjBgtoi.s:7073   .bss.s_tick_scroll:00000000 $d
     /tmp/ccjBgtoi.s:7079   .bss.s_shadow:00000000 $d
     /tmp/ccjBgtoi.s:7085   .bss.s_scroll:00000000 $d
     /tmp/ccjBgtoi.s:7091   .bss.s_line2:00000000 $d
     /tmp/ccjBgtoi.s:7097   .bss.s_coord_y:00000000 $d
     /tmp/ccjBgtoi.s:7103   .bss.s_coord_x:00000000 $d
     /tmp/ccjBgtoi.s:7117   .bss.s_state:00000000 $d
     /tmp/ccjBgtoi.s:7122   .bss.s_evq_tail:00000000 $d
     /tmp/ccjBgtoi.s:7127   .bss.s_evq_head:00000000 $d
     /tmp/ccjBgtoi.s:7129   .bss.s_evq:00000000 $d
     /tmp/ccjBgtoi.s:7135   .rodata.s_row_offset:00000000 $d
     /tmp/ccjBgtoi.s:7141   .bss.s_errors:00000000 $d
     /tmp/ccjBgtoi.s:7150   .bss.s_present:00000000 $d
     /tmp/ccjBgtoi.s:7161   .bss.g_rtc_second_flag:00000000 $d
     /tmp/ccjBgtoi.s:7163   .data.s_raw_y:00000000 $d
     /tmp/ccjBgtoi.s:7169   .data.s_raw_x:00000000 $d
     /tmp/ccjBgtoi.s:7178   .bss.s_channel:00000000 $d
     /tmp/ccjBgtoi.s:7183   .bss.s_tx_current:00000000 $d
     /tmp/ccjBgtoi.s:7188   .bss.s_tx_busy:00000000 $d
     /tmp/ccjBgtoi.s:7190   .bss.s_tx_tail:00000000 $d
     /tmp/ccjBgtoi.s:7196   .bss.s_tx_head:00000000 $d
     /tmp/ccjBgtoi.s:7202   .bss.s_tx_buf:00000000 $d
     /tmp/ccjBgtoi.s:7211   .bss.s_rx_byte:00000000 $d
     /tmp/ccjBgtoi.s:7216   .bss.s_lse_ok:00000000 $d
     /tmp/ccjBgtoi.s:7218   .data.s_mco_freq:00000000 $d
     /tmp/ccjBgtoi.s:7230   .bss.htim4:00000000 $d
     /tmp/ccjBgtoi.s:7237   .bss.htim3:00000000 $d
     /tmp/ccjBgtoi.s:7244   .bss.hrtc:00000000 $d
     /tmp/ccjBgtoi.s:7251   .bss.hi2c1:00000000 $d
     /tmp/ccjBgtoi.s:7258   .bss.hadc1:00000000 $d
     /tmp/ccjBgtoi.s:7265   .bss.huart2:00000000 $d
     /tmp/ccjBgtoi.s:3545   .text.HAL_UART_RxCpltCallback:00000069 $d
     /tmp/ccjBgtoi.s:3545   .text.HAL_UART_RxCpltCallback:0000006a $t

UNDEFINED SYMBOLS
SystemCoreClock
HAL_UART_Transmit_IT
HAL_I2C_Master_Transmit
HAL_RCC_MCOConfig
HAL_RCC_GetSysClockFreq
HAL_GPIO_WritePin
HAL_GPIO_Init
HAL_NVIC_SetPriority
HAL_NVIC_EnableIRQ
HAL_GPIO_TogglePin
HAL_UART_Receive_IT
HAL_RTC_GetTime
HAL_RTC_GetDate
snprintf
HAL_I2C_IsDeviceReady
HAL_Delay
strncmp
strlen
HAL_IncTick
HAL_UART_IRQHandler
ARM GAS  /tmp/ccjBgtoi.s 			page 210


HAL_ADC_IRQHandler
HAL_TIM_IRQHandler
HAL_GPIO_EXTI_IRQHandler
HAL_RTCEx_WakeUpTimerIRQHandler
HAL_GetTick
_end
__errno
memset
HAL_PWR_EnableBkUpAccess
HAL_RCC_OscConfig
HAL_RCC_ClockConfig
SystemCoreClockUpdate
HAL_InitTick
HAL_UART_Init
HAL_ADC_ConfigChannel
HAL_ADC_Start_IT
HAL_ADC_GetValue
HAL_ADC_Init
HAL_RCCEx_PeriphCLKConfig
HAL_RTC_Init
HAL_RTCEx_BKUPRead
HAL_RTC_SetTime
HAL_RTC_SetDate
HAL_RTCEx_BKUPWrite
HAL_RTCEx_DeactivateWakeUpTimer
HAL_RTCEx_SetWakeUpTimer_IT
HAL_I2C_Init
HAL_TIM_Base_Init
HAL_TIM_ConfigClockSource
HAL_TIMEx_MasterConfigSynchronization
HAL_TIM_Base_Start_IT
HAL_Init
HAL_NVIC_SetPriorityGrouping
