ARM GAS  /tmp/ccjBgtoi.s 			page 1


   1              		.cpu cortex-m4
   2              		.arch armv7e-m
   3              		.fpu fpv4-sp-d16
   4              		.eabi_attribute 27, 1
   5              		.eabi_attribute 28, 1
   6              		.eabi_attribute 20, 1
   7              		.eabi_attribute 21, 1
   8              		.eabi_attribute 23, 3
   9              		.eabi_attribute 24, 1
  10              		.eabi_attribute 25, 1
  11              		.eabi_attribute 26, 1
  12              		.eabi_attribute 30, 1
  13              		.eabi_attribute 34, 1
  14              		.eabi_attribute 18, 4
  15              		.file	"main_unique.c"
  16              		.text
  17              	.Ltext0:
  18              		.cfi_sections	.debug_frame
  19              		.file 1 "Core/Src/main_unique.c"
  20              		.section	.text.adc_dir,"ax",%progbits
  21              		.align	1
  22              		.syntax unified
  23              		.thumb
  24              		.thumb_func
  26              	adc_dir:
  27              	.LVL0:
  28              	.LFB290:
   1:Core/Src/main_unique.c **** /*
   2:Core/Src/main_unique.c ****  * main_unique.c
   3:Core/Src/main_unique.c ****  * VERSION MONOLITICA del proyecto: contiene TODAS las funciones propias del
   4:Core/Src/main_unique.c ****  * firmware en un unico archivo, sin depender de ningun otro .c ni de las
   5:Core/Src/main_unique.c ****  * cabeceras de Core/Inc.
   6:Core/Src/main_unique.c ****  *
   7:Core/Src/main_unique.c ****  * PARCIAL TALLER V 2026-1 - DANIEL VARGAS - UNAL
   8:Core/Src/main_unique.c ****  * Plataforma: STM32 Nucleo-F411RE (STM32F411RET6)
   9:Core/Src/main_unique.c ****  *
  10:Core/Src/main_unique.c ****  * Que incluye este archivo (equivalente a la suma de los modulos separados):
  11:Core/Src/main_unique.c ****  *   system_clock  : arbol de relojes a 100 MHz, LSE y salida MCO1 (PA8)
  12:Core/Src/main_unique.c ****  *   gpio          : LED en PH1 y pulsador del joystick en PB5
  13:Core/Src/main_unique.c ****  *   timer         : TIM3 (250 ms, LED) y TIM4 (100 ms, base del sistema)
  14:Core/Src/main_unique.c ****  *   uart          : USART2 a 115200 por interrupciones, con buffer circular
  15:Core/Src/main_unique.c ****  *   adc_joystick  : ADC1 sobre PA0/PA1 por interrupciones
  16:Core/Src/main_unique.c ****  *   rtc           : RTC con LSE y despertador de 1 s
  17:Core/Src/main_unique.c ****  *   i2c_lcd       : LCD HD44780 via PCF8574 sobre I2C1
  18:Core/Src/main_unique.c ****  *   fsm           : maquina de estados y logica de presentacion
  19:Core/Src/main_unique.c ****  *   hal_msp       : configuracion fisica de pines de cada periferico
  20:Core/Src/main_unique.c ****  *   stm32f4xx_it  : rutinas de servicio de interrupcion
  21:Core/Src/main_unique.c ****  *   syscalls      : stubs minimos que exige newlib
  22:Core/Src/main_unique.c ****  *   main          : arranque y bucle principal
  23:Core/Src/main_unique.c ****  *
  24:Core/Src/main_unique.c ****  * Lo unico que queda fuera son las bibliotecas de terceros que el proyecto
  25:Core/Src/main_unique.c ****  * usa tal cual: los drivers HAL de ST, el CMSIS y el startup en ensamblador.
  26:Core/Src/main_unique.c ****  *
  27:Core/Src/main_unique.c ****  * COMPILACION
  28:Core/Src/main_unique.c ****  *   Este archivo es ALTERNATIVO a los modulos separados: define los mismos
  29:Core/Src/main_unique.c ****  *   simbolos, de modo que NO puede enlazarse junto a ellos (habria duplicados).
  30:Core/Src/main_unique.c ****  *   El Makefile lo contempla con la variable UNIQUE:
ARM GAS  /tmp/ccjBgtoi.s 			page 2


  31:Core/Src/main_unique.c ****  *
  32:Core/Src/main_unique.c ****  *       make            -> compila la version modular (por defecto)
  33:Core/Src/main_unique.c ****  *       make UNIQUE=1   -> compila unicamente este archivo
  34:Core/Src/main_unique.c ****  *
  35:Core/Src/main_unique.c ****  *   O de forma manual, sustituyendo los .c de Core/Src (salvo este) por
  36:Core/Src/main_unique.c ****  *   Core/Src/main_unique.c en la lista C_SOURCES.
  37:Core/Src/main_unique.c ****  */
  38:Core/Src/main_unique.c **** 
  39:Core/Src/main_unique.c **** /* ==========================================================================
  40:Core/Src/main_unique.c ****  * 0. Inclusiones: solo bibliotecas externas, ninguna cabecera del proyecto
  41:Core/Src/main_unique.c ****  * ========================================================================== */
  42:Core/Src/main_unique.c **** #include "stm32f4xx_hal.h"   /* API de la libreria HAL para la familia F4   */
  43:Core/Src/main_unique.c **** #include <stdint.h>          /* tipos enteros de ancho fijo: uint8_t, etc.  */
  44:Core/Src/main_unique.c **** #include <string.h>          /* memcpy, strlen, strncmp                     */
  45:Core/Src/main_unique.c **** #include <stdio.h>           /* snprintf para formatear cadenas             */
  46:Core/Src/main_unique.c **** #include <sys/stat.h>        /* struct stat, requerida por _fstat           */
  47:Core/Src/main_unique.c **** #include <errno.h>           /* EINVAL, requerido por _kill                 */
  48:Core/Src/main_unique.c **** 
  49:Core/Src/main_unique.c **** /* ==========================================================================
  50:Core/Src/main_unique.c ****  * 1. Constantes de configuracion (antes repartidas por Core/Inc)
  51:Core/Src/main_unique.c ****  * ========================================================================== */
  52:Core/Src/main_unique.c **** 
  53:Core/Src/main_unique.c **** /* --- GPIO: LED de actividad ---------------------------------------------- */
  54:Core/Src/main_unique.c **** #define LED_GPIO_PORT      GPIOH          /* puerto del LED                 */
  55:Core/Src/main_unique.c **** #define LED_PIN            GPIO_PIN_1     /* PH1, impuesto por el enunciado */
  56:Core/Src/main_unique.c **** 
  57:Core/Src/main_unique.c **** /* --- GPIO: pulsador integrado del joystick ------------------------------- */
  58:Core/Src/main_unique.c **** #define JOY_SW_GPIO_PORT   GPIOB          /* puerto del pulsador            */
  59:Core/Src/main_unique.c **** #define JOY_SW_PIN         GPIO_PIN_5     /* PB5 = D4 en el conector Arduino */
  60:Core/Src/main_unique.c **** #define JOY_SW_EXTI_IRQn   EXTI9_5_IRQn   /* las lineas EXTI5..9 comparten IRQ */
  61:Core/Src/main_unique.c **** 
  62:Core/Src/main_unique.c **** /* --- UART ----------------------------------------------------------------- */
  63:Core/Src/main_unique.c **** #define UART_TX_BUF_SIZE   512U           /* potencia de 2: modulo barato    */
  64:Core/Src/main_unique.c **** 
  65:Core/Src/main_unique.c **** /* --- ADC / joystick ------------------------------------------------------- */
  66:Core/Src/main_unique.c **** /* Umbrales sobre la escala de 12 bits (0..4095) del ADC. El centro mecanico
  67:Core/Src/main_unique.c ****    queda proximo a 2048; la banda muerta evita que el ruido genere movimiento. */
  68:Core/Src/main_unique.c **** #define JOY_CENTER         2048U
  69:Core/Src/main_unique.c **** #define JOY_DEADZONE        600U          /* +-600 cuentas alrededor del centro */
  70:Core/Src/main_unique.c **** 
  71:Core/Src/main_unique.c **** /* --- RTC ------------------------------------------------------------------ */
  72:Core/Src/main_unique.c **** /* Firma escrita en el registro de respaldo tras la primera inicializacion:
  73:Core/Src/main_unique.c ****    permite saber si el RTC ya estaba en hora y no reescribirla en cada arranque. */
  74:Core/Src/main_unique.c **** #define RTC_BACKUP_SIGNATURE   0x32F2A5C3U
  75:Core/Src/main_unique.c **** 
  76:Core/Src/main_unique.c **** /* --- LCD ------------------------------------------------------------------ */
  77:Core/Src/main_unique.c **** #define LCD_COLS           20U
  78:Core/Src/main_unique.c **** #define LCD_ROWS            4U
  79:Core/Src/main_unique.c **** 
  80:Core/Src/main_unique.c **** /* ==========================================================================
  81:Core/Src/main_unique.c ****  * 2. Tipos propios del proyecto
  82:Core/Src/main_unique.c ****  * ========================================================================== */
  83:Core/Src/main_unique.c **** 
  84:Core/Src/main_unique.c **** /*
  85:Core/Src/main_unique.c ****  * mco_src_t: fuentes seleccionables para la salida MCO1 (PA8).
  86:Core/Src/main_unique.c ****  */
  87:Core/Src/main_unique.c **** typedef enum {
ARM GAS  /tmp/ccjBgtoi.s 			page 3


  88:Core/Src/main_unique.c ****     MCO_SRC_HSI = 0,   /* oscilador interno de alta velocidad, 16 MHz     */
  89:Core/Src/main_unique.c ****     MCO_SRC_LSE,       /* cristal externo de baja velocidad, 32.768 kHz   */
  90:Core/Src/main_unique.c ****     MCO_SRC_PLL,       /* salida del PLL principal, 100 MHz               */
  91:Core/Src/main_unique.c ****     MCO_SRC_COUNT      /* numero de fuentes (util para validar indices)   */
  92:Core/Src/main_unique.c **** } mco_src_t;
  93:Core/Src/main_unique.c **** 
  94:Core/Src/main_unique.c **** /*
  95:Core/Src/main_unique.c ****  * Estados de la maquina de estados.
  96:Core/Src/main_unique.c ****  *   ST_INIT    : arranque; mensaje de bienvenida.
  97:Core/Src/main_unique.c ****  *   ST_IDLE    : sin modo seleccionado; la linea 2 muestra el texto movil.
  98:Core/Src/main_unique.c ****  *   ST_MODE_X  : modo X activo.       ST_MODE_Y : modo Y activo.
  99:Core/Src/main_unique.c ****  *   ST_MESSAGE : mensaje temporal; al expirar se vuelve al estado guardado.
 100:Core/Src/main_unique.c ****  *   ST_ERROR   : fallo irrecuperable de un periferico.
 101:Core/Src/main_unique.c ****  */
 102:Core/Src/main_unique.c **** typedef enum {
 103:Core/Src/main_unique.c ****     ST_INIT = 0,
 104:Core/Src/main_unique.c ****     ST_IDLE,
 105:Core/Src/main_unique.c ****     ST_MODE_X,
 106:Core/Src/main_unique.c ****     ST_MODE_Y,
 107:Core/Src/main_unique.c ****     ST_MESSAGE,
 108:Core/Src/main_unique.c ****     ST_ERROR,
 109:Core/Src/main_unique.c ****     ST_COUNT
 110:Core/Src/main_unique.c **** } fsm_state_t;
 111:Core/Src/main_unique.c **** 
 112:Core/Src/main_unique.c **** /* Eventos que consume la maquina de estados */
 113:Core/Src/main_unique.c **** typedef enum {
 114:Core/Src/main_unique.c ****     EV_NONE = 0,
 115:Core/Src/main_unique.c ****     EV_CMD_CLEAR,      /* 'c' recibido por UART                      */
 116:Core/Src/main_unique.c ****     EV_CMD_MODE_X,     /* 'x' recibido por UART                      */
 117:Core/Src/main_unique.c ****     EV_CMD_MODE_Y,     /* 'y' recibido por UART                      */
 118:Core/Src/main_unique.c ****     EV_CMD_INC,        /* '+' recibido por UART                      */
 119:Core/Src/main_unique.c ****     EV_CMD_DEC,        /* '-' recibido por UART                      */
 120:Core/Src/main_unique.c ****     EV_CMD_MCO_HSI,    /* 'h' recibido por UART                      */
 121:Core/Src/main_unique.c ****     EV_CMD_MCO_LSE,    /* 'l' recibido por UART                      */
 122:Core/Src/main_unique.c ****     EV_CMD_MCO_PLL,    /* 'p' recibido por UART                      */
 123:Core/Src/main_unique.c ****     EV_CMD_HELP,       /* '?' recibido por UART                      */
 124:Core/Src/main_unique.c ****     EV_CMD_DIAG,       /* 'd': informe de estado de los perifericos  */
 125:Core/Src/main_unique.c ****     EV_CMD_SCAN,       /* 's': sondeo completo del bus I2C           */
 126:Core/Src/main_unique.c ****     EV_BUTTON,         /* pulsador del joystick (EXTI)               */
 127:Core/Src/main_unique.c ****     EV_TICK_100MS,     /* desbordamiento de TIM4                     */
 128:Core/Src/main_unique.c ****     EV_SECOND,         /* despertador del RTC, una vez por segundo   */
 129:Core/Src/main_unique.c ****     EV_COUNT
 130:Core/Src/main_unique.c **** } fsm_event_t;
 131:Core/Src/main_unique.c **** 
 132:Core/Src/main_unique.c **** /* ==========================================================================
 133:Core/Src/main_unique.c ****  * 3. Manejadores globales de periferico
 134:Core/Src/main_unique.c ****  *    Son globales porque las ISR y varios modulos necesitan alcanzarlos.
 135:Core/Src/main_unique.c ****  * ========================================================================== */
 136:Core/Src/main_unique.c **** UART_HandleTypeDef huart2;
 137:Core/Src/main_unique.c **** ADC_HandleTypeDef  hadc1;
 138:Core/Src/main_unique.c **** I2C_HandleTypeDef  hi2c1;
 139:Core/Src/main_unique.c **** RTC_HandleTypeDef  hrtc;
 140:Core/Src/main_unique.c **** TIM_HandleTypeDef  htim3;   /* base de 250 ms para el LED */
 141:Core/Src/main_unique.c **** TIM_HandleTypeDef  htim4;   /* base de 100 ms del sistema */
 142:Core/Src/main_unique.c **** 
 143:Core/Src/main_unique.c **** /* ==========================================================================
 144:Core/Src/main_unique.c ****  * 4. Prototipos
ARM GAS  /tmp/ccjBgtoi.s 			page 4


 145:Core/Src/main_unique.c ****  *    Al no haber cabeceras, se declaran aqui todas las funciones para que el
 146:Core/Src/main_unique.c ****  *    orden de definicion dentro del archivo no imponga restricciones.
 147:Core/Src/main_unique.c ****  * ========================================================================== */
 148:Core/Src/main_unique.c **** 
 149:Core/Src/main_unique.c **** /* --- comun --------------------------------------------------------------- */
 150:Core/Src/main_unique.c **** void        Error_Handler(void);
 151:Core/Src/main_unique.c **** 
 152:Core/Src/main_unique.c **** /* --- system_clock -------------------------------------------------------- */
 153:Core/Src/main_unique.c **** void        system_clock_init(void);
 154:Core/Src/main_unique.c **** void        system_clock_mco_set(mco_src_t src);
 155:Core/Src/main_unique.c **** mco_src_t   system_clock_mco_get(void);
 156:Core/Src/main_unique.c **** const char *system_clock_mco_label(void);
 157:Core/Src/main_unique.c **** uint32_t    system_clock_mco_freq(void);
 158:Core/Src/main_unique.c **** uint8_t     system_clock_lse_ok(void);
 159:Core/Src/main_unique.c **** 
 160:Core/Src/main_unique.c **** /* --- gpio ---------------------------------------------------------------- */
 161:Core/Src/main_unique.c **** void        gpio_init(void);
 162:Core/Src/main_unique.c **** void        gpio_led_toggle(void);
 163:Core/Src/main_unique.c **** void        gpio_led_write(uint8_t on);
 164:Core/Src/main_unique.c **** 
 165:Core/Src/main_unique.c **** /* --- uart ---------------------------------------------------------------- */
 166:Core/Src/main_unique.c **** void        uart_init(void);
 167:Core/Src/main_unique.c **** void        uart_send(const char *s);
 168:Core/Src/main_unique.c **** void        uart_send_line(const char *s);
 169:Core/Src/main_unique.c **** 
 170:Core/Src/main_unique.c **** /* --- adc_joystick -------------------------------------------------------- */
 171:Core/Src/main_unique.c **** void        adc_joystick_init(void);
 172:Core/Src/main_unique.c **** void        adc_joystick_start(void);
 173:Core/Src/main_unique.c **** uint16_t    adc_joystick_raw_x(void);
 174:Core/Src/main_unique.c **** uint16_t    adc_joystick_raw_y(void);
 175:Core/Src/main_unique.c **** int8_t      adc_joystick_dir_x(void);
 176:Core/Src/main_unique.c **** int8_t      adc_joystick_dir_y(void);
 177:Core/Src/main_unique.c **** 
 178:Core/Src/main_unique.c **** /* --- rtc ----------------------------------------------------------------- */
 179:Core/Src/main_unique.c **** void        rtc_init(void);
 180:Core/Src/main_unique.c **** void        rtc_get_time(RTC_TimeTypeDef *t, RTC_DateTypeDef *d);
 181:Core/Src/main_unique.c **** void        rtc_format_line(char *dst, uint8_t len);
 182:Core/Src/main_unique.c **** 
 183:Core/Src/main_unique.c **** /* --- i2c_lcd ------------------------------------------------------------- */
 184:Core/Src/main_unique.c **** void        lcd_init(void);
 185:Core/Src/main_unique.c **** void        lcd_clear(void);
 186:Core/Src/main_unique.c **** void        lcd_set_cursor(uint8_t row, uint8_t col);
 187:Core/Src/main_unique.c **** void        lcd_print(const char *s);
 188:Core/Src/main_unique.c **** void        lcd_print_line(uint8_t row, const char *s);
 189:Core/Src/main_unique.c **** uint8_t     lcd_is_present(void);
 190:Core/Src/main_unique.c **** uint8_t     lcd_address(void);
 191:Core/Src/main_unique.c **** uint32_t    lcd_error_count(void);
 192:Core/Src/main_unique.c **** void        lcd_bus_scan_report(void);
 193:Core/Src/main_unique.c **** 
 194:Core/Src/main_unique.c **** /* --- timer --------------------------------------------------------------- */
 195:Core/Src/main_unique.c **** void        timer_init(void);
 196:Core/Src/main_unique.c **** 
 197:Core/Src/main_unique.c **** /* --- fsm ----------------------------------------------------------------- */
 198:Core/Src/main_unique.c **** void        fsm_init(void);
 199:Core/Src/main_unique.c **** void        fsm_post_event(fsm_event_t ev);
 200:Core/Src/main_unique.c **** void        fsm_run(void);
 201:Core/Src/main_unique.c **** fsm_state_t fsm_get_state(void);
ARM GAS  /tmp/ccjBgtoi.s 			page 5


 202:Core/Src/main_unique.c **** 
 203:Core/Src/main_unique.c **** /* --- rutinas de servicio de interrupcion (nombres fijados por el startup) - */
 204:Core/Src/main_unique.c **** /*
 205:Core/Src/main_unique.c **** void NMI_Handler(void);
 206:Core/Src/main_unique.c **** void HardFault_Handler(void);
 207:Core/Src/main_unique.c **** void MemManage_Handler(void);
 208:Core/Src/main_unique.c **** void BusFault_Handler(void);
 209:Core/Src/main_unique.c **** void UsageFault_Handler(void);
 210:Core/Src/main_unique.c **** void SVC_Handler(void);
 211:Core/Src/main_unique.c **** void DebugMon_Handler(void);
 212:Core/Src/main_unique.c **** void PendSV_Handler(void);
 213:Core/Src/main_unique.c **** */
 214:Core/Src/main_unique.c **** void SysTick_Handler(void);
 215:Core/Src/main_unique.c **** void USART2_IRQHandler(void);
 216:Core/Src/main_unique.c **** void ADC_IRQHandler(void);
 217:Core/Src/main_unique.c **** void TIM3_IRQHandler(void);
 218:Core/Src/main_unique.c **** void TIM4_IRQHandler(void);
 219:Core/Src/main_unique.c **** void EXTI9_5_IRQHandler(void);
 220:Core/Src/main_unique.c **** void RTC_WKUP_IRQHandler(void);
 221:Core/Src/main_unique.c **** 
 222:Core/Src/main_unique.c **** /* ==========================================================================
 223:Core/Src/main_unique.c ****  * 5. MODULO system_clock
 224:Core/Src/main_unique.c ****  *
 225:Core/Src/main_unique.c ****  * Cadena de reloj implementada:
 226:Core/Src/main_unique.c ****  *
 227:Core/Src/main_unique.c ****  *   HSI (16 MHz) --> /PLLM=8 --> 2 MHz --> xPLLN=100 --> VCO 200 MHz
 228:Core/Src/main_unique.c ****  *                                                  --> /PLLP=2 --> 100 MHz = SYSCLK
 229:Core/Src/main_unique.c ****  *
 230:Core/Src/main_unique.c ****  *   AHB  = SYSCLK / 1 = 100 MHz   (limite del F411: 100 MHz)
 231:Core/Src/main_unique.c ****  *   APB1 = SYSCLK / 2 =  50 MHz   (limite del F411:  50 MHz)
 232:Core/Src/main_unique.c ****  *   APB2 = SYSCLK / 1 = 100 MHz   (limite del F411: 100 MHz)
 233:Core/Src/main_unique.c ****  *
 234:Core/Src/main_unique.c ****  * Se elige HSI y no HSE como fuente del PLL por dos razones:
 235:Core/Src/main_unique.c ****  *   1. El LED exigido esta en PH1, que es el pin OSC_OUT del HSE. Usando HSI
 236:Core/Src/main_unique.c ****  *      el puerto GPIOH queda completamente libre.
 237:Core/Src/main_unique.c ****  *   2. En la Nucleo-F411RE el HSE proviene del MCO del ST-LINK (8 MHz) y
 238:Core/Src/main_unique.c ****  *      depende de la configuracion de los puentes SB54/SB55.
 239:Core/Src/main_unique.c ****  * ========================================================================== */
 240:Core/Src/main_unique.c **** 
 241:Core/Src/main_unique.c **** /* Fuente actualmente enrutada a MCO1 */
 242:Core/Src/main_unique.c **** static mco_src_t s_mco_src  = MCO_SRC_PLL;
 243:Core/Src/main_unique.c **** 
 244:Core/Src/main_unique.c **** /* Frecuencia real medida en PA8 tras aplicar el prescaler, en hercios */
 245:Core/Src/main_unique.c **** static uint32_t  s_mco_freq = 20000000U;
 246:Core/Src/main_unique.c **** 
 247:Core/Src/main_unique.c **** /* 1 si el cristal LSE arranco correctamente; 0 si no esta montado o no oscila */
 248:Core/Src/main_unique.c **** static uint8_t   s_lse_ok   = 0;
 249:Core/Src/main_unique.c **** 
 250:Core/Src/main_unique.c **** /*
 251:Core/Src/main_unique.c ****  * system_clock_init
 252:Core/Src/main_unique.c ****  * Configura la alimentacion, la latencia de FLASH, los osciladores y los buses.
 253:Core/Src/main_unique.c ****  * Debe llamarse inmediatamente despues de HAL_Init() y antes de cualquier
 254:Core/Src/main_unique.c ****  * inicializacion de periferico.
 255:Core/Src/main_unique.c ****  */
 256:Core/Src/main_unique.c **** void system_clock_init(void)
 257:Core/Src/main_unique.c **** {
 258:Core/Src/main_unique.c ****     RCC_OscInitTypeDef osc = {0};   /* configuracion de osciladores */
ARM GAS  /tmp/ccjBgtoi.s 			page 6


 259:Core/Src/main_unique.c ****     RCC_ClkInitTypeDef clk = {0};   /* configuracion de buses       */
 260:Core/Src/main_unique.c **** 
 261:Core/Src/main_unique.c ****     /* --- 1. Alimentacion del regulador interno -------------------------- */
 262:Core/Src/main_unique.c ****     /* Habilita el reloj del bloque PWR: sin el no se puede escribir en PWR->CR */
 263:Core/Src/main_unique.c ****     __HAL_RCC_PWR_CLK_ENABLE();
 264:Core/Src/main_unique.c **** 
 265:Core/Src/main_unique.c ****     /* Escala de voltaje 1: unica que admite 100 MHz en el F411.
 266:Core/Src/main_unique.c ****        Alternativas: SCALE2 (hasta 84 MHz) y SCALE3 (hasta 64 MHz), que
 267:Core/Src/main_unique.c ****        consumen menos corriente pero limitan la frecuencia maxima. */
 268:Core/Src/main_unique.c ****     __HAL_PWR_VOLTAGESCALING_CONFIG(PWR_REGULATOR_VOLTAGE_SCALE1);
 269:Core/Src/main_unique.c **** 
 270:Core/Src/main_unique.c ****     /* Permite escribir en el dominio de respaldo (Backup Domain), necesario
 271:Core/Src/main_unique.c ****        para arrancar el LSE y para configurar el RTC. */
 272:Core/Src/main_unique.c ****     HAL_PWR_EnableBkUpAccess();
 273:Core/Src/main_unique.c **** 
 274:Core/Src/main_unique.c ****     /* --- 2. Oscilador HSI y PLL (critico) ------------------------------- */
 275:Core/Src/main_unique.c ****     /* El LSE se configura APARTE, mas abajo. Motivo: muchas placas
 276:Core/Src/main_unique.c ****        NUCLEO-F411RE se sirven sin el cristal X2 de 32.768 kHz montado. Si el
 277:Core/Src/main_unique.c ****        LSE se configurase en la misma llamada, su fallo abortaria tambien la
 278:Core/Src/main_unique.c ****        configuracion del PLL y el sistema entero quedaria detenido en
 279:Core/Src/main_unique.c ****        Error_Handler, sin LCD, sin UART y sin LED de 250 ms. */
 280:Core/Src/main_unique.c ****     osc.OscillatorType      = RCC_OSCILLATORTYPE_HSI;
 281:Core/Src/main_unique.c ****     osc.HSIState            = RCC_HSI_ON;                 /* enciende el HSI  */
 282:Core/Src/main_unique.c ****     osc.HSICalibrationValue = RCC_HSICALIBRATION_DEFAULT; /* trim de fabrica  */
 283:Core/Src/main_unique.c **** 
 284:Core/Src/main_unique.c ****     osc.PLL.PLLState  = RCC_PLL_ON;              /* activa el PLL       */
 285:Core/Src/main_unique.c ****     osc.PLL.PLLSource = RCC_PLLSOURCE_HSI;       /* entrada del PLL     */
 286:Core/Src/main_unique.c ****     osc.PLL.PLLM      = 8U;    /* divisor de entrada: 16 MHz / 8 = 2 MHz.
 287:Core/Src/main_unique.c ****                                   La entrada al VCO debe quedar entre
 288:Core/Src/main_unique.c ****                                   1 y 2 MHz; 2 MHz minimiza el jitter */
 289:Core/Src/main_unique.c ****     osc.PLL.PLLN      = 100U;  /* multiplicador: 2 MHz * 100 = 200 MHz.
 290:Core/Src/main_unique.c ****                                   El VCO debe quedar entre 100 y 432 MHz */
 291:Core/Src/main_unique.c ****     osc.PLL.PLLP      = RCC_PLLP_DIV2; /* 200 MHz / 2 = 100 MHz = SYSCLK.
 292:Core/Src/main_unique.c ****                                   Valores posibles: DIV2, DIV4, DIV6, DIV8 */
 293:Core/Src/main_unique.c ****     osc.PLL.PLLQ      = 4U;    /* rama para USB/SDIO: 200 MHz / 4 = 50 MHz.
 294:Core/Src/main_unique.c ****                                   No se usa en este proyecto, pero la HAL
 295:Core/Src/main_unique.c ****                                   exige un valor valido (2..15) */
 296:Core/Src/main_unique.c **** 
 297:Core/Src/main_unique.c ****     if (HAL_RCC_OscConfig(&osc) != HAL_OK) {
 298:Core/Src/main_unique.c ****         Error_Handler();       /* fallo del PLL: este si es irrecuperable */
 299:Core/Src/main_unique.c ****     }
 300:Core/Src/main_unique.c **** 
 301:Core/Src/main_unique.c ****     /* --- 3. Buses del sistema ------------------------------------------- */
 302:Core/Src/main_unique.c ****     /* Se indican los cuatro relojes que se van a modificar */
 303:Core/Src/main_unique.c ****     clk.ClockType      = RCC_CLOCKTYPE_HCLK  | RCC_CLOCKTYPE_SYSCLK |
 304:Core/Src/main_unique.c ****                          RCC_CLOCKTYPE_PCLK1 | RCC_CLOCKTYPE_PCLK2;
 305:Core/Src/main_unique.c ****     clk.SYSCLKSource   = RCC_SYSCLKSOURCE_PLLCLK; /* el PLL alimenta el sistema */
 306:Core/Src/main_unique.c ****     clk.AHBCLKDivider  = RCC_SYSCLK_DIV1;         /* HCLK  = 100 MHz            */
 307:Core/Src/main_unique.c ****     clk.APB1CLKDivider = RCC_HCLK_DIV2;           /* PCLK1 =  50 MHz (maximo)   */
 308:Core/Src/main_unique.c ****     clk.APB2CLKDivider = RCC_HCLK_DIV1;           /* PCLK2 = 100 MHz            */
 309:Core/Src/main_unique.c **** 
 310:Core/Src/main_unique.c ****     /* FLASH_LATENCY_3 = 3 estados de espera.
 311:Core/Src/main_unique.c ****        A 3.3 V la FLASH admite 30 MHz por estado de espera:
 312:Core/Src/main_unique.c ****          0 WS <= 30 MHz, 1 WS <= 60 MHz, 2 WS <= 90 MHz, 3 WS <= 100 MHz.
 313:Core/Src/main_unique.c ****        Un valor menor al necesario provoca lecturas erroneas de instrucciones. */
 314:Core/Src/main_unique.c ****     if (HAL_RCC_ClockConfig(&clk, FLASH_LATENCY_3) != HAL_OK) {
 315:Core/Src/main_unique.c ****         Error_Handler();
ARM GAS  /tmp/ccjBgtoi.s 			page 7


 316:Core/Src/main_unique.c ****     }
 317:Core/Src/main_unique.c **** 
 318:Core/Src/main_unique.c ****     /* Actualiza la variable global SystemCoreClock y reprograma el SysTick
 319:Core/Src/main_unique.c ****        para que siga generando interrupciones cada 1 ms con el nuevo HCLK. */
 320:Core/Src/main_unique.c ****     SystemCoreClockUpdate();
 321:Core/Src/main_unique.c ****     HAL_InitTick(TICK_INT_PRIORITY);
 322:Core/Src/main_unique.c **** 
 323:Core/Src/main_unique.c ****     /* --- 4. Cristal LSE de 32.768 kHz (NO critico) ----------------------- */
 324:Core/Src/main_unique.c ****     /* Se intenta arrancar por separado. Si el cristal no esta montado o no
 325:Core/Src/main_unique.c ****        oscila, la llamada agota LSE_STARTUP_TIMEOUT (5 s por defecto) y
 326:Core/Src/main_unique.c ****        devuelve error, pero el sistema CONTINUA: el RTC recurrira al LSI y el
 327:Core/Src/main_unique.c ****        resto de funciones queda intacto. El diagnostico se emite por UART. */
 328:Core/Src/main_unique.c ****     osc.OscillatorType = RCC_OSCILLATORTYPE_LSE;
 329:Core/Src/main_unique.c ****     osc.PLL.PLLState   = RCC_PLL_NONE;   /* no volver a tocar el PLL ya activo */
 330:Core/Src/main_unique.c ****     osc.LSEState       = RCC_LSE_ON;
 331:Core/Src/main_unique.c ****     /* Alternativa: RCC_LSE_BYPASS si se inyecta un reloj externo ya generado */
 332:Core/Src/main_unique.c **** 
 333:Core/Src/main_unique.c ****     s_lse_ok = (HAL_RCC_OscConfig(&osc) == HAL_OK) ? 1U : 0U;
 334:Core/Src/main_unique.c **** 
 335:Core/Src/main_unique.c ****     if (!s_lse_ok) {
 336:Core/Src/main_unique.c ****         /* Reserva: oscilador interno de baja velocidad. Permite que el RTC
 337:Core/Src/main_unique.c ****            siga contando y que el equipo sea diagnosticable, pero NO cumple el
 338:Core/Src/main_unique.c ****            enunciado: el LSI se detiene al desaparecer VDD, de modo que la
 339:Core/Src/main_unique.c ****            hora no sobrevive a la perdida de alimentacion. La causa debe
 340:Core/Src/main_unique.c ****            corregirse en el hardware (cristal X2 y puentes SB48/SB49). */
 341:Core/Src/main_unique.c ****         osc.OscillatorType = RCC_OSCILLATORTYPE_LSI;
 342:Core/Src/main_unique.c ****         osc.PLL.PLLState   = RCC_PLL_NONE;
 343:Core/Src/main_unique.c ****         osc.LSIState       = RCC_LSI_ON;
 344:Core/Src/main_unique.c ****         HAL_RCC_OscConfig(&osc);
 345:Core/Src/main_unique.c ****     }
 346:Core/Src/main_unique.c **** 
 347:Core/Src/main_unique.c ****     /* --- 5. Salida MCO1 por defecto ------------------------------------- */
 348:Core/Src/main_unique.c ****     system_clock_mco_set(MCO_SRC_PLL);
 349:Core/Src/main_unique.c **** }
 350:Core/Src/main_unique.c **** 
 351:Core/Src/main_unique.c **** /*
 352:Core/Src/main_unique.c ****  * system_clock_mco_set
 353:Core/Src/main_unique.c ****  * Enruta la fuente indicada al pin PA8 (MCO1) con el mejor prescaler posible.
 354:Core/Src/main_unique.c ****  *
 355:Core/Src/main_unique.c ****  * Criterio de "mejor prescaler": la menor division que mantenga la senal
 356:Core/Src/main_unique.c ****  * medible con un osciloscopio o analizador logico corriente.
 357:Core/Src/main_unique.c ****  *   - HSI 16 MHz     -> /1 = 16 MHz     (sin division, se observa integra)
 358:Core/Src/main_unique.c ****  *   - LSE 32.768 kHz -> /1 = 32.768 kHz (dividirla la haria irreconocible)
 359:Core/Src/main_unique.c ****  *   - PLL 100 MHz    -> /5 = 20 MHz     (/5 es la maxima division disponible;
 360:Core/Src/main_unique.c ****  *                                        reduce el slew rate exigido al pin y
 361:Core/Src/main_unique.c ****  *                                        evita el deterioro del flanco que
 362:Core/Src/main_unique.c ****  *                                        presenta la salida directa a 100 MHz)
 363:Core/Src/main_unique.c ****  *
 364:Core/Src/main_unique.c ****  * HAL_RCC_MCOConfig se encarga internamente de habilitar el reloj de GPIOA y
 365:Core/Src/main_unique.c ****  * de configurar PA8 como funcion alternativa AF0 a muy alta velocidad.
 366:Core/Src/main_unique.c ****  */
 367:Core/Src/main_unique.c **** void system_clock_mco_set(mco_src_t src)
 368:Core/Src/main_unique.c **** {
 369:Core/Src/main_unique.c ****     switch (src) {
 370:Core/Src/main_unique.c **** 
 371:Core/Src/main_unique.c ****     case MCO_SRC_HSI:
 372:Core/Src/main_unique.c ****         HAL_RCC_MCOConfig(RCC_MCO1, RCC_MCO1SOURCE_HSI, RCC_MCODIV_1);
ARM GAS  /tmp/ccjBgtoi.s 			page 8


 373:Core/Src/main_unique.c ****         s_mco_freq = HSI_VALUE;              /* 16 000 000 Hz */
 374:Core/Src/main_unique.c ****         break;
 375:Core/Src/main_unique.c **** 
 376:Core/Src/main_unique.c ****     case MCO_SRC_LSE:
 377:Core/Src/main_unique.c ****         HAL_RCC_MCOConfig(RCC_MCO1, RCC_MCO1SOURCE_LSE, RCC_MCODIV_1);
 378:Core/Src/main_unique.c ****         /* Si el cristal no oscila, MCO1 queda en reposo: se refleja con una
 379:Core/Src/main_unique.c ****            frecuencia de 0 para que el informe por UART no sea enganoso. */
 380:Core/Src/main_unique.c ****         s_mco_freq = s_lse_ok ? LSE_VALUE : 0U;
 381:Core/Src/main_unique.c ****         break;
 382:Core/Src/main_unique.c **** 
 383:Core/Src/main_unique.c ****     case MCO_SRC_PLL:
 384:Core/Src/main_unique.c ****     default:
 385:Core/Src/main_unique.c ****         HAL_RCC_MCOConfig(RCC_MCO1, RCC_MCO1SOURCE_PLLCLK, RCC_MCODIV_5);
 386:Core/Src/main_unique.c ****         s_mco_freq = HAL_RCC_GetSysClockFreq() / 5U;  /* 100 MHz / 5 = 20 MHz */
 387:Core/Src/main_unique.c ****         src = MCO_SRC_PLL;                   /* normaliza el valor guardado  */
 388:Core/Src/main_unique.c ****         break;
 389:Core/Src/main_unique.c ****     }
 390:Core/Src/main_unique.c **** 
 391:Core/Src/main_unique.c ****     s_mco_src = src;   /* memoriza la seleccion para consultarla despues */
 392:Core/Src/main_unique.c **** }
 393:Core/Src/main_unique.c **** 
 394:Core/Src/main_unique.c **** /* Devuelve la fuente MCO1 activa. */
 395:Core/Src/main_unique.c **** mco_src_t system_clock_mco_get(void)
 396:Core/Src/main_unique.c **** {
 397:Core/Src/main_unique.c ****     return s_mco_src;
 398:Core/Src/main_unique.c **** }
 399:Core/Src/main_unique.c **** 
 400:Core/Src/main_unique.c **** /* Devuelve una cadena corta describiendo la senal presente en PA8. */
 401:Core/Src/main_unique.c **** const char *system_clock_mco_label(void)
 402:Core/Src/main_unique.c **** {
 403:Core/Src/main_unique.c ****     switch (s_mco_src) {
 404:Core/Src/main_unique.c ****     case MCO_SRC_HSI: return "MCO1:HSI 16MHz";
 405:Core/Src/main_unique.c ****     case MCO_SRC_LSE: return s_lse_ok ? "MCO1:LSE 32768" : "MCO1:LSE NO OSC";
 406:Core/Src/main_unique.c ****     case MCO_SRC_PLL: return "MCO1:PLL 20MHz";
 407:Core/Src/main_unique.c ****     default:          return "MCO1:?";
 408:Core/Src/main_unique.c ****     }
 409:Core/Src/main_unique.c **** }
 410:Core/Src/main_unique.c **** 
 411:Core/Src/main_unique.c **** /* Indica si el LSE llego a oscilar. Lo consultan el RTC y el diagnostico. */
 412:Core/Src/main_unique.c **** uint8_t system_clock_lse_ok(void)
 413:Core/Src/main_unique.c **** {
 414:Core/Src/main_unique.c ****     return s_lse_ok;
 415:Core/Src/main_unique.c **** }
 416:Core/Src/main_unique.c **** 
 417:Core/Src/main_unique.c **** /* Devuelve la frecuencia real presente en PA8, en hercios. */
 418:Core/Src/main_unique.c **** uint32_t system_clock_mco_freq(void)
 419:Core/Src/main_unique.c **** {
 420:Core/Src/main_unique.c ****     return s_mco_freq;
 421:Core/Src/main_unique.c **** }
 422:Core/Src/main_unique.c **** 
 423:Core/Src/main_unique.c **** /* ==========================================================================
 424:Core/Src/main_unique.c ****  * 6. MODULO gpio
 425:Core/Src/main_unique.c ****  *    Pines discretos: LED en PH1 y pulsador SW del joystick en PB5.
 426:Core/Src/main_unique.c ****  *    Los pines de periferico (ADC, UART, I2C, MCO) se configuran en la
 427:Core/Src/main_unique.c ****  *    seccion del MSP, que es el lugar que la HAL reserva para ello.
 428:Core/Src/main_unique.c ****  * ========================================================================== */
 429:Core/Src/main_unique.c **** 
ARM GAS  /tmp/ccjBgtoi.s 			page 9


 430:Core/Src/main_unique.c **** /*
 431:Core/Src/main_unique.c ****  * gpio_init
 432:Core/Src/main_unique.c ****  * Habilita los relojes de los puertos implicados y configura cada pin.
 433:Core/Src/main_unique.c ****  * Nota: en el STM32F4 los relojes de periferico estan apagados tras el reset;
 434:Core/Src/main_unique.c ****  * escribir en los registros de un puerto sin reloj no produce ningun efecto
 435:Core/Src/main_unique.c ****  * y tampoco genera error, lo que hace que el fallo sea dificil de detectar.
 436:Core/Src/main_unique.c ****  */
 437:Core/Src/main_unique.c **** void gpio_init(void)
 438:Core/Src/main_unique.c **** {
 439:Core/Src/main_unique.c ****     GPIO_InitTypeDef gi = {0};   /* estructura de configuracion de pin */
 440:Core/Src/main_unique.c **** 
 441:Core/Src/main_unique.c ****     /* --- Relojes de los puertos utilizados ----------------------------- */
 442:Core/Src/main_unique.c ****     __HAL_RCC_GPIOH_CLK_ENABLE();   /* puerto H: LED en PH1               */
 443:Core/Src/main_unique.c ****     __HAL_RCC_GPIOB_CLK_ENABLE();   /* puerto B: pulsador en PB5          */
 444:Core/Src/main_unique.c **** 
 445:Core/Src/main_unique.c ****     /* --- LED en PH1 ----------------------------------------------------- */
 446:Core/Src/main_unique.c ****     /* Estado inicial apagado, escrito antes de configurar el pin como salida
 447:Core/Src/main_unique.c ****        para evitar un pulso espurio al habilitar el driver de salida. */
 448:Core/Src/main_unique.c ****     HAL_GPIO_WritePin(LED_GPIO_PORT, LED_PIN, GPIO_PIN_RESET);
 449:Core/Src/main_unique.c **** 
 450:Core/Src/main_unique.c ****     gi.Pin   = LED_PIN;
 451:Core/Src/main_unique.c ****     gi.Mode  = GPIO_MODE_OUTPUT_PP;  /* push-pull: el pin puede forzar 0 y 1.
 452:Core/Src/main_unique.c ****                                         Alternativa: GPIO_MODE_OUTPUT_OD
 453:Core/Src/main_unique.c ****                                         (drenador abierto), que solo fuerza 0 */
 454:Core/Src/main_unique.c ****     gi.Pull  = GPIO_NOPULL;          /* sin resistencias internas: es salida  */
 455:Core/Src/main_unique.c ****     gi.Speed = GPIO_SPEED_FREQ_LOW;  /* 2 MHz basta para 4 Hz; velocidades
 456:Core/Src/main_unique.c ****                                         mayores solo aumentan el ruido y el
 457:Core/Src/main_unique.c ****                                         consumo. Alternativas: MEDIUM, HIGH,
 458:Core/Src/main_unique.c ****                                         VERY_HIGH */
 459:Core/Src/main_unique.c ****     HAL_GPIO_Init(LED_GPIO_PORT, &gi);
 460:Core/Src/main_unique.c **** 
 461:Core/Src/main_unique.c ****     /* --- Pulsador SW del joystick en PB5 -------------------------------- */
 462:Core/Src/main_unique.c ****     gi.Pin  = JOY_SW_PIN;
 463:Core/Src/main_unique.c ****     gi.Mode = GPIO_MODE_IT_FALLING;  /* interrupcion en flanco de bajada.
 464:Core/Src/main_unique.c ****                                         El SW del joystick cortocircuita el
 465:Core/Src/main_unique.c ****                                         pin a GND al pulsarlo. Alternativas:
 466:Core/Src/main_unique.c ****                                         IT_RISING, IT_RISING_FALLING */
 467:Core/Src/main_unique.c ****     gi.Pull = GPIO_PULLUP;           /* pull-up interna: el pin reposa en 1
 468:Core/Src/main_unique.c ****                                         y cae a 0 al pulsar. Evita anadir una
 469:Core/Src/main_unique.c ****                                         resistencia externa */
 470:Core/Src/main_unique.c ****     HAL_GPIO_Init(JOY_SW_GPIO_PORT, &gi);
 471:Core/Src/main_unique.c **** 
 472:Core/Src/main_unique.c ****     /* --- Habilitacion de la interrupcion en el NVIC ---------------------- */
 473:Core/Src/main_unique.c ****     /* Prioridad de expropiacion 8, subprioridad 0. Valor alto = prioridad
 474:Core/Src/main_unique.c ****        baja: el pulsador no debe interferir con la UART ni con el ADC. */
 475:Core/Src/main_unique.c ****     HAL_NVIC_SetPriority(JOY_SW_EXTI_IRQn, 8, 0);
 476:Core/Src/main_unique.c ****     HAL_NVIC_EnableIRQ(JOY_SW_EXTI_IRQn);
 477:Core/Src/main_unique.c **** }
 478:Core/Src/main_unique.c **** 
 479:Core/Src/main_unique.c **** /* Invierte el nivel logico del LED. Se llama desde la ISR de TIM3. */
 480:Core/Src/main_unique.c **** void gpio_led_toggle(void)
 481:Core/Src/main_unique.c **** {
 482:Core/Src/main_unique.c ****     HAL_GPIO_TogglePin(LED_GPIO_PORT, LED_PIN);
 483:Core/Src/main_unique.c **** }
 484:Core/Src/main_unique.c **** 
 485:Core/Src/main_unique.c **** /* Fija el LED a un estado concreto: on distinto de 0 lo enciende. */
 486:Core/Src/main_unique.c **** void gpio_led_write(uint8_t on)
ARM GAS  /tmp/ccjBgtoi.s 			page 10


 487:Core/Src/main_unique.c **** {
 488:Core/Src/main_unique.c ****     HAL_GPIO_WritePin(LED_GPIO_PORT, LED_PIN,
 489:Core/Src/main_unique.c ****                       on ? GPIO_PIN_SET : GPIO_PIN_RESET);
 490:Core/Src/main_unique.c **** }
 491:Core/Src/main_unique.c **** 
 492:Core/Src/main_unique.c **** /* ==========================================================================
 493:Core/Src/main_unique.c ****  * 7. MODULO uart
 494:Core/Src/main_unique.c ****  *    USART2 a 115200 baudios, totalmente gobernada por interrupciones.
 495:Core/Src/main_unique.c ****  *
 496:Core/Src/main_unique.c ****  *    En la Nucleo-F411RE la USART2 esta cableada al depurador ST-LINK, que la
 497:Core/Src/main_unique.c ****  *    expone en el ordenador como puerto virtual (/dev/ttyACM0 en Linux).
 498:Core/Src/main_unique.c ****  *      PA2 -> USART2_TX     PA3 -> USART2_RX
 499:Core/Src/main_unique.c ****  *
 500:Core/Src/main_unique.c ****  *    Comandos aceptados (un solo caracter, sin pulsar Enter):
 501:Core/Src/main_unique.c ****  *      c  coordenadas a cero     x  modo X          y  modo Y
 502:Core/Src/main_unique.c ****  *      +  incrementa             -  decrementa
 503:Core/Src/main_unique.c ****  *      h  MCO1 = HSI             l  MCO1 = LSE      p  MCO1 = PLL
 504:Core/Src/main_unique.c ****  *      d  diagnostico            s  sondeo I2C      ?  ayuda
 505:Core/Src/main_unique.c ****  * ========================================================================== */
 506:Core/Src/main_unique.c **** 
 507:Core/Src/main_unique.c **** /* Byte donde la HAL deposita cada caracter recibido */
 508:Core/Src/main_unique.c **** static volatile uint8_t  s_rx_byte;
 509:Core/Src/main_unique.c **** 
 510:Core/Src/main_unique.c **** /* --- Buffer circular de transmision -------------------------------------- */
 511:Core/Src/main_unique.c **** static volatile uint8_t  s_tx_buf[UART_TX_BUF_SIZE];
 512:Core/Src/main_unique.c **** static volatile uint16_t s_tx_head = 0;   /* posicion de escritura */
 513:Core/Src/main_unique.c **** static volatile uint16_t s_tx_tail = 0;   /* posicion de lectura   */
 514:Core/Src/main_unique.c **** static volatile uint8_t  s_tx_busy = 0;   /* 1 si hay un envio en curso */
 515:Core/Src/main_unique.c **** 
 516:Core/Src/main_unique.c **** /* Byte que se esta transmitiendo en este momento */
 517:Core/Src/main_unique.c **** static volatile uint8_t  s_tx_current;
 518:Core/Src/main_unique.c **** 
 519:Core/Src/main_unique.c **** /*
 520:Core/Src/main_unique.c ****  * uart_start_tx
 521:Core/Src/main_unique.c ****  * Si el buffer no esta vacio y no hay transmision en curso, extrae un byte
 522:Core/Src/main_unique.c ****  * y lo entrega a la HAL. Se llama tanto desde el hilo principal como desde
 523:Core/Src/main_unique.c ****  * la interrupcion de fin de transmision.
 524:Core/Src/main_unique.c ****  */
 525:Core/Src/main_unique.c **** static void uart_start_tx(void)
 526:Core/Src/main_unique.c **** {
 527:Core/Src/main_unique.c ****     if (s_tx_busy || (s_tx_head == s_tx_tail)) {
 528:Core/Src/main_unique.c ****         return;   /* ya hay un envio activo, o no queda nada por enviar */
 529:Core/Src/main_unique.c ****     }
 530:Core/Src/main_unique.c ****     s_tx_current = s_tx_buf[s_tx_tail];
 531:Core/Src/main_unique.c ****     s_tx_tail    = (uint16_t)((s_tx_tail + 1U) % UART_TX_BUF_SIZE);
 532:Core/Src/main_unique.c ****     s_tx_busy    = 1U;
 533:Core/Src/main_unique.c **** 
 534:Core/Src/main_unique.c ****     HAL_UART_Transmit_IT(&huart2, (uint8_t *)&s_tx_current, 1U);
 535:Core/Src/main_unique.c **** }
 536:Core/Src/main_unique.c **** 
 537:Core/Src/main_unique.c **** void uart_init(void)
 538:Core/Src/main_unique.c **** {
 539:Core/Src/main_unique.c ****     __HAL_RCC_USART2_CLK_ENABLE();
 540:Core/Src/main_unique.c **** 
 541:Core/Src/main_unique.c ****     huart2.Instance        = USART2;
 542:Core/Src/main_unique.c ****     huart2.Init.BaudRate   = 115200U;   /* velocidad estandar; el ST-LINK
 543:Core/Src/main_unique.c ****                                     admite hasta 1 Mbaudio */
ARM GAS  /tmp/ccjBgtoi.s 			page 11


 544:Core/Src/main_unique.c ****     huart2.Init.WordLength = UART_WORDLENGTH_8B;  /* 8 bits de datos.
 545:Core/Src/main_unique.c ****                                     Alternativa: 9B, usada cuando se anade
 546:Core/Src/main_unique.c ****                                     bit de paridad y se quieren 8 datos */
 547:Core/Src/main_unique.c ****     huart2.Init.StopBits   = UART_STOPBITS_1;
 548:Core/Src/main_unique.c ****     huart2.Init.Parity     = UART_PARITY_NONE;
 549:Core/Src/main_unique.c ****     huart2.Init.Mode       = UART_MODE_TX_RX;     /* bidireccional */
 550:Core/Src/main_unique.c ****     huart2.Init.HwFlowCtl  = UART_HWCONTROL_NONE; /* sin RTS/CTS   */
 551:Core/Src/main_unique.c ****     huart2.Init.OverSampling = UART_OVERSAMPLING_16;
 552:Core/Src/main_unique.c ****                                     /* 16 muestras por bit: mayor inmunidad
 553:Core/Src/main_unique.c ****                                        al ruido. OVERSAMPLING_8 permitiria
 554:Core/Src/main_unique.c ****                                        doblar la velocidad maxima */
 555:Core/Src/main_unique.c **** 
 556:Core/Src/main_unique.c ****     if (HAL_UART_Init(&huart2) != HAL_OK) {
 557:Core/Src/main_unique.c ****         Error_Handler();
 558:Core/Src/main_unique.c ****     }
 559:Core/Src/main_unique.c **** 
 560:Core/Src/main_unique.c ****     /* Prioridad 5: la mas alta de los perifericos del proyecto, para no
 561:Core/Src/main_unique.c ****        perder caracteres si coinciden varias interrupciones. */
 562:Core/Src/main_unique.c ****     HAL_NVIC_SetPriority(USART2_IRQn, 5, 0);
 563:Core/Src/main_unique.c ****     HAL_NVIC_EnableIRQ(USART2_IRQn);
 564:Core/Src/main_unique.c **** 
 565:Core/Src/main_unique.c ****     /* Arma la primera recepcion. Sin esta llamada no se genera ninguna
 566:Core/Src/main_unique.c ****        interrupcion de recepcion. */
 567:Core/Src/main_unique.c ****     HAL_UART_Receive_IT(&huart2, (uint8_t *)&s_rx_byte, 1U);
 568:Core/Src/main_unique.c **** }
 569:Core/Src/main_unique.c **** 
 570:Core/Src/main_unique.c **** /*
 571:Core/Src/main_unique.c ****  * uart_send
 572:Core/Src/main_unique.c ****  * Copia la cadena al buffer circular y activa la transmision si estaba parada.
 573:Core/Src/main_unique.c ****  * No bloquea: si el buffer se llena, los caracteres sobrantes se descartan.
 574:Core/Src/main_unique.c ****  */
 575:Core/Src/main_unique.c **** void uart_send(const char *s)
 576:Core/Src/main_unique.c **** {
 577:Core/Src/main_unique.c ****     uint16_t next;
 578:Core/Src/main_unique.c **** 
 579:Core/Src/main_unique.c ****     while (*s != '\0') {
 580:Core/Src/main_unique.c ****         next = (uint16_t)((s_tx_head + 1U) % UART_TX_BUF_SIZE);
 581:Core/Src/main_unique.c ****         if (next == s_tx_tail) {
 582:Core/Src/main_unique.c ****             break;   /* buffer lleno: se descarta el resto */
 583:Core/Src/main_unique.c ****         }
 584:Core/Src/main_unique.c ****         s_tx_buf[s_tx_head] = (uint8_t)*s++;
 585:Core/Src/main_unique.c ****         s_tx_head = next;
 586:Core/Src/main_unique.c ****     }
 587:Core/Src/main_unique.c ****     uart_start_tx();
 588:Core/Src/main_unique.c **** }
 589:Core/Src/main_unique.c **** 
 590:Core/Src/main_unique.c **** void uart_send_line(const char *s)
 591:Core/Src/main_unique.c **** {
 592:Core/Src/main_unique.c ****     uart_send(s);
 593:Core/Src/main_unique.c ****     uart_send("\r\n");
 594:Core/Src/main_unique.c **** }
 595:Core/Src/main_unique.c **** 
 596:Core/Src/main_unique.c **** /*
 597:Core/Src/main_unique.c ****  * HAL_UART_TxCpltCallback
 598:Core/Src/main_unique.c ****  * La HAL la invoca al terminar de transmitir el byte en curso.
 599:Core/Src/main_unique.c ****  * Encadena el siguiente byte pendiente del buffer circular.
 600:Core/Src/main_unique.c ****  */
ARM GAS  /tmp/ccjBgtoi.s 			page 12


 601:Core/Src/main_unique.c **** void HAL_UART_TxCpltCallback(UART_HandleTypeDef *huart)
 602:Core/Src/main_unique.c **** {
 603:Core/Src/main_unique.c ****     if (huart->Instance != USART2) {
 604:Core/Src/main_unique.c ****         return;
 605:Core/Src/main_unique.c ****     }
 606:Core/Src/main_unique.c ****     s_tx_busy = 0U;
 607:Core/Src/main_unique.c ****     uart_start_tx();
 608:Core/Src/main_unique.c **** }
 609:Core/Src/main_unique.c **** 
 610:Core/Src/main_unique.c **** /*
 611:Core/Src/main_unique.c ****  * HAL_UART_RxCpltCallback
 612:Core/Src/main_unique.c ****  * La HAL la invoca al recibir un caracter. Traduce el caracter a un evento
 613:Core/Src/main_unique.c ****  * de la maquina de estados y vuelve a armar la recepcion.
 614:Core/Src/main_unique.c ****  *
 615:Core/Src/main_unique.c ****  * Se aceptan mayusculas y minusculas para mayor comodidad del operador.
 616:Core/Src/main_unique.c ****  */
 617:Core/Src/main_unique.c **** void HAL_UART_RxCpltCallback(UART_HandleTypeDef *huart)
 618:Core/Src/main_unique.c **** {
 619:Core/Src/main_unique.c ****     uint8_t c;
 620:Core/Src/main_unique.c **** 
 621:Core/Src/main_unique.c ****     if (huart->Instance != USART2) {
 622:Core/Src/main_unique.c ****         return;
 623:Core/Src/main_unique.c ****     }
 624:Core/Src/main_unique.c **** 
 625:Core/Src/main_unique.c ****     c = s_rx_byte;
 626:Core/Src/main_unique.c **** 
 627:Core/Src/main_unique.c ****     switch (c) {
 628:Core/Src/main_unique.c ****     case 'c': case 'C': fsm_post_event(EV_CMD_CLEAR);   break;
 629:Core/Src/main_unique.c ****     case 'x': case 'X': fsm_post_event(EV_CMD_MODE_X);  break;
 630:Core/Src/main_unique.c ****     case 'y': case 'Y': fsm_post_event(EV_CMD_MODE_Y);  break;
 631:Core/Src/main_unique.c ****     case '+':           fsm_post_event(EV_CMD_INC);     break;
 632:Core/Src/main_unique.c ****     case '-':           fsm_post_event(EV_CMD_DEC);     break;
 633:Core/Src/main_unique.c ****     case 'h': case 'H': fsm_post_event(EV_CMD_MCO_HSI); break;
 634:Core/Src/main_unique.c ****     case 'l': case 'L': fsm_post_event(EV_CMD_MCO_LSE); break;
 635:Core/Src/main_unique.c ****     case 'p': case 'P': fsm_post_event(EV_CMD_MCO_PLL); break;
 636:Core/Src/main_unique.c ****     case 'd': case 'D': fsm_post_event(EV_CMD_DIAG);    break;
 637:Core/Src/main_unique.c ****     case 's': case 'S': fsm_post_event(EV_CMD_SCAN);    break;
 638:Core/Src/main_unique.c ****     case '?':           fsm_post_event(EV_CMD_HELP);    break;
 639:Core/Src/main_unique.c ****     default:            /* cualquier otro caracter se ignora */    break;
 640:Core/Src/main_unique.c ****     }
 641:Core/Src/main_unique.c **** 
 642:Core/Src/main_unique.c ****     /* Rearma la recepcion del siguiente byte. Omitir esta llamada deja la
 643:Core/Src/main_unique.c ****        UART sorda tras el primer caracter: es el error mas frecuente al
 644:Core/Src/main_unique.c ****        trabajar con HAL_UART_Receive_IT. */
 645:Core/Src/main_unique.c ****     HAL_UART_Receive_IT(&huart2, (uint8_t *)&s_rx_byte, 1U);
 646:Core/Src/main_unique.c **** }
 647:Core/Src/main_unique.c **** 
 648:Core/Src/main_unique.c **** /*
 649:Core/Src/main_unique.c ****  * HAL_UART_ErrorCallback
 650:Core/Src/main_unique.c ****  * Se invoca ante errores de trama, ruido, paridad o desbordamiento.
 651:Core/Src/main_unique.c ****  * Rearma la recepcion para que un caracter corrupto no deje la UART muda.
 652:Core/Src/main_unique.c ****  */
 653:Core/Src/main_unique.c **** void HAL_UART_ErrorCallback(UART_HandleTypeDef *huart)
 654:Core/Src/main_unique.c **** {
 655:Core/Src/main_unique.c ****     if (huart->Instance == USART2) {
 656:Core/Src/main_unique.c ****         __HAL_UART_CLEAR_OREFLAG(huart);   /* limpia el error de desbordamiento */
 657:Core/Src/main_unique.c ****         HAL_UART_Receive_IT(&huart2, (uint8_t *)&s_rx_byte, 1U);
ARM GAS  /tmp/ccjBgtoi.s 			page 13


 658:Core/Src/main_unique.c ****     }
 659:Core/Src/main_unique.c **** }
 660:Core/Src/main_unique.c **** 
 661:Core/Src/main_unique.c **** /* ==========================================================================
 662:Core/Src/main_unique.c ****  * 8. MODULO adc_joystick
 663:Core/Src/main_unique.c ****  *    Adquisicion de los dos ejes del joystick con ADC1 en modo interrupcion.
 664:Core/Src/main_unique.c ****  *
 665:Core/Src/main_unique.c ****  *    Estrategia: el ADC del STM32F4 dispone de un unico registro de datos.
 666:Core/Src/main_unique.c ****  *    Para leer dos canales sin DMA se convierte de uno en uno y se conmuta el
 667:Core/Src/main_unique.c ****  *    canal dentro del callback de fin de conversion:
 668:Core/Src/main_unique.c ****  *
 669:Core/Src/main_unique.c ****  *      TIM4 (100 ms) --> adc_joystick_start() --> conversion canal IN0
 670:Core/Src/main_unique.c ****  *             callback --> guarda VRX, selecciona IN1, arranca de nuevo
 671:Core/Src/main_unique.c ****  *             callback --> guarda VRY, secuencia terminada
 672:Core/Src/main_unique.c ****  *
 673:Core/Src/main_unique.c ****  *    Conexionado: VRX -> PA0 (IN0), VRY -> PA1 (IN1), SW -> PB5.
 674:Core/Src/main_unique.c ****  * ========================================================================== */
 675:Core/Src/main_unique.c **** 
 676:Core/Src/main_unique.c **** /* Indice del canal en curso: 0 = VRX (IN0), 1 = VRY (IN1). volatile porque
 677:Core/Src/main_unique.c ****    se modifica dentro de una interrupcion y se lee fuera de ella. */
 678:Core/Src/main_unique.c **** static volatile uint8_t  s_channel = 0;
 679:Core/Src/main_unique.c **** 
 680:Core/Src/main_unique.c **** /* Ultimas muestras validas de cada eje */
 681:Core/Src/main_unique.c **** static volatile uint16_t s_raw_x = JOY_CENTER;
 682:Core/Src/main_unique.c **** static volatile uint16_t s_raw_y = JOY_CENTER;
 683:Core/Src/main_unique.c **** 
 684:Core/Src/main_unique.c **** /*
 685:Core/Src/main_unique.c ****  * adc_select_channel
 686:Core/Src/main_unique.c ****  * Programa el canal que ocupara el primer puesto de la secuencia de conversion.
 687:Core/Src/main_unique.c ****  * Funcion interna (static): no forma parte de la interfaz del modulo.
 688:Core/Src/main_unique.c ****  */
 689:Core/Src/main_unique.c **** static void adc_select_channel(uint8_t idx)
 690:Core/Src/main_unique.c **** {
 691:Core/Src/main_unique.c ****     ADC_ChannelConfTypeDef ch = {0};
 692:Core/Src/main_unique.c **** 
 693:Core/Src/main_unique.c ****     ch.Channel      = (idx == 0) ? ADC_CHANNEL_0 : ADC_CHANNEL_1;
 694:Core/Src/main_unique.c ****     ch.Rank         = 1;   /* primera y unica posicion de la secuencia */
 695:Core/Src/main_unique.c ****     ch.SamplingTime = ADC_SAMPLETIME_84CYCLES;
 696:Core/Src/main_unique.c ****     /* Tiempo de muestreo: 84 ciclos de ADCCLK. Debe ser suficiente para que el
 697:Core/Src/main_unique.c ****        condensador de muestreo se cargue a traves de la impedancia de la fuente.
 698:Core/Src/main_unique.c ****        El potenciometro del joystick ronda los 10 kohm, valor alto, por lo que
 699:Core/Src/main_unique.c ****        se toma un tiempo generoso. Alternativas: 3, 15, 28, 56, 112, 144, 480
 700:Core/Src/main_unique.c ****        ciclos. Un tiempo demasiado corto produce lecturas bajas y ruidosas. */
 701:Core/Src/main_unique.c **** 
 702:Core/Src/main_unique.c ****     if (HAL_ADC_ConfigChannel(&hadc1, &ch) != HAL_OK) {
 703:Core/Src/main_unique.c ****         Error_Handler();
 704:Core/Src/main_unique.c ****     }
 705:Core/Src/main_unique.c **** }
 706:Core/Src/main_unique.c **** 
 707:Core/Src/main_unique.c **** void adc_joystick_init(void)
 708:Core/Src/main_unique.c **** {
 709:Core/Src/main_unique.c ****     __HAL_RCC_ADC1_CLK_ENABLE();   /* reloj del ADC1 (bus APB2) */
 710:Core/Src/main_unique.c **** 
 711:Core/Src/main_unique.c ****     hadc1.Instance = ADC1;
 712:Core/Src/main_unique.c **** 
 713:Core/Src/main_unique.c ****     /* ADCCLK = PCLK2 / 4 = 100 MHz / 4 = 25 MHz.
 714:Core/Src/main_unique.c ****        El maximo admitido por el ADC del F411 es 36 MHz; DIV2 daria 50 MHz y
ARM GAS  /tmp/ccjBgtoi.s 			page 14


 715:Core/Src/main_unique.c ****        violaria la especificacion. Alternativas: DIV2, DIV4, DIV6, DIV8. */
 716:Core/Src/main_unique.c ****     hadc1.Init.ClockPrescaler = ADC_CLOCK_SYNC_PCLK_DIV4;
 717:Core/Src/main_unique.c **** 
 718:Core/Src/main_unique.c ****     hadc1.Init.Resolution = ADC_RESOLUTION_12B;  /* 0..4095. Alternativas:
 719:Core/Src/main_unique.c ****                                         10B, 8B, 6B; menor resolucion implica
 720:Core/Src/main_unique.c ****                                         conversiones mas rapidas */
 721:Core/Src/main_unique.c ****     hadc1.Init.ScanConvMode          = DISABLE;  /* un solo canal por secuencia */
 722:Core/Src/main_unique.c ****     hadc1.Init.ContinuousConvMode    = DISABLE;  /* conversion unica bajo demanda */
 723:Core/Src/main_unique.c ****     hadc1.Init.DiscontinuousConvMode = DISABLE;
 724:Core/Src/main_unique.c ****     hadc1.Init.ExternalTrigConv      = ADC_SOFTWARE_START;
 725:Core/Src/main_unique.c ****                                         /* el disparo lo da el software desde
 726:Core/Src/main_unique.c ****                                            la ISR de TIM4. Alternativa: disparo
 727:Core/Src/main_unique.c ****                                            directo por TRGO de un temporizador */
 728:Core/Src/main_unique.c ****     hadc1.Init.ExternalTrigConvEdge  = ADC_EXTERNALTRIGCONVEDGE_NONE;
 729:Core/Src/main_unique.c ****     hadc1.Init.DataAlign             = ADC_DATAALIGN_RIGHT;
 730:Core/Src/main_unique.c ****                                         /* resultado justificado a la derecha:
 731:Core/Src/main_unique.c ****                                            el valor se lee directamente sin
 732:Core/Src/main_unique.c ****                                            desplazamientos */
 733:Core/Src/main_unique.c ****     hadc1.Init.NbrOfConversion       = 1;
 734:Core/Src/main_unique.c ****     hadc1.Init.DMAContinuousRequests = DISABLE;
 735:Core/Src/main_unique.c ****     hadc1.Init.EOCSelection          = ADC_EOC_SINGLE_CONV;
 736:Core/Src/main_unique.c ****                                         /* la bandera EOC se activa al terminar
 737:Core/Src/main_unique.c ****                                            cada conversion individual */
 738:Core/Src/main_unique.c **** 
 739:Core/Src/main_unique.c ****     if (HAL_ADC_Init(&hadc1) != HAL_OK) {
 740:Core/Src/main_unique.c ****         Error_Handler();
 741:Core/Src/main_unique.c ****     }
 742:Core/Src/main_unique.c **** 
 743:Core/Src/main_unique.c ****     adc_select_channel(0);   /* deja seleccionado VRX para la primera lectura */
 744:Core/Src/main_unique.c **** 
 745:Core/Src/main_unique.c ****     /* Prioridad 6: por debajo de la UART, por encima de los temporizadores */
 746:Core/Src/main_unique.c ****     HAL_NVIC_SetPriority(ADC_IRQn, 6, 0);
 747:Core/Src/main_unique.c ****     HAL_NVIC_EnableIRQ(ADC_IRQn);
 748:Core/Src/main_unique.c **** }
 749:Core/Src/main_unique.c **** 
 750:Core/Src/main_unique.c **** /*
 751:Core/Src/main_unique.c ****  * adc_joystick_start
 752:Core/Src/main_unique.c ****  * Inicia la secuencia de dos conversiones. Se invoca desde la ISR de TIM4,
 753:Core/Src/main_unique.c ****  * por lo que debe retornar de inmediato.
 754:Core/Src/main_unique.c ****  */
 755:Core/Src/main_unique.c **** void adc_joystick_start(void)
 756:Core/Src/main_unique.c **** {
 757:Core/Src/main_unique.c ****     s_channel = 0;              /* la secuencia empieza siempre por VRX */
 758:Core/Src/main_unique.c ****     adc_select_channel(0);
 759:Core/Src/main_unique.c ****     HAL_ADC_Start_IT(&hadc1);   /* arranca la conversion con interrupcion EOC */
 760:Core/Src/main_unique.c **** }
 761:Core/Src/main_unique.c **** 
 762:Core/Src/main_unique.c **** /*
 763:Core/Src/main_unique.c ****  * HAL_ADC_ConvCpltCallback
 764:Core/Src/main_unique.c ****  * La HAL la invoca desde HAL_ADC_IRQHandler al activarse la bandera EOC.
 765:Core/Src/main_unique.c ****  * Encadena la segunda conversion sin bloquear el nucleo.
 766:Core/Src/main_unique.c ****  */
 767:Core/Src/main_unique.c **** void HAL_ADC_ConvCpltCallback(ADC_HandleTypeDef *hadc)
 768:Core/Src/main_unique.c **** {
 769:Core/Src/main_unique.c ****     if (hadc->Instance != ADC1) {
 770:Core/Src/main_unique.c ****         return;   /* proteccion por si se anadiese otro ADC al proyecto */
 771:Core/Src/main_unique.c ****     }
ARM GAS  /tmp/ccjBgtoi.s 			page 15


 772:Core/Src/main_unique.c **** 
 773:Core/Src/main_unique.c ****     if (s_channel == 0) {
 774:Core/Src/main_unique.c ****         s_raw_x   = (uint16_t)HAL_ADC_GetValue(hadc); /* lee y limpia EOC */
 775:Core/Src/main_unique.c ****         s_channel = 1;
 776:Core/Src/main_unique.c ****         adc_select_channel(1);        /* conmuta a VRY */
 777:Core/Src/main_unique.c ****         HAL_ADC_Start_IT(hadc);       /* segunda conversion */
 778:Core/Src/main_unique.c ****     } else {
 779:Core/Src/main_unique.c ****         s_raw_y   = (uint16_t)HAL_ADC_GetValue(hadc);
 780:Core/Src/main_unique.c ****         s_channel = 0;                /* secuencia completa */
 781:Core/Src/main_unique.c ****     }
 782:Core/Src/main_unique.c **** }
 783:Core/Src/main_unique.c **** 
 784:Core/Src/main_unique.c **** /* Accesores de las ultimas muestras crudas */
 785:Core/Src/main_unique.c **** uint16_t adc_joystick_raw_x(void) { return s_raw_x; }
 786:Core/Src/main_unique.c **** uint16_t adc_joystick_raw_y(void) { return s_raw_y; }
 787:Core/Src/main_unique.c **** 
 788:Core/Src/main_unique.c **** /*
 789:Core/Src/main_unique.c ****  * adc_dir
 790:Core/Src/main_unique.c ****  * Convierte una muestra cruda en una direccion discreta aplicando la banda
 791:Core/Src/main_unique.c ****  * muerta. Devuelve -1, 0 o +1.
 792:Core/Src/main_unique.c ****  */
 793:Core/Src/main_unique.c **** static int8_t adc_dir(uint16_t raw)
 794:Core/Src/main_unique.c **** {
  29              		.loc 1 794 1 view -0
  30              		.cfi_startproc
  31              		@ args = 0, pretend = 0, frame = 0
  32              		@ frame_needed = 0, uses_anonymous_args = 0
  33              		@ link register save eliminated.
 795:Core/Src/main_unique.c ****     if (raw > (JOY_CENTER + JOY_DEADZONE)) return  1;
  34              		.loc 1 795 5 view .LVU1
  35              		.loc 1 795 8 is_stmt 0 view .LVU2
  36 0000 40F65823 		movw	r3, #2648
  37 0004 9842     		cmp	r0, r3
  38 0006 04D8     		bhi	.L3
 796:Core/Src/main_unique.c ****     if (raw < (JOY_CENTER - JOY_DEADZONE)) return -1;
  39              		.loc 1 796 5 is_stmt 1 view .LVU3
  40              		.loc 1 796 8 is_stmt 0 view .LVU4
  41 0008 B0F5B56F 		cmp	r0, #1448
  42 000c 03D3     		bcc	.L4
 797:Core/Src/main_unique.c ****     return 0;
  43              		.loc 1 797 12 view .LVU5
  44 000e 0020     		movs	r0, #0
  45              	.LVL1:
  46              		.loc 1 797 12 view .LVU6
  47 0010 7047     		bx	lr
  48              	.LVL2:
  49              	.L3:
 795:Core/Src/main_unique.c ****     if (raw > (JOY_CENTER + JOY_DEADZONE)) return  1;
  50              		.loc 1 795 52 discriminator 1 view .LVU7
  51 0012 0120     		movs	r0, #1
  52              	.LVL3:
 795:Core/Src/main_unique.c ****     if (raw > (JOY_CENTER + JOY_DEADZONE)) return  1;
  53              		.loc 1 795 52 discriminator 1 view .LVU8
  54 0014 7047     		bx	lr
  55              	.LVL4:
  56              	.L4:
 796:Core/Src/main_unique.c ****     if (raw < (JOY_CENTER - JOY_DEADZONE)) return -1;
ARM GAS  /tmp/ccjBgtoi.s 			page 16


  57              		.loc 1 796 51 discriminator 1 view .LVU9
  58 0016 4FF0FF30 		mov	r0, #-1
  59              	.LVL5:
 798:Core/Src/main_unique.c **** }
  60              		.loc 1 798 1 view .LVU10
  61 001a 7047     		bx	lr
  62              		.cfi_endproc
  63              	.LFE290:
  65              		.section	.text.build_month,"ax",%progbits
  66              		.align	1
  67              		.syntax unified
  68              		.thumb
  69              		.thumb_func
  71              	build_month:
  72              	.LFB293:
 799:Core/Src/main_unique.c **** 
 800:Core/Src/main_unique.c **** int8_t adc_joystick_dir_x(void) { return adc_dir(s_raw_x); }
 801:Core/Src/main_unique.c **** int8_t adc_joystick_dir_y(void) { return adc_dir(s_raw_y); }
 802:Core/Src/main_unique.c **** 
 803:Core/Src/main_unique.c **** /* ==========================================================================
 804:Core/Src/main_unique.c ****  * 9. MODULO rtc
 805:Core/Src/main_unique.c ****  *    RTC interno alimentado por el LSE, con despertador de 1 s.
 806:Core/Src/main_unique.c ****  *
 807:Core/Src/main_unique.c ****  *    Cadena de division del RTC:
 808:Core/Src/main_unique.c ****  *      f_ck_spre = LSE / ((AsynchPrediv + 1) * (SynchPrediv + 1))
 809:Core/Src/main_unique.c ****  *                = 32768 / (128 * 256) = 1 Hz
 810:Core/Src/main_unique.c ****  *
 811:Core/Src/main_unique.c ****  *    El RTC reside en el dominio de respaldo, alimentado desde VBAT cuando
 812:Core/Src/main_unique.c ****  *    desaparece VDD: con pila, la cuenta sobrevive al corte de alimentacion.
 813:Core/Src/main_unique.c ****  *    Se usa RTC_BKP_DR0 como testigo para no reinicializar la hora en cada
 814:Core/Src/main_unique.c ****  *    arranque.
 815:Core/Src/main_unique.c ****  * ========================================================================== */
 816:Core/Src/main_unique.c **** 
 817:Core/Src/main_unique.c **** /* Bandera puesta a 1 por la interrupcion de despertador cada segundo.
 818:Core/Src/main_unique.c ****    La consume la maquina de estados para refrescar la linea 1 del LCD. */
 819:Core/Src/main_unique.c **** volatile uint8_t g_rtc_second_flag = 0;
 820:Core/Src/main_unique.c **** 
 821:Core/Src/main_unique.c **** /* ------------------------------------------------------------------------
 822:Core/Src/main_unique.c ****  * Conversion de las macros __DATE__ y __TIME__ del compilador.
 823:Core/Src/main_unique.c ****  * Permite que, la primera vez que se programa la placa, el RTC arranque con
 824:Core/Src/main_unique.c ****  * la fecha y hora reales del momento de compilacion en lugar de un valor fijo.
 825:Core/Src/main_unique.c ****  * __DATE__ tiene el formato "Jul 21 2026"; __TIME__ el formato "14:35:07".
 826:Core/Src/main_unique.c ****  * ---------------------------------------------------------------------- */
 827:Core/Src/main_unique.c **** static uint8_t build_month(void)
 828:Core/Src/main_unique.c **** {
  73              		.loc 1 828 1 is_stmt 1 view -0
  74              		.cfi_startproc
  75              		@ args = 0, pretend = 0, frame = 0
  76              		@ frame_needed = 0, uses_anonymous_args = 0
  77              		@ link register save eliminated.
 829:Core/Src/main_unique.c ****     /* Tabla de las tres primeras letras de cada mes en ingles */
 830:Core/Src/main_unique.c ****     static const char months[] = "JanFebMarAprMayJunJulAugSepOctNovDec";
  78              		.loc 1 830 5 view .LVU12
 831:Core/Src/main_unique.c ****     const char *d = __DATE__;
  79              		.loc 1 831 5 view .LVU13
  80              	.LVL6:
 832:Core/Src/main_unique.c ****     uint8_t i;
ARM GAS  /tmp/ccjBgtoi.s 			page 17


  81              		.loc 1 832 5 view .LVU14
 833:Core/Src/main_unique.c **** 
 834:Core/Src/main_unique.c ****     for (i = 0; i < 12U; i++) {
  82              		.loc 1 834 5 view .LVU15
  83              		.loc 1 834 12 is_stmt 0 view .LVU16
  84 0000 0023     		movs	r3, #0
  85              		.loc 1 834 5 view .LVU17
  86 0002 01E0     		b	.L6
  87              	.LVL7:
  88              	.L7:
  89              		.loc 1 834 27 is_stmt 1 discriminator 1 view .LVU18
  90 0004 0133     		adds	r3, r3, #1
  91              	.LVL8:
  92              		.loc 1 834 27 is_stmt 0 discriminator 1 view .LVU19
  93 0006 DBB2     		uxtb	r3, r3
  94              	.LVL9:
  95              	.L6:
  96              		.loc 1 834 19 is_stmt 1 discriminator 2 view .LVU20
  97 0008 0B2B     		cmp	r3, #11
  98 000a 11D8     		bhi	.L10
 835:Core/Src/main_unique.c ****         if (d[0] == months[i * 3] &&
  99              		.loc 1 835 9 view .LVU21
 100              		.loc 1 835 30 is_stmt 0 view .LVU22
 101 000c 03EB4302 		add	r2, r3, r3, lsl #1
 102              		.loc 1 835 27 view .LVU23
 103 0010 0849     		ldr	r1, .L11
 104 0012 895C     		ldrb	r1, [r1, r2]	@ zero_extendqisi2
 105              		.loc 1 835 12 view .LVU24
 106 0014 4A29     		cmp	r1, #74
 107 0016 F5D1     		bne	.L7
 836:Core/Src/main_unique.c ****             d[1] == months[i * 3 + 1] &&
 108              		.loc 1 836 34 view .LVU25
 109 0018 511C     		adds	r1, r2, #1
 110              		.loc 1 836 27 view .LVU26
 111 001a 0648     		ldr	r0, .L11
 112 001c 415C     		ldrb	r1, [r0, r1]	@ zero_extendqisi2
 835:Core/Src/main_unique.c ****         if (d[0] == months[i * 3] &&
 113              		.loc 1 835 35 discriminator 1 view .LVU27
 114 001e 7529     		cmp	r1, #117
 115 0020 F0D1     		bne	.L7
 837:Core/Src/main_unique.c ****             d[2] == months[i * 3 + 2]) {
 116              		.loc 1 837 34 view .LVU28
 117 0022 0232     		adds	r2, r2, #2
 118              		.loc 1 837 27 view .LVU29
 119 0024 825C     		ldrb	r2, [r0, r2]	@ zero_extendqisi2
 836:Core/Src/main_unique.c ****             d[1] == months[i * 3 + 1] &&
 120              		.loc 1 836 39 discriminator 1 view .LVU30
 121 0026 6C2A     		cmp	r2, #108
 122 0028 ECD1     		bne	.L7
 838:Core/Src/main_unique.c ****             return (uint8_t)(i + 1U);   /* los meses del RTC van de 1 a 12 */
 123              		.loc 1 838 13 is_stmt 1 view .LVU31
 124              		.loc 1 838 20 is_stmt 0 view .LVU32
 125 002a 0133     		adds	r3, r3, #1
 126              	.LVL10:
 127              		.loc 1 838 20 view .LVU33
 128 002c D8B2     		uxtb	r0, r3
 129 002e 7047     		bx	lr
ARM GAS  /tmp/ccjBgtoi.s 			page 18


 130              	.LVL11:
 131              	.L10:
 839:Core/Src/main_unique.c ****         }
 840:Core/Src/main_unique.c ****     }
 841:Core/Src/main_unique.c ****     return 1U;
 132              		.loc 1 841 12 view .LVU34
 133 0030 0120     		movs	r0, #1
 842:Core/Src/main_unique.c **** }
 134              		.loc 1 842 1 view .LVU35
 135 0032 7047     		bx	lr
 136              	.L12:
 137              		.align	2
 138              	.L11:
 139 0034 00000000 		.word	months.2
 140              		.cfi_endproc
 141              	.LFE293:
 143              		.section	.text.build_day,"ax",%progbits
 144              		.align	1
 145              		.syntax unified
 146              		.thumb
 147              		.thumb_func
 149              	build_day:
 150              	.LFB294:
 843:Core/Src/main_unique.c **** 
 844:Core/Src/main_unique.c **** static uint8_t build_day(void)
 845:Core/Src/main_unique.c **** {
 151              		.loc 1 845 1 is_stmt 1 view -0
 152              		.cfi_startproc
 153              		@ args = 0, pretend = 0, frame = 0
 154              		@ frame_needed = 0, uses_anonymous_args = 0
 155              		@ link register save eliminated.
 846:Core/Src/main_unique.c ****     const char *d = __DATE__;
 156              		.loc 1 846 5 view .LVU37
 157              	.LVL12:
 847:Core/Src/main_unique.c ****     /* La posicion 4 es un espacio para los dias de un digito */
 848:Core/Src/main_unique.c ****     uint8_t tens = (d[4] == ' ') ? 0U : (uint8_t)(d[4] - '0');
 158              		.loc 1 848 5 view .LVU38
 849:Core/Src/main_unique.c ****     return (uint8_t)(tens * 10U + (uint8_t)(d[5] - '0'));
 159              		.loc 1 849 5 view .LVU39
 850:Core/Src/main_unique.c **** }
 160              		.loc 1 850 1 is_stmt 0 view .LVU40
 161 0000 1620     		movs	r0, #22
 162 0002 7047     		bx	lr
 163              		.cfi_endproc
 164              	.LFE294:
 166              		.section	.text.build_year,"ax",%progbits
 167              		.align	1
 168              		.syntax unified
 169              		.thumb
 170              		.thumb_func
 172              	build_year:
 173              	.LFB295:
 851:Core/Src/main_unique.c **** 
 852:Core/Src/main_unique.c **** static uint8_t build_year(void)
 853:Core/Src/main_unique.c **** {
 174              		.loc 1 853 1 is_stmt 1 view -0
 175              		.cfi_startproc
ARM GAS  /tmp/ccjBgtoi.s 			page 19


 176              		@ args = 0, pretend = 0, frame = 0
 177              		@ frame_needed = 0, uses_anonymous_args = 0
 178              		@ link register save eliminated.
 854:Core/Src/main_unique.c ****     const char *d = __DATE__;
 179              		.loc 1 854 5 view .LVU42
 180              	.LVL13:
 855:Core/Src/main_unique.c ****     /* El RTC almacena solo los dos ultimos digitos del ano */
 856:Core/Src/main_unique.c ****     return (uint8_t)((d[9] - '0') * 10 + (d[10] - '0'));
 181              		.loc 1 856 5 view .LVU43
 857:Core/Src/main_unique.c **** }
 182              		.loc 1 857 1 is_stmt 0 view .LVU44
 183 0000 1A20     		movs	r0, #26
 184 0002 7047     		bx	lr
 185              		.cfi_endproc
 186              	.LFE295:
 188              		.section	.rodata.build_field.str1.4,"aMS",%progbits,1
 189              		.align	2
 190              	.LC0:
 191 0000 31373A32 		.ascii	"17:28:50\000"
 191      383A3530 
 191      00
 192              		.section	.text.build_field,"ax",%progbits
 193              		.align	1
 194              		.syntax unified
 195              		.thumb
 196              		.thumb_func
 198              	build_field:
 199              	.LVL14:
 200              	.LFB296:
 858:Core/Src/main_unique.c **** 
 859:Core/Src/main_unique.c **** static uint8_t build_field(uint8_t offset)
 860:Core/Src/main_unique.c **** {
 201              		.loc 1 860 1 is_stmt 1 view -0
 202              		.cfi_startproc
 203              		@ args = 0, pretend = 0, frame = 0
 204              		@ frame_needed = 0, uses_anonymous_args = 0
 205              		@ link register save eliminated.
 861:Core/Src/main_unique.c ****     const char *t = __TIME__;   /* "HH:MM:SS" */
 206              		.loc 1 861 5 view .LVU46
 862:Core/Src/main_unique.c ****     return (uint8_t)((t[offset] - '0') * 10 + (t[offset + 1] - '0'));
 207              		.loc 1 862 5 view .LVU47
 208              		.loc 1 862 24 is_stmt 0 view .LVU48
 209 0000 064A     		ldr	r2, .L16
 210 0002 135C     		ldrb	r3, [r2, r0]	@ zero_extendqisi2
 211              		.loc 1 862 57 view .LVU49
 212 0004 0130     		adds	r0, r0, #1
 213              	.LVL15:
 214              		.loc 1 862 49 view .LVU50
 215 0006 105C     		ldrb	r0, [r2, r0]	@ zero_extendqisi2
 216              	.LVL16:
 217              		.loc 1 862 45 view .LVU51
 218 0008 303B     		subs	r3, r3, #48
 219 000a 03EB8303 		add	r3, r3, r3, lsl #2
 220 000e 00EB4300 		add	r0, r0, r3, lsl #1
 221 0012 C0B2     		uxtb	r0, r0
 222              		.loc 1 862 12 view .LVU52
 223 0014 3038     		subs	r0, r0, #48
ARM GAS  /tmp/ccjBgtoi.s 			page 20


 863:Core/Src/main_unique.c **** }
 224              		.loc 1 863 1 view .LVU53
 225 0016 C0B2     		uxtb	r0, r0
 226 0018 7047     		bx	lr
 227              	.L17:
 228 001a 00BF     		.align	2
 229              	.L16:
 230 001c 00000000 		.word	.LC0
 231              		.cfi_endproc
 232              	.LFE296:
 234              		.section	.text.dwt_init,"ax",%progbits
 235              		.align	1
 236              		.syntax unified
 237              		.thumb
 238              		.thumb_func
 240              	dwt_init:
 241              	.LFB301:
 864:Core/Src/main_unique.c **** 
 865:Core/Src/main_unique.c **** void rtc_init(void)
 866:Core/Src/main_unique.c **** {
 867:Core/Src/main_unique.c ****     RTC_TimeTypeDef          time = {0};
 868:Core/Src/main_unique.c ****     RTC_DateTypeDef          date = {0};
 869:Core/Src/main_unique.c ****     RCC_PeriphCLKInitTypeDef pclk = {0};
 870:Core/Src/main_unique.c ****     uint32_t src_wanted;      /* fuente de reloj elegida para el RTC   */
 871:Core/Src/main_unique.c ****     uint32_t prediv_a;        /* prescalador asincrono                 */
 872:Core/Src/main_unique.c ****     uint32_t prediv_s;        /* prescalador sincrono                  */
 873:Core/Src/main_unique.c **** 
 874:Core/Src/main_unique.c ****     /* --- 1. Seleccion de la fuente de reloj del RTC ---------------------- */
 875:Core/Src/main_unique.c ****     /* Si el cristal LSE arranco se usa el, que es lo que exige el enunciado.
 876:Core/Src/main_unique.c ****        Si no arranco (cristal X2 ausente en la placa) se recurre al LSI para
 877:Core/Src/main_unique.c ****        que el resto del sistema siga siendo utilizable, advirtiendolo por la
 878:Core/Src/main_unique.c ****        consola. El LSI es un oscilador RC interno con una deriva de hasta
 879:Core/Src/main_unique.c ****        +-50 % y, sobre todo, SE DETIENE al perder VDD: con el, la hora no
 880:Core/Src/main_unique.c ****        sobrevive al corte de alimentacion. */
 881:Core/Src/main_unique.c ****     if (system_clock_lse_ok()) {
 882:Core/Src/main_unique.c ****         src_wanted = RCC_RTCCLKSOURCE_LSE;
 883:Core/Src/main_unique.c ****         prediv_a   = 127U;   /* 32768 / 128 = 256 Hz */
 884:Core/Src/main_unique.c ****         prediv_s   = 255U;   /* 256   / 256 = 1 Hz   */
 885:Core/Src/main_unique.c ****     } else {
 886:Core/Src/main_unique.c ****         __HAL_RCC_LSI_ENABLE();
 887:Core/Src/main_unique.c ****         while (__HAL_RCC_GET_FLAG(RCC_FLAG_LSIRDY) == RESET) { }
 888:Core/Src/main_unique.c **** 
 889:Core/Src/main_unique.c ****         src_wanted = RCC_RTCCLKSOURCE_LSI;
 890:Core/Src/main_unique.c ****         prediv_a   = 127U;   /* LSI nominal 32 kHz: 32000 / 128 = 250 Hz */
 891:Core/Src/main_unique.c ****         prediv_s   = 249U;   /* 250 / 250 = 1 Hz (aproximado)            */
 892:Core/Src/main_unique.c **** 
 893:Core/Src/main_unique.c ****         uart_send_line("AVISO: el LSE no arranco. RTC funcionando con LSI.");
 894:Core/Src/main_unique.c ****         uart_send_line("       Revisar el cristal X2 y los puentes SB48/SB49.");
 895:Core/Src/main_unique.c ****     }
 896:Core/Src/main_unique.c **** 
 897:Core/Src/main_unique.c ****     /* Cambiar RTCSEL obliga a un reset del dominio de respaldo, lo que
 898:Core/Src/main_unique.c ****        borraria la hora. Por eso solo se configura si la fuente actual no es
 899:Core/Src/main_unique.c ****        ya la deseada, es decir, unicamente en el primer arranque tras montar
 900:Core/Src/main_unique.c ****        la pila o tras un borrado completo. */
 901:Core/Src/main_unique.c ****     if (__HAL_RCC_GET_RTC_SOURCE() != src_wanted) {
 902:Core/Src/main_unique.c ****         pclk.PeriphClockSelection = RCC_PERIPHCLK_RTC;
 903:Core/Src/main_unique.c ****         pclk.RTCClockSelection    = src_wanted;
ARM GAS  /tmp/ccjBgtoi.s 			page 21


 904:Core/Src/main_unique.c ****         if (HAL_RCCEx_PeriphCLKConfig(&pclk) != HAL_OK) {
 905:Core/Src/main_unique.c ****             Error_Handler();
 906:Core/Src/main_unique.c ****         }
 907:Core/Src/main_unique.c ****     }
 908:Core/Src/main_unique.c **** 
 909:Core/Src/main_unique.c ****     __HAL_RCC_RTC_ENABLE();   /* habilita el reloj del bloque RTC */
 910:Core/Src/main_unique.c **** 
 911:Core/Src/main_unique.c ****     /* --- 2. Parametros del contador ------------------------------------- */
 912:Core/Src/main_unique.c ****     hrtc.Instance            = RTC;
 913:Core/Src/main_unique.c ****     hrtc.Init.HourFormat     = RTC_HOURFORMAT_24;  /* alternativa: _12 con AM/PM */
 914:Core/Src/main_unique.c ****     hrtc.Init.AsynchPrediv   = prediv_a;           /* calculado mas arriba  */
 915:Core/Src/main_unique.c ****     hrtc.Init.SynchPrediv    = prediv_s;           /* segun la fuente activa */
 916:Core/Src/main_unique.c ****     hrtc.Init.OutPut         = RTC_OUTPUT_DISABLE; /* sin salida por PC13   */
 917:Core/Src/main_unique.c ****     hrtc.Init.OutPutPolarity = RTC_OUTPUT_POLARITY_HIGH;
 918:Core/Src/main_unique.c ****     hrtc.Init.OutPutType     = RTC_OUTPUT_TYPE_OPENDRAIN;
 919:Core/Src/main_unique.c **** 
 920:Core/Src/main_unique.c ****     if (HAL_RTC_Init(&hrtc) != HAL_OK) {
 921:Core/Src/main_unique.c ****         Error_Handler();
 922:Core/Src/main_unique.c ****     }
 923:Core/Src/main_unique.c **** 
 924:Core/Src/main_unique.c ****     /* --- 3. Carga de fecha y hora solo en el primer arranque -------------- */
 925:Core/Src/main_unique.c ****     if (HAL_RTCEx_BKUPRead(&hrtc, RTC_BKP_DR0) != RTC_BACKUP_SIGNATURE) {
 926:Core/Src/main_unique.c **** 
 927:Core/Src/main_unique.c ****         time.Hours   = build_field(0);   /* posiciones 0-1 de __TIME__ */
 928:Core/Src/main_unique.c ****         time.Minutes = build_field(3);   /* posiciones 3-4             */
 929:Core/Src/main_unique.c ****         time.Seconds = build_field(6);   /* posiciones 6-7             */
 930:Core/Src/main_unique.c ****         time.TimeFormat     = RTC_HOURFORMAT12_AM;  /* ignorado en modo 24 h */
 931:Core/Src/main_unique.c ****         time.DayLightSaving = RTC_DAYLIGHTSAVING_NONE;
 932:Core/Src/main_unique.c ****         time.StoreOperation = RTC_STOREOPERATION_RESET;
 933:Core/Src/main_unique.c **** 
 934:Core/Src/main_unique.c ****         if (HAL_RTC_SetTime(&hrtc, &time, RTC_FORMAT_BIN) != HAL_OK) {
 935:Core/Src/main_unique.c ****             Error_Handler();
 936:Core/Src/main_unique.c ****         }
 937:Core/Src/main_unique.c ****         /* RTC_FORMAT_BIN acepta valores decimales normales; la alternativa
 938:Core/Src/main_unique.c ****            RTC_FORMAT_BCD exigiria codificar cada digito en un nibble. */
 939:Core/Src/main_unique.c **** 
 940:Core/Src/main_unique.c ****         date.WeekDay = RTC_WEEKDAY_MONDAY;  /* no se muestra en el LCD */
 941:Core/Src/main_unique.c ****         date.Month   = build_month();
 942:Core/Src/main_unique.c ****         date.Date    = build_day();
 943:Core/Src/main_unique.c ****         date.Year    = build_year();
 944:Core/Src/main_unique.c **** 
 945:Core/Src/main_unique.c ****         if (HAL_RTC_SetDate(&hrtc, &date, RTC_FORMAT_BIN) != HAL_OK) {
 946:Core/Src/main_unique.c ****             Error_Handler();
 947:Core/Src/main_unique.c ****         }
 948:Core/Src/main_unique.c **** 
 949:Core/Src/main_unique.c ****         /* Deja constancia de que el RTC ya esta puesto en hora */
 950:Core/Src/main_unique.c ****         HAL_RTCEx_BKUPWrite(&hrtc, RTC_BKP_DR0, RTC_BACKUP_SIGNATURE);
 951:Core/Src/main_unique.c ****     }
 952:Core/Src/main_unique.c **** 
 953:Core/Src/main_unique.c ****     /* --- 4. Despertador periodico de 1 s --------------------------------- */
 954:Core/Src/main_unique.c ****     /* Se desactiva primero por si quedo activo de una ejecucion anterior:
 955:Core/Src/main_unique.c ****        el dominio de respaldo no se reinicia con el reset del nucleo. */
 956:Core/Src/main_unique.c ****     HAL_RTCEx_DeactivateWakeUpTimer(&hrtc);
 957:Core/Src/main_unique.c **** 
 958:Core/Src/main_unique.c ****     HAL_NVIC_SetPriority(RTC_WKUP_IRQn, 9, 0);
 959:Core/Src/main_unique.c ****     HAL_NVIC_EnableIRQ(RTC_WKUP_IRQn);
 960:Core/Src/main_unique.c **** 
ARM GAS  /tmp/ccjBgtoi.s 			page 22


 961:Core/Src/main_unique.c ****     /* Contador 0 con reloj ck_spre (1 Hz) produce un evento cada segundo.
 962:Core/Src/main_unique.c ****        Alternativa: RTC_WAKEUPCLOCK_RTCCLK_DIV16, que permite periodos por
 963:Core/Src/main_unique.c ****        debajo del segundo a costa de un contador mas complejo. */
 964:Core/Src/main_unique.c ****     if (HAL_RTCEx_SetWakeUpTimer_IT(&hrtc, 0U,
 965:Core/Src/main_unique.c ****                                     RTC_WAKEUPCLOCK_CK_SPRE_16BITS) != HAL_OK) {
 966:Core/Src/main_unique.c ****         Error_Handler();
 967:Core/Src/main_unique.c ****     }
 968:Core/Src/main_unique.c **** }
 969:Core/Src/main_unique.c **** 
 970:Core/Src/main_unique.c **** /*
 971:Core/Src/main_unique.c ****  * rtc_get_time
 972:Core/Src/main_unique.c ****  * Lee hora y fecha. HAL_RTC_GetTime bloquea los registros sombra hasta que se
 973:Core/Src/main_unique.c ****  * lee la fecha, de modo que ambas llamadas deben hacerse siempre en pareja y
 974:Core/Src/main_unique.c ****  * en este orden; de lo contrario el contador deja de actualizar la lectura.
 975:Core/Src/main_unique.c ****  */
 976:Core/Src/main_unique.c **** void rtc_get_time(RTC_TimeTypeDef *t, RTC_DateTypeDef *d)
 977:Core/Src/main_unique.c **** {
 978:Core/Src/main_unique.c ****     HAL_RTC_GetTime(&hrtc, t, RTC_FORMAT_BIN);
 979:Core/Src/main_unique.c ****     HAL_RTC_GetDate(&hrtc, d, RTC_FORMAT_BIN);
 980:Core/Src/main_unique.c **** }
 981:Core/Src/main_unique.c **** 
 982:Core/Src/main_unique.c **** /*
 983:Core/Src/main_unique.c ****  * rtc_format_line
 984:Core/Src/main_unique.c ****  * Compone la cadena "HH:MM:SS DD-MM" en el buffer indicado.
 985:Core/Src/main_unique.c ****  */
 986:Core/Src/main_unique.c **** void rtc_format_line(char *dst, uint8_t len)
 987:Core/Src/main_unique.c **** {
 988:Core/Src/main_unique.c ****     RTC_TimeTypeDef t;
 989:Core/Src/main_unique.c ****     RTC_DateTypeDef d;
 990:Core/Src/main_unique.c **** 
 991:Core/Src/main_unique.c ****     rtc_get_time(&t, &d);
 992:Core/Src/main_unique.c **** 
 993:Core/Src/main_unique.c ****     snprintf(dst, len, "%02u:%02u:%02u %02u-%02u",
 994:Core/Src/main_unique.c ****              (unsigned)t.Hours, (unsigned)t.Minutes, (unsigned)t.Seconds,
 995:Core/Src/main_unique.c ****              (unsigned)d.Date,  (unsigned)d.Month);
 996:Core/Src/main_unique.c **** }
 997:Core/Src/main_unique.c **** 
 998:Core/Src/main_unique.c **** /*
 999:Core/Src/main_unique.c ****  * HAL_RTCEx_WakeUpTimerEventCallback
1000:Core/Src/main_unique.c ****  * Invocada cada segundo desde HAL_RTCEx_WakeUpTimerIRQHandler.
1001:Core/Src/main_unique.c ****  * Solo levanta una bandera: el refresco del LCD usa I2C y no puede ejecutarse
1002:Core/Src/main_unique.c ****  * en contexto de interrupcion.
1003:Core/Src/main_unique.c ****  */
1004:Core/Src/main_unique.c **** void HAL_RTCEx_WakeUpTimerEventCallback(RTC_HandleTypeDef *h)
1005:Core/Src/main_unique.c **** {
1006:Core/Src/main_unique.c ****     (void)h;                    /* parametro no usado: evita un aviso */
1007:Core/Src/main_unique.c ****     g_rtc_second_flag = 1U;
1008:Core/Src/main_unique.c **** }
1009:Core/Src/main_unique.c **** 
1010:Core/Src/main_unique.c **** /* ==========================================================================
1011:Core/Src/main_unique.c ****  * 10. MODULO i2c_lcd
1012:Core/Src/main_unique.c ****  *     LCD HD44780 gobernado por un expansor PCF8574 sobre el bus I2C1.
1013:Core/Src/main_unique.c ****  *
1014:Core/Src/main_unique.c ****  *     Conexionado por defecto: SCL -> PB8, SDA -> PB9.
1015:Core/Src/main_unique.c ****  *     Alternativo con -DLCD_USE_PB6_PB7: SCL -> PB6, SDA -> PB7.
1016:Core/Src/main_unique.c ****  *     VCC -> 5V (el HD44780 no funciona de forma fiable a 3.3 V), GND -> GND.
1017:Core/Src/main_unique.c ****  *
ARM GAS  /tmp/ccjBgtoi.s 			page 23


1018:Core/Src/main_unique.c ****  *     Bits del PCF8574 hacia el HD44780:
1019:Core/Src/main_unique.c ****  *       P0 -> RS   P1 -> RW   P2 -> EN   P3 -> luz   P4..P7 -> D4..D7
1020:Core/Src/main_unique.c ****  *
1021:Core/Src/main_unique.c ****  *     El HD44780 se opera en modo de 4 bits: cada byte se envia en dos
1022:Core/Src/main_unique.c ****  *     mitades (nibbles). Optimizacion importante: los cuatro estados que
1023:Core/Src/main_unique.c ****  *     componen un caracter se envian en UNA sola transaccion I2C de cuatro
1024:Core/Src/main_unique.c ****  *     bytes; el propio reloj del bus separa los flancos. Esto reduce el
1025:Core/Src/main_unique.c ****  *     tiempo de escritura de una linea de unos 64 ms a unos 7 ms.
1026:Core/Src/main_unique.c ****  * ========================================================================== */
1027:Core/Src/main_unique.c **** 
1028:Core/Src/main_unique.c **** /* Direccion de 7 bits del expansor detectada durante la inicializacion */
1029:Core/Src/main_unique.c **** static uint8_t  s_addr7   = 0x27U;
1030:Core/Src/main_unique.c **** 
1031:Core/Src/main_unique.c **** /* 1 si algun dispositivo respondio en el bus */
1032:Core/Src/main_unique.c **** static uint8_t  s_present = 0;
1033:Core/Src/main_unique.c **** 
1034:Core/Src/main_unique.c **** /* Numero de transacciones I2C que devolvieron error */
1035:Core/Src/main_unique.c **** static uint32_t s_errors  = 0;
1036:Core/Src/main_unique.c **** 
1037:Core/Src/main_unique.c **** /* Estado de la retroiluminacion: se mezcla con cada byte enviado */
1038:Core/Src/main_unique.c **** static uint8_t  s_backlight = 0x08U;   /* bit P3 a 1 = luz encendida */
1039:Core/Src/main_unique.c **** 
1040:Core/Src/main_unique.c **** /* Direcciones de memoria DDRAM donde empieza cada fila.
1041:Core/Src/main_unique.c ****    En los modulos de 4 filas las lineas no son contiguas:
1042:Core/Src/main_unique.c ****    la fila 3 continua a la fila 1 y la fila 4 continua a la fila 2. */
1043:Core/Src/main_unique.c **** static const uint8_t s_row_offset[LCD_ROWS] = { 0x00U, 0x40U, 0x14U, 0x54U };
1044:Core/Src/main_unique.c **** 
1045:Core/Src/main_unique.c **** /* ---------------------------------------------------------------------------
1046:Core/Src/main_unique.c ****  * Retardo de microsegundos basado en el contador de ciclos del nucleo (DWT).
1047:Core/Src/main_unique.c ****  * HAL_Delay solo ofrece resolucion de milisegundo, que aqui es tres ordenes de
1048:Core/Src/main_unique.c ****  * magnitud mas de lo necesario y hace el refresco inaceptablemente lento.
1049:Core/Src/main_unique.c ****  * El DWT existe en todos los Cortex-M3/M4/M7 y funciona sin depurador
1050:Core/Src/main_unique.c ****  * conectado, siempre que se habilite TRCENA.
1051:Core/Src/main_unique.c ****  * ------------------------------------------------------------------------- */
1052:Core/Src/main_unique.c **** static void dwt_init(void)
1053:Core/Src/main_unique.c **** {
 242              		.loc 1 1053 1 is_stmt 1 view -0
 243              		.cfi_startproc
 244              		@ args = 0, pretend = 0, frame = 0
 245              		@ frame_needed = 0, uses_anonymous_args = 0
 246              		@ link register save eliminated.
1054:Core/Src/main_unique.c ****     CoreDebug->DEMCR |= CoreDebug_DEMCR_TRCENA_Msk;  /* habilita el bloque de traza */
 247              		.loc 1 1054 5 view .LVU55
 248              		.loc 1 1054 14 is_stmt 0 view .LVU56
 249 0000 074A     		ldr	r2, .L19
 250 0002 D2F8FC30 		ldr	r3, [r2, #252]
 251              		.loc 1 1054 22 view .LVU57
 252 0006 43F08073 		orr	r3, r3, #16777216
 253 000a C2F8FC30 		str	r3, [r2, #252]
1055:Core/Src/main_unique.c ****     DWT->CYCCNT = 0U;                                /* reinicia el contador        */
 254              		.loc 1 1055 5 is_stmt 1 view .LVU58
 255              		.loc 1 1055 17 is_stmt 0 view .LVU59
 256 000e 054B     		ldr	r3, .L19+4
 257 0010 0022     		movs	r2, #0
 258 0012 5A60     		str	r2, [r3, #4]
1056:Core/Src/main_unique.c ****     DWT->CTRL  |= DWT_CTRL_CYCCNTENA_Msk;            /* arranca el contador         */
 259              		.loc 1 1056 5 is_stmt 1 view .LVU60
ARM GAS  /tmp/ccjBgtoi.s 			page 24


 260              		.loc 1 1056 8 is_stmt 0 view .LVU61
 261 0014 1A68     		ldr	r2, [r3]
 262              		.loc 1 1056 16 view .LVU62
 263 0016 42F00102 		orr	r2, r2, #1
 264 001a 1A60     		str	r2, [r3]
1057:Core/Src/main_unique.c **** }
 265              		.loc 1 1057 1 view .LVU63
 266 001c 7047     		bx	lr
 267              	.L20:
 268 001e 00BF     		.align	2
 269              	.L19:
 270 0020 00ED00E0 		.word	-536810240
 271 0024 001000E0 		.word	-536866816
 272              		.cfi_endproc
 273              	.LFE301:
 275              		.section	.text.delay_us,"ax",%progbits
 276              		.align	1
 277              		.syntax unified
 278              		.thumb
 279              		.thumb_func
 281              	delay_us:
 282              	.LVL17:
 283              	.LFB302:
1058:Core/Src/main_unique.c **** 
1059:Core/Src/main_unique.c **** static void delay_us(uint32_t us)
1060:Core/Src/main_unique.c **** {
 284              		.loc 1 1060 1 is_stmt 1 view -0
 285              		.cfi_startproc
 286              		@ args = 0, pretend = 0, frame = 0
 287              		@ frame_needed = 0, uses_anonymous_args = 0
 288              		@ link register save eliminated.
1061:Core/Src/main_unique.c ****     uint32_t start = DWT->CYCCNT;
 289              		.loc 1 1061 5 view .LVU65
 290              		.loc 1 1061 14 is_stmt 0 view .LVU66
 291 0000 084B     		ldr	r3, .L24
 292 0002 5A68     		ldr	r2, [r3, #4]
 293              	.LVL18:
1062:Core/Src/main_unique.c ****     /* A 100 MHz cada microsegundo son 100 ciclos */
1063:Core/Src/main_unique.c ****     uint32_t ticks = us * (SystemCoreClock / 1000000U);
 294              		.loc 1 1063 5 is_stmt 1 view .LVU67
 295              		.loc 1 1063 44 is_stmt 0 view .LVU68
 296 0004 084B     		ldr	r3, .L24+4
 297 0006 1B68     		ldr	r3, [r3]
 298 0008 0849     		ldr	r1, .L24+8
 299 000a A1FB0313 		umull	r1, r3, r1, r3
 300 000e 9B0C     		lsrs	r3, r3, #18
 301              		.loc 1 1063 14 view .LVU69
 302 0010 03FB00F0 		mul	r0, r3, r0
 303              	.LVL19:
1064:Core/Src/main_unique.c **** 
1065:Core/Src/main_unique.c ****     /* La resta de enteros sin signo es correcta aunque CYCCNT desborde */
1066:Core/Src/main_unique.c ****     while ((DWT->CYCCNT - start) < ticks) {
 304              		.loc 1 1066 5 is_stmt 1 view .LVU70
 305              		.loc 1 1066 11 is_stmt 0 view .LVU71
 306 0014 00E0     		b	.L22
 307              	.L23:
1067:Core/Src/main_unique.c ****         __NOP();
ARM GAS  /tmp/ccjBgtoi.s 			page 25


 308              		.loc 1 1067 9 is_stmt 1 view .LVU72
 309              		.syntax unified
 310              	@ 1067 "Core/Src/main_unique.c" 1
 311 0016 00BF     		nop
 312              	@ 0 "" 2
 313              		.thumb
 314              		.syntax unified
 315              	.L22:
1066:Core/Src/main_unique.c ****         __NOP();
 316              		.loc 1 1066 34 discriminator 1 view .LVU73
1066:Core/Src/main_unique.c ****         __NOP();
 317              		.loc 1 1066 16 is_stmt 0 discriminator 1 view .LVU74
 318 0018 024B     		ldr	r3, .L24
 319 001a 5B68     		ldr	r3, [r3, #4]
1066:Core/Src/main_unique.c ****         __NOP();
 320              		.loc 1 1066 25 discriminator 1 view .LVU75
 321 001c 9B1A     		subs	r3, r3, r2
1066:Core/Src/main_unique.c ****         __NOP();
 322              		.loc 1 1066 34 discriminator 1 view .LVU76
 323 001e 8342     		cmp	r3, r0
 324 0020 F9D3     		bcc	.L23
1068:Core/Src/main_unique.c ****     }
1069:Core/Src/main_unique.c **** }
 325              		.loc 1 1069 1 view .LVU77
 326 0022 7047     		bx	lr
 327              	.L25:
 328              		.align	2
 329              	.L24:
 330 0024 001000E0 		.word	-536866816
 331 0028 00000000 		.word	SystemCoreClock
 332 002c 83DE1B43 		.word	1125899907
 333              		.cfi_endproc
 334              	.LFE302:
 336              		.section	.text.fsm_get_event,"ax",%progbits
 337              		.align	1
 338              		.syntax unified
 339              		.thumb
 340              		.thumb_func
 342              	fsm_get_event:
 343              	.LFB321:
1070:Core/Src/main_unique.c **** 
1071:Core/Src/main_unique.c **** /* --- Capa fisica --------------------------------------------------------- */
1072:Core/Src/main_unique.c **** 
1073:Core/Src/main_unique.c **** /*
1074:Core/Src/main_unique.c ****  * lcd_tx
1075:Core/Src/main_unique.c ****  * Envia n bytes al PCF8574 en una sola transaccion. Devuelve 1 si tuvo exito.
1076:Core/Src/main_unique.c ****  * Contabiliza los fallos para poder diagnosticarlos desde la consola.
1077:Core/Src/main_unique.c ****  */
1078:Core/Src/main_unique.c **** static uint8_t lcd_tx(uint8_t *data, uint16_t n)
1079:Core/Src/main_unique.c **** {
1080:Core/Src/main_unique.c ****     HAL_StatusTypeDef st;
1081:Core/Src/main_unique.c **** 
1082:Core/Src/main_unique.c ****     /* La HAL espera la direccion de 8 bits: el bit 0 queda reservado al
1083:Core/Src/main_unique.c ****        sentido de la transferencia, de ahi el desplazamiento a la izquierda.
1084:Core/Src/main_unique.c ****        Pasar 0x27 en lugar de 0x4E es el error mas frecuente al portar codigo
1085:Core/Src/main_unique.c ****        de Arduino, donde la libreria Wire espera los 7 bits sin desplazar. */
1086:Core/Src/main_unique.c ****     st = HAL_I2C_Master_Transmit(&hi2c1, (uint16_t)(s_addr7 << 1), data, n, 50U);
ARM GAS  /tmp/ccjBgtoi.s 			page 26


1087:Core/Src/main_unique.c **** 
1088:Core/Src/main_unique.c ****     if (st != HAL_OK) {
1089:Core/Src/main_unique.c ****         s_errors++;
1090:Core/Src/main_unique.c ****         return 0U;
1091:Core/Src/main_unique.c ****     }
1092:Core/Src/main_unique.c ****     return 1U;
1093:Core/Src/main_unique.c **** }
1094:Core/Src/main_unique.c **** 
1095:Core/Src/main_unique.c **** /*
1096:Core/Src/main_unique.c ****  * lcd_send
1097:Core/Src/main_unique.c ****  * Envia un byte completo al controlador en dos nibbles, con los cuatro
1098:Core/Src/main_unique.c ****  * estados de la linea EN agrupados en una unica transaccion I2C.
1099:Core/Src/main_unique.c ****  * mode = 0x00 -> comando (RS = 0);  mode = 0x01 -> dato (RS = 1).
1100:Core/Src/main_unique.c ****  */
1101:Core/Src/main_unique.c **** static void lcd_send(uint8_t value, uint8_t mode)
1102:Core/Src/main_unique.c **** {
1103:Core/Src/main_unique.c ****     uint8_t hi = (uint8_t)((value & 0xF0U)        | mode | s_backlight);
1104:Core/Src/main_unique.c ****     uint8_t lo = (uint8_t)(((value << 4) & 0xF0U) | mode | s_backlight);
1105:Core/Src/main_unique.c **** 
1106:Core/Src/main_unique.c ****     uint8_t seq[4];
1107:Core/Src/main_unique.c ****     seq[0] = (uint8_t)(hi | 0x04U);   /* nibble alto, EN = 1 */
1108:Core/Src/main_unique.c ****     seq[1] = (uint8_t)(hi & ~0x04U);  /* nibble alto, EN = 0 -> captura */
1109:Core/Src/main_unique.c ****     seq[2] = (uint8_t)(lo | 0x04U);   /* nibble bajo, EN = 1 */
1110:Core/Src/main_unique.c ****     seq[3] = (uint8_t)(lo & ~0x04U);  /* nibble bajo, EN = 0 -> captura */
1111:Core/Src/main_unique.c **** 
1112:Core/Src/main_unique.c ****     lcd_tx(seq, 4U);
1113:Core/Src/main_unique.c **** 
1114:Core/Src/main_unique.c ****     /* El HD44780 necesita 37 us para ejecutar la mayoria de instrucciones.
1115:Core/Src/main_unique.c ****        Los comandos lentos (borrado, retorno a origen) anaden su propia espera. */
1116:Core/Src/main_unique.c ****     delay_us(50U);
1117:Core/Src/main_unique.c **** }
1118:Core/Src/main_unique.c **** 
1119:Core/Src/main_unique.c **** /*
1120:Core/Src/main_unique.c ****  * lcd_pulse_nibble
1121:Core/Src/main_unique.c ****  * Variante para la secuencia de arranque, donde solo se envia el nibble alto
1122:Core/Src/main_unique.c ****  * porque el controlador aun no esta en modo de 4 bits.
1123:Core/Src/main_unique.c ****  */
1124:Core/Src/main_unique.c **** static void lcd_pulse_nibble(uint8_t nibble)
1125:Core/Src/main_unique.c **** {
1126:Core/Src/main_unique.c ****     uint8_t seq[2];
1127:Core/Src/main_unique.c ****     seq[0] = (uint8_t)(nibble | 0x04U);
1128:Core/Src/main_unique.c ****     seq[1] = (uint8_t)(nibble & ~0x04U);
1129:Core/Src/main_unique.c **** 
1130:Core/Src/main_unique.c ****     lcd_tx(seq, 2U);
1131:Core/Src/main_unique.c ****     delay_us(50U);
1132:Core/Src/main_unique.c **** }
1133:Core/Src/main_unique.c **** 
1134:Core/Src/main_unique.c **** static void lcd_command(uint8_t c) { lcd_send(c, 0x00U); }
1135:Core/Src/main_unique.c **** static void lcd_data(uint8_t c)    { lcd_send(c, 0x01U); }
1136:Core/Src/main_unique.c **** 
1137:Core/Src/main_unique.c **** /* --- Bus I2C ------------------------------------------------------------- */
1138:Core/Src/main_unique.c **** static void i2c_bus_init(void)
1139:Core/Src/main_unique.c **** {
1140:Core/Src/main_unique.c ****     __HAL_RCC_I2C1_CLK_ENABLE();
1141:Core/Src/main_unique.c **** 
1142:Core/Src/main_unique.c ****     hi2c1.Instance             = I2C1;
1143:Core/Src/main_unique.c ****     hi2c1.Init.ClockSpeed      = 100000U;  /* 100 kHz, modo estandar */
ARM GAS  /tmp/ccjBgtoi.s 			page 27


1144:Core/Src/main_unique.c ****     hi2c1.Init.DutyCycle       = I2C_DUTYCYCLE_2;
1145:Core/Src/main_unique.c ****     hi2c1.Init.OwnAddress1     = 0U;
1146:Core/Src/main_unique.c ****     hi2c1.Init.AddressingMode  = I2C_ADDRESSINGMODE_7BIT;
1147:Core/Src/main_unique.c ****     hi2c1.Init.DualAddressMode = I2C_DUALADDRESS_DISABLE;
1148:Core/Src/main_unique.c ****     hi2c1.Init.OwnAddress2     = 0U;
1149:Core/Src/main_unique.c ****     hi2c1.Init.GeneralCallMode = I2C_GENERALCALL_DISABLE;
1150:Core/Src/main_unique.c ****     hi2c1.Init.NoStretchMode   = I2C_NOSTRETCH_DISABLE;
1151:Core/Src/main_unique.c **** 
1152:Core/Src/main_unique.c ****     if (HAL_I2C_Init(&hi2c1) != HAL_OK) {
1153:Core/Src/main_unique.c ****         Error_Handler();
1154:Core/Src/main_unique.c ****     }
1155:Core/Src/main_unique.c **** }
1156:Core/Src/main_unique.c **** 
1157:Core/Src/main_unique.c **** /*
1158:Core/Src/main_unique.c ****  * lcd_bus_scan_report
1159:Core/Src/main_unique.c ****  * Recorre todas las direcciones validas de 7 bits e informa por la consola de
1160:Core/Src/main_unique.c ****  * cuales responden. Es la herramienta de diagnostico decisiva: distingue un
1161:Core/Src/main_unique.c ****  * problema de direccion (responde algo, pero en otra direccion) de un problema
1162:Core/Src/main_unique.c ****  * de cableado o alimentacion (no responde nadie).
1163:Core/Src/main_unique.c ****  */
1164:Core/Src/main_unique.c **** void lcd_bus_scan_report(void)
1165:Core/Src/main_unique.c **** {
1166:Core/Src/main_unique.c ****     char    buf[48];
1167:Core/Src/main_unique.c ****     uint8_t found = 0U;
1168:Core/Src/main_unique.c ****     uint8_t a;
1169:Core/Src/main_unique.c **** 
1170:Core/Src/main_unique.c ****     uart_send_line("");
1171:Core/Src/main_unique.c ****     uart_send_line("--- Sondeo del bus I2C1 ---");
1172:Core/Src/main_unique.c **** 
1173:Core/Src/main_unique.c ****     /* 0x00 a 0x07 y 0x78 a 0x7F estan reservadas por la especificacion I2C */
1174:Core/Src/main_unique.c ****     for (a = 0x08U; a <= 0x77U; a++) {
1175:Core/Src/main_unique.c ****         if (HAL_I2C_IsDeviceReady(&hi2c1, (uint16_t)(a << 1), 2U, 5U) == HAL_OK) {
1176:Core/Src/main_unique.c ****             snprintf(buf, sizeof(buf), "  dispositivo en 0x%02X", (unsigned)a);
1177:Core/Src/main_unique.c ****             uart_send_line(buf);
1178:Core/Src/main_unique.c ****             found++;
1179:Core/Src/main_unique.c ****         }
1180:Core/Src/main_unique.c ****     }
1181:Core/Src/main_unique.c **** 
1182:Core/Src/main_unique.c ****     if (found == 0U) {
1183:Core/Src/main_unique.c ****         uart_send_line("  NINGUN dispositivo responde.");
1184:Core/Src/main_unique.c ****         uart_send_line("  Revisar: alimentacion del modulo, SDA/SCL sin cruzar,");
1185:Core/Src/main_unique.c ****         uart_send_line("  GND comun y resistencias de pull-up.");
1186:Core/Src/main_unique.c ****     } else {
1187:Core/Src/main_unique.c ****         snprintf(buf, sizeof(buf), "  total: %u dispositivo(s)", (unsigned)found);
1188:Core/Src/main_unique.c ****         uart_send_line(buf);
1189:Core/Src/main_unique.c ****     }
1190:Core/Src/main_unique.c ****     uart_send_line("---------------------------");
1191:Core/Src/main_unique.c **** }
1192:Core/Src/main_unique.c **** 
1193:Core/Src/main_unique.c **** /* --- Inicializacion del controlador -------------------------------------- */
1194:Core/Src/main_unique.c **** void lcd_init(void)
1195:Core/Src/main_unique.c **** {
1196:Core/Src/main_unique.c ****     char    buf[48];
1197:Core/Src/main_unique.c ****     uint8_t a;
1198:Core/Src/main_unique.c **** 
1199:Core/Src/main_unique.c ****     dwt_init();
1200:Core/Src/main_unique.c ****     i2c_bus_init();
ARM GAS  /tmp/ccjBgtoi.s 			page 28


1201:Core/Src/main_unique.c **** 
1202:Core/Src/main_unique.c ****     /* Deteccion automatica de la direccion. En lugar de probar solo 0x27 y
1203:Core/Src/main_unique.c ****        0x3F se recorren los dos rangos completos que puede ocupar el expansor
1204:Core/Src/main_unique.c ****        segun el estado de sus puentes A0/A1/A2:
1205:Core/Src/main_unique.c ****          PCF8574  -> 0x20 a 0x27
1206:Core/Src/main_unique.c ****          PCF8574A -> 0x38 a 0x3F
1207:Core/Src/main_unique.c ****        Asi el firmware funciona con cualquier modulo comercial sin recompilar. */
1208:Core/Src/main_unique.c ****     s_present = 0U;
1209:Core/Src/main_unique.c **** 
1210:Core/Src/main_unique.c ****     for (a = 0x20U; a <= 0x27U; a++) {
1211:Core/Src/main_unique.c ****         if (HAL_I2C_IsDeviceReady(&hi2c1, (uint16_t)(a << 1), 2U, 10U) == HAL_OK) {
1212:Core/Src/main_unique.c ****             s_addr7 = a; s_present = 1U; break;
1213:Core/Src/main_unique.c ****         }
1214:Core/Src/main_unique.c ****     }
1215:Core/Src/main_unique.c ****     if (!s_present) {
1216:Core/Src/main_unique.c ****         for (a = 0x38U; a <= 0x3FU; a++) {
1217:Core/Src/main_unique.c ****             if (HAL_I2C_IsDeviceReady(&hi2c1, (uint16_t)(a << 1), 2U, 10U) == HAL_OK) {
1218:Core/Src/main_unique.c ****                 s_addr7 = a; s_present = 1U; break;
1219:Core/Src/main_unique.c ****             }
1220:Core/Src/main_unique.c ****         }
1221:Core/Src/main_unique.c ****     }
1222:Core/Src/main_unique.c **** 
1223:Core/Src/main_unique.c ****     if (s_present) {
1224:Core/Src/main_unique.c ****         snprintf(buf, sizeof(buf), "LCD: expansor detectado en 0x%02X",
1225:Core/Src/main_unique.c ****                  (unsigned)s_addr7);
1226:Core/Src/main_unique.c ****         uart_send_line(buf);
1227:Core/Src/main_unique.c ****     } else {
1228:Core/Src/main_unique.c ****         uart_send_line("LCD: NO se detecto ningun expansor I2C.");
1229:Core/Src/main_unique.c ****         lcd_bus_scan_report();
1230:Core/Src/main_unique.c ****         return;   /* sin dispositivo no tiene sentido enviar la secuencia */
1231:Core/Src/main_unique.c ****     }
1232:Core/Src/main_unique.c **** 
1233:Core/Src/main_unique.c ****     /* Secuencia de arranque prescrita en la hoja de datos del HD44780 */
1234:Core/Src/main_unique.c ****     HAL_Delay(50);              /* espera a que VCC se estabilice (>40 ms) */
1235:Core/Src/main_unique.c **** 
1236:Core/Src/main_unique.c ****     lcd_pulse_nibble(0x30U | s_backlight);  HAL_Delay(5);  /* 8 bits, intento 1 */
1237:Core/Src/main_unique.c ****     lcd_pulse_nibble(0x30U | s_backlight);  HAL_Delay(1);  /* intento 2         */
1238:Core/Src/main_unique.c ****     lcd_pulse_nibble(0x30U | s_backlight);  HAL_Delay(1);  /* intento 3         */
1239:Core/Src/main_unique.c ****     lcd_pulse_nibble(0x20U | s_backlight);  HAL_Delay(1);  /* conmuta a 4 bits  */
1240:Core/Src/main_unique.c **** 
1241:Core/Src/main_unique.c ****     lcd_command(0x28U);   /* Function set: 4 bits, 2 lineas logicas, fuente 5x8 */
1242:Core/Src/main_unique.c ****     lcd_command(0x08U);   /* Display off                                        */
1243:Core/Src/main_unique.c ****     lcd_command(0x01U);   /* Clear display                                      */
1244:Core/Src/main_unique.c ****     HAL_Delay(2);         /* el borrado tarda 1.52 ms                           */
1245:Core/Src/main_unique.c ****     lcd_command(0x06U);   /* Entry mode: incrementa el cursor, sin desplazar    */
1246:Core/Src/main_unique.c ****     lcd_command(0x0CU);   /* Display on, cursor oculto, sin parpadeo.
1247:Core/Src/main_unique.c ****                              Alternativas: 0x0E muestra el cursor, 0x0F lo hace
1248:Core/Src/main_unique.c ****                              parpadear                                          */
1249:Core/Src/main_unique.c **** 
1250:Core/Src/main_unique.c ****     if (s_errors != 0U) {
1251:Core/Src/main_unique.c ****         snprintf(buf, sizeof(buf), "LCD: %lu fallos I2C durante el arranque",
1252:Core/Src/main_unique.c ****                  (unsigned long)s_errors);
1253:Core/Src/main_unique.c ****         uart_send_line(buf);
1254:Core/Src/main_unique.c ****     }
1255:Core/Src/main_unique.c **** }
1256:Core/Src/main_unique.c **** 
1257:Core/Src/main_unique.c **** /* --- Interfaz de dibujo -------------------------------------------------- */
ARM GAS  /tmp/ccjBgtoi.s 			page 29


1258:Core/Src/main_unique.c **** void lcd_clear(void)
1259:Core/Src/main_unique.c **** {
1260:Core/Src/main_unique.c ****     if (!s_present) return;
1261:Core/Src/main_unique.c ****     lcd_command(0x01U);
1262:Core/Src/main_unique.c ****     HAL_Delay(2);
1263:Core/Src/main_unique.c **** }
1264:Core/Src/main_unique.c **** 
1265:Core/Src/main_unique.c **** void lcd_set_cursor(uint8_t row, uint8_t col)
1266:Core/Src/main_unique.c **** {
1267:Core/Src/main_unique.c ****     if (!s_present) return;
1268:Core/Src/main_unique.c ****     if (row >= LCD_ROWS) row = LCD_ROWS - 1U;
1269:Core/Src/main_unique.c ****     if (col >= LCD_COLS) col = LCD_COLS - 1U;
1270:Core/Src/main_unique.c **** 
1271:Core/Src/main_unique.c ****     /* El comando Set DDRAM Address lleva el bit 7 a 1 */
1272:Core/Src/main_unique.c ****     lcd_command((uint8_t)(0x80U | (s_row_offset[row] + col)));
1273:Core/Src/main_unique.c **** }
1274:Core/Src/main_unique.c **** 
1275:Core/Src/main_unique.c **** void lcd_print(const char *s)
1276:Core/Src/main_unique.c **** {
1277:Core/Src/main_unique.c ****     if (!s_present) return;
1278:Core/Src/main_unique.c ****     while (*s != '\0') {
1279:Core/Src/main_unique.c ****         lcd_data((uint8_t)*s++);
1280:Core/Src/main_unique.c ****     }
1281:Core/Src/main_unique.c **** }
1282:Core/Src/main_unique.c **** 
1283:Core/Src/main_unique.c **** /*
1284:Core/Src/main_unique.c ****  * lcd_print_line
1285:Core/Src/main_unique.c ****  * Escribe una linea completa rellenando con espacios hasta el final, de forma
1286:Core/Src/main_unique.c ****  * que no queden restos del texto anterior. Evita tener que borrar la pantalla
1287:Core/Src/main_unique.c ****  * entera, operacion lenta que produce parpadeo visible.
1288:Core/Src/main_unique.c ****  */
1289:Core/Src/main_unique.c **** void lcd_print_line(uint8_t row, const char *s)
1290:Core/Src/main_unique.c **** {
1291:Core/Src/main_unique.c ****     uint8_t i;
1292:Core/Src/main_unique.c ****     uint8_t end = 0U;   /* 1 cuando ya se alcanzo el fin de la cadena */
1293:Core/Src/main_unique.c **** 
1294:Core/Src/main_unique.c ****     if (!s_present) return;
1295:Core/Src/main_unique.c **** 
1296:Core/Src/main_unique.c ****     lcd_set_cursor(row, 0U);
1297:Core/Src/main_unique.c **** 
1298:Core/Src/main_unique.c ****     for (i = 0U; i < LCD_COLS; i++) {
1299:Core/Src/main_unique.c ****         if (!end && (s[i] == '\0')) {
1300:Core/Src/main_unique.c ****             end = 1U;
1301:Core/Src/main_unique.c ****         }
1302:Core/Src/main_unique.c ****         lcd_data((uint8_t)(end ? ' ' : s[i]));
1303:Core/Src/main_unique.c ****     }
1304:Core/Src/main_unique.c **** }
1305:Core/Src/main_unique.c **** 
1306:Core/Src/main_unique.c **** /* --- Diagnostico --------------------------------------------------------- */
1307:Core/Src/main_unique.c **** uint8_t  lcd_is_present(void)  { return s_present; }
1308:Core/Src/main_unique.c **** uint8_t  lcd_address(void)     { return s_addr7;   }
1309:Core/Src/main_unique.c **** uint32_t lcd_error_count(void) { return s_errors;  }
1310:Core/Src/main_unique.c **** 
1311:Core/Src/main_unique.c **** /* ==========================================================================
1312:Core/Src/main_unique.c ****  * 11. MODULO timer
1313:Core/Src/main_unique.c ****  *     TIM3 (LED a 250 ms) y TIM4 (base de tiempo de 100 ms).
1314:Core/Src/main_unique.c ****  *
ARM GAS  /tmp/ccjBgtoi.s 			page 30


1315:Core/Src/main_unique.c ****  *     Calculo de la temporizacion:
1316:Core/Src/main_unique.c ****  *       f_TIM = f_APB1 * 2 = 50 MHz * 2 = 100 MHz
1317:Core/Src/main_unique.c ****  *       f_cnt = f_TIM / (PSC + 1)
1318:Core/Src/main_unique.c ****  *       T     = (ARR + 1) / f_cnt
1319:Core/Src/main_unique.c ****  *
1320:Core/Src/main_unique.c ****  *     TIM3: PSC = 9999 -> f_cnt = 10 kHz; ARR = 2499 -> T = 250 ms
1321:Core/Src/main_unique.c ****  *     TIM4: PSC = 9999 -> f_cnt = 10 kHz; ARR =  999 -> T = 100 ms
1322:Core/Src/main_unique.c ****  *
1323:Core/Src/main_unique.c ****  *     Se eligen PSC y ARR de forma que ARR quede lo mas grande posible dentro
1324:Core/Src/main_unique.c ****  *     de los 16 bits: cuanto mayor es ARR, mejor la resolucion del periodo.
1325:Core/Src/main_unique.c ****  * ========================================================================== */
1326:Core/Src/main_unique.c **** 
1327:Core/Src/main_unique.c **** void timer_init(void)
1328:Core/Src/main_unique.c **** {
1329:Core/Src/main_unique.c ****     TIM_ClockConfigTypeDef  src = {0};  /* fuente de reloj del contador   */
1330:Core/Src/main_unique.c ****     TIM_MasterConfigTypeDef mst = {0};  /* configuracion maestro/esclavo  */
1331:Core/Src/main_unique.c **** 
1332:Core/Src/main_unique.c ****     /* ================= TIM3: parpadeo del LED cada 250 ms ============== */
1333:Core/Src/main_unique.c ****     __HAL_RCC_TIM3_CLK_ENABLE();         /* reloj del periferico TIM3      */
1334:Core/Src/main_unique.c **** 
1335:Core/Src/main_unique.c ****     htim3.Instance           = TIM3;
1336:Core/Src/main_unique.c ****     htim3.Init.Prescaler     = 10000U - 1U;  /* divide 100 MHz hasta 10 kHz */
1337:Core/Src/main_unique.c ****     htim3.Init.CounterMode   = TIM_COUNTERMODE_UP;  /* cuenta 0 -> ARR.
1338:Core/Src/main_unique.c ****                                         Alternativas: DOWN, CENTERALIGNED1/2/3 */
1339:Core/Src/main_unique.c ****     htim3.Init.Period        = 2500U - 1U;   /* 2500 pasos de 100 us = 250 ms */
1340:Core/Src/main_unique.c ****     htim3.Init.ClockDivision = TIM_CLOCKDIVISION_DIV1;  /* divisor del filtro
1341:Core/Src/main_unique.c ****                                         digital de las entradas, no del contador */
1342:Core/Src/main_unique.c ****     htim3.Init.AutoReloadPreload = TIM_AUTORELOAD_PRELOAD_DISABLE;
1343:Core/Src/main_unique.c ****                                         /* ARR se escribe de inmediato; con
1344:Core/Src/main_unique.c ****                                            PRELOAD_ENABLE se aplicaria en el
1345:Core/Src/main_unique.c ****                                            siguiente evento de actualizacion */
1346:Core/Src/main_unique.c **** 
1347:Core/Src/main_unique.c ****     if (HAL_TIM_Base_Init(&htim3) != HAL_OK) {
1348:Core/Src/main_unique.c ****         Error_Handler();
1349:Core/Src/main_unique.c ****     }
1350:Core/Src/main_unique.c **** 
1351:Core/Src/main_unique.c ****     /* Reloj interno del microcontrolador como fuente del contador.
1352:Core/Src/main_unique.c ****        Alternativas: ETR externo, o el reloj de otro temporizador (ITRx). */
1353:Core/Src/main_unique.c ****     src.ClockSource = TIM_CLOCKSOURCE_INTERNAL;
1354:Core/Src/main_unique.c ****     if (HAL_TIM_ConfigClockSource(&htim3, &src) != HAL_OK) {
1355:Core/Src/main_unique.c ****         Error_Handler();
1356:Core/Src/main_unique.c ****     }
1357:Core/Src/main_unique.c **** 
1358:Core/Src/main_unique.c ****     /* TIM3 no dispara a ningun otro periferico: TRGO en RESET */
1359:Core/Src/main_unique.c ****     mst.MasterOutputTrigger = TIM_TRGO_RESET;
1360:Core/Src/main_unique.c ****     mst.MasterSlaveMode     = TIM_MASTERSLAVEMODE_DISABLE;
1361:Core/Src/main_unique.c ****     if (HAL_TIMEx_MasterConfigSynchronization(&htim3, &mst) != HAL_OK) {
1362:Core/Src/main_unique.c ****         Error_Handler();
1363:Core/Src/main_unique.c ****     }
1364:Core/Src/main_unique.c **** 
1365:Core/Src/main_unique.c ****     /* ================= TIM4: base de tiempo de 100 ms ================== */
1366:Core/Src/main_unique.c ****     __HAL_RCC_TIM4_CLK_ENABLE();
1367:Core/Src/main_unique.c **** 
1368:Core/Src/main_unique.c ****     htim4.Instance               = TIM4;
1369:Core/Src/main_unique.c ****     htim4.Init.Prescaler         = 10000U - 1U;   /* 10 kHz            */
1370:Core/Src/main_unique.c ****     htim4.Init.CounterMode       = TIM_COUNTERMODE_UP;
1371:Core/Src/main_unique.c ****     htim4.Init.Period            = 1000U - 1U;    /* 1000 * 100 us = 100 ms */
ARM GAS  /tmp/ccjBgtoi.s 			page 31


1372:Core/Src/main_unique.c ****     htim4.Init.ClockDivision     = TIM_CLOCKDIVISION_DIV1;
1373:Core/Src/main_unique.c ****     htim4.Init.AutoReloadPreload = TIM_AUTORELOAD_PRELOAD_DISABLE;
1374:Core/Src/main_unique.c **** 
1375:Core/Src/main_unique.c ****     if (HAL_TIM_Base_Init(&htim4) != HAL_OK) {
1376:Core/Src/main_unique.c ****         Error_Handler();
1377:Core/Src/main_unique.c ****     }
1378:Core/Src/main_unique.c ****     src.ClockSource = TIM_CLOCKSOURCE_INTERNAL;
1379:Core/Src/main_unique.c ****     if (HAL_TIM_ConfigClockSource(&htim4, &src) != HAL_OK) {
1380:Core/Src/main_unique.c ****         Error_Handler();
1381:Core/Src/main_unique.c ****     }
1382:Core/Src/main_unique.c ****     if (HAL_TIMEx_MasterConfigSynchronization(&htim4, &mst) != HAL_OK) {
1383:Core/Src/main_unique.c ****         Error_Handler();
1384:Core/Src/main_unique.c ****     }
1385:Core/Src/main_unique.c **** 
1386:Core/Src/main_unique.c ****     /* ================= Interrupciones y arranque ======================= */
1387:Core/Src/main_unique.c ****     /* Prioridad 7: por debajo de la UART (5) y del ADC (6) */
1388:Core/Src/main_unique.c ****     HAL_NVIC_SetPriority(TIM3_IRQn, 7, 0);
1389:Core/Src/main_unique.c ****     HAL_NVIC_EnableIRQ(TIM3_IRQn);
1390:Core/Src/main_unique.c ****     HAL_NVIC_SetPriority(TIM4_IRQn, 7, 0);
1391:Core/Src/main_unique.c ****     HAL_NVIC_EnableIRQ(TIM4_IRQn);
1392:Core/Src/main_unique.c **** 
1393:Core/Src/main_unique.c ****     /* _IT arranca el contador y habilita la interrupcion de actualizacion.
1394:Core/Src/main_unique.c ****        La variante HAL_TIM_Base_Start() arrancaria el contador sin interrupcion,
1395:Core/Src/main_unique.c ****        obligando a sondear el flag, lo que el enunciado prohibe. */
1396:Core/Src/main_unique.c ****     HAL_TIM_Base_Start_IT(&htim3);
1397:Core/Src/main_unique.c ****     HAL_TIM_Base_Start_IT(&htim4);
1398:Core/Src/main_unique.c **** }
1399:Core/Src/main_unique.c **** 
1400:Core/Src/main_unique.c **** /*
1401:Core/Src/main_unique.c ****  * HAL_TIM_PeriodElapsedCallback
1402:Core/Src/main_unique.c ****  * Callback comun a todos los temporizadores: la HAL la invoca desde
1403:Core/Src/main_unique.c ****  * HAL_TIM_IRQHandler cuando el contador desborda. Se distingue el origen
1404:Core/Src/main_unique.c ****  * comparando el puntero de instancia.
1405:Core/Src/main_unique.c ****  *
1406:Core/Src/main_unique.c ****  * Esta funcion se ejecuta en contexto de interrupcion: debe ser breve y no
1407:Core/Src/main_unique.c ****  * puede usar HAL_Delay ni operaciones de I2C.
1408:Core/Src/main_unique.c ****  */
1409:Core/Src/main_unique.c **** void HAL_TIM_PeriodElapsedCallback(TIM_HandleTypeDef *htim)
1410:Core/Src/main_unique.c **** {
1411:Core/Src/main_unique.c ****     if (htim->Instance == TIM3) {
1412:Core/Src/main_unique.c ****         /* Cada 250 ms: conmuta el LED de PH1 */
1413:Core/Src/main_unique.c ****         gpio_led_toggle();
1414:Core/Src/main_unique.c ****     }
1415:Core/Src/main_unique.c ****     else if (htim->Instance == TIM4) {
1416:Core/Src/main_unique.c ****         /* Cada 100 ms: lanza la lectura del joystick y avisa a la FSM */
1417:Core/Src/main_unique.c ****         adc_joystick_start();          /* arranca la conversion por interrupcion */
1418:Core/Src/main_unique.c ****         fsm_post_event(EV_TICK_100MS); /* encola el evento periodico             */
1419:Core/Src/main_unique.c ****     }
1420:Core/Src/main_unique.c **** }
1421:Core/Src/main_unique.c **** 
1422:Core/Src/main_unique.c **** /* ==========================================================================
1423:Core/Src/main_unique.c ****  * 12. MODULO fsm
1424:Core/Src/main_unique.c ****  *     Maquina de estados finitos y logica de presentacion.
1425:Core/Src/main_unique.c ****  *
1426:Core/Src/main_unique.c ****  *     Arquitectura: productor-consumidor.
1427:Core/Src/main_unique.c ****  *       - Productores: las rutinas de interrupcion (UART, TIM4, EXTI, RTC).
1428:Core/Src/main_unique.c ****  *         Solo depositan un evento en una cola circular y retornan.
ARM GAS  /tmp/ccjBgtoi.s 			page 32


1429:Core/Src/main_unique.c ****  *       - Consumidor: fsm_run(), llamado desde el bucle infinito de main().
1430:Core/Src/main_unique.c ****  *         Extrae los eventos y ejecuta las transiciones y el refresco del LCD.
1431:Core/Src/main_unique.c ****  *
1432:Core/Src/main_unique.c ****  *     Distribucion de la pantalla:
1433:Core/Src/main_unique.c ****  *       Fila 0: HH:MM:SS DD-MM
1434:Core/Src/main_unique.c ****  *       Fila 1: texto movil, o "MODO X" / "MODO Y", o mensaje temporal
1435:Core/Src/main_unique.c ****  *       Fila 2: X:<coordenada> ADC:<muestra cruda>
1436:Core/Src/main_unique.c ****  *       Fila 3: Y:<coordenada> ADC:<muestra cruda>
1437:Core/Src/main_unique.c ****  * ========================================================================== */
1438:Core/Src/main_unique.c **** 
1439:Core/Src/main_unique.c **** /* ----------------------- Cola circular de eventos ------------------------ */
1440:Core/Src/main_unique.c **** #define EVQ_SIZE  32U   /* holgado: los eventos se consumen en pocos ms */
1441:Core/Src/main_unique.c **** 
1442:Core/Src/main_unique.c **** static volatile fsm_event_t s_evq[EVQ_SIZE];
1443:Core/Src/main_unique.c **** static volatile uint8_t     s_evq_head = 0;   /* escribe la ISR    */
1444:Core/Src/main_unique.c **** static volatile uint8_t     s_evq_tail = 0;   /* lee el bucle main */
1445:Core/Src/main_unique.c **** 
1446:Core/Src/main_unique.c **** /* ----------------------- Variables de estado ----------------------------- */
1447:Core/Src/main_unique.c **** static fsm_state_t s_state = ST_INIT;
1448:Core/Src/main_unique.c **** static fsm_state_t s_prev  = ST_IDLE;   /* estado al que volver tras un mensaje */
1449:Core/Src/main_unique.c **** 
1450:Core/Src/main_unique.c **** /* Coordenadas gobernadas conjuntamente por el joystick y por la UART */
1451:Core/Src/main_unique.c **** static int16_t s_coord_x = 0;
1452:Core/Src/main_unique.c **** static int16_t s_coord_y = 0;
1453:Core/Src/main_unique.c **** 
1454:Core/Src/main_unique.c **** #define COORD_MIN  (-999)
1455:Core/Src/main_unique.c **** #define COORD_MAX  ( 999)
1456:Core/Src/main_unique.c **** 
1457:Core/Src/main_unique.c **** /* Texto de la fila 1 y desplazamiento actual del efecto de marquesina */
1458:Core/Src/main_unique.c **** static const char *s_line2  = NULL;
1459:Core/Src/main_unique.c **** static uint16_t    s_scroll = 0;
1460:Core/Src/main_unique.c **** 
1461:Core/Src/main_unique.c **** /* Copia de lo ultimo escrito en cada fila. Evita reenviar por I2C una linea
1462:Core/Src/main_unique.c ****    que no ha cambiado: escribir una fila cuesta unos 7 ms, de modo que
1463:Core/Src/main_unique.c ****    refrescar las cuatro sin necesidad consumiria una tercera parte del
1464:Core/Src/main_unique.c ****    periodo de 100 ms sin aportar nada. */
1465:Core/Src/main_unique.c **** static char s_shadow[LCD_ROWS][LCD_COLS + 1U];
1466:Core/Src/main_unique.c **** 
1467:Core/Src/main_unique.c **** /* Contadores de reparto de tareas, en unidades de 100 ms */
1468:Core/Src/main_unique.c **** static uint16_t s_tick_scroll = 0;   /* desplaza el texto cada 300 ms */
1469:Core/Src/main_unique.c **** static uint16_t s_msg_timeout = 0;   /* vida restante del mensaje temporal */
1470:Core/Src/main_unique.c **** 
1471:Core/Src/main_unique.c **** /* Textos fijos */
1472:Core/Src/main_unique.c **** static const char TXT_BANNER[]  = "DANIEL VARGAS - PARCIAL TALLER V 2026-1 - UNAL";
1473:Core/Src/main_unique.c **** static const char TXT_MODE_X[]  = "MODO X";
1474:Core/Src/main_unique.c **** static const char TXT_MODE_Y[]  = "MODO Y";
1475:Core/Src/main_unique.c **** static const char TXT_NO_MODE[] = "ACTIVAR MODO X O Y";
1476:Core/Src/main_unique.c **** 
1477:Core/Src/main_unique.c **** #define MSG_DURATION_TICKS  30U   /* 30 * 100 ms = 3 s */
1478:Core/Src/main_unique.c **** 
1479:Core/Src/main_unique.c **** /*
1480:Core/Src/main_unique.c ****  * fsm_post_event
1481:Core/Src/main_unique.c ****  * Deposita un evento. Es la unica funcion del modulo que pueden invocar las
1482:Core/Src/main_unique.c ****  * rutinas de interrupcion. Si la cola esta llena el evento se descarta, lo
1483:Core/Src/main_unique.c ****  * que es preferible a bloquear una ISR.
1484:Core/Src/main_unique.c ****  */
1485:Core/Src/main_unique.c **** void fsm_post_event(fsm_event_t ev)
ARM GAS  /tmp/ccjBgtoi.s 			page 33


1486:Core/Src/main_unique.c **** {
1487:Core/Src/main_unique.c ****     uint8_t next = (uint8_t)((s_evq_head + 1U) % EVQ_SIZE);
1488:Core/Src/main_unique.c **** 
1489:Core/Src/main_unique.c ****     if (next == s_evq_tail) {
1490:Core/Src/main_unique.c ****         return;   /* cola llena */
1491:Core/Src/main_unique.c ****     }
1492:Core/Src/main_unique.c ****     s_evq[s_evq_head] = ev;
1493:Core/Src/main_unique.c ****     s_evq_head = next;
1494:Core/Src/main_unique.c **** }
1495:Core/Src/main_unique.c **** 
1496:Core/Src/main_unique.c **** /*
1497:Core/Src/main_unique.c ****  * fsm_get_event
1498:Core/Src/main_unique.c ****  * Extrae el evento mas antiguo. Devuelve EV_NONE si no hay ninguno.
1499:Core/Src/main_unique.c ****  */
1500:Core/Src/main_unique.c **** static fsm_event_t fsm_get_event(void)
1501:Core/Src/main_unique.c **** {
 344              		.loc 1 1501 1 is_stmt 1 view -0
 345              		.cfi_startproc
 346              		@ args = 0, pretend = 0, frame = 0
 347              		@ frame_needed = 0, uses_anonymous_args = 0
 348              		@ link register save eliminated.
1502:Core/Src/main_unique.c ****     fsm_event_t ev;
 349              		.loc 1 1502 5 view .LVU79
1503:Core/Src/main_unique.c **** 
1504:Core/Src/main_unique.c ****     if (s_evq_head == s_evq_tail) {
 350              		.loc 1 1504 5 view .LVU80
 351              		.loc 1 1504 20 is_stmt 0 view .LVU81
 352 0000 084B     		ldr	r3, .L29
 353 0002 1A78     		ldrb	r2, [r3]	@ zero_extendqisi2
 354 0004 084B     		ldr	r3, .L29+4
 355 0006 1B78     		ldrb	r3, [r3]	@ zero_extendqisi2
 356              		.loc 1 1504 8 view .LVU82
 357 0008 9A42     		cmp	r2, r3
 358 000a 09D0     		beq	.L28
1505:Core/Src/main_unique.c ****         return EV_NONE;
1506:Core/Src/main_unique.c ****     }
1507:Core/Src/main_unique.c ****     ev = s_evq[s_evq_tail];
 359              		.loc 1 1507 5 is_stmt 1 view .LVU83
 360              		.loc 1 1507 15 is_stmt 0 view .LVU84
 361 000c 064A     		ldr	r2, .L29+4
 362 000e 1378     		ldrb	r3, [r2]	@ zero_extendqisi2
 363              		.loc 1 1507 8 view .LVU85
 364 0010 0649     		ldr	r1, .L29+8
 365 0012 C85C     		ldrb	r0, [r1, r3]	@ zero_extendqisi2
 366              	.LVL20:
1508:Core/Src/main_unique.c ****     s_evq_tail = (uint8_t)((s_evq_tail + 1U) % EVQ_SIZE);
 367              		.loc 1 1508 5 is_stmt 1 view .LVU86
 368              		.loc 1 1508 18 is_stmt 0 view .LVU87
 369 0014 1378     		ldrb	r3, [r2]	@ zero_extendqisi2
 370 0016 0133     		adds	r3, r3, #1
 371 0018 03F01F03 		and	r3, r3, #31
 372              		.loc 1 1508 16 view .LVU88
 373 001c 1370     		strb	r3, [r2]
1509:Core/Src/main_unique.c ****     return ev;
 374              		.loc 1 1509 5 is_stmt 1 view .LVU89
 375              		.loc 1 1509 12 is_stmt 0 view .LVU90
 376 001e 7047     		bx	lr
ARM GAS  /tmp/ccjBgtoi.s 			page 34


 377              	.LVL21:
 378              	.L28:
1505:Core/Src/main_unique.c ****         return EV_NONE;
 379              		.loc 1 1505 16 view .LVU91
 380 0020 0020     		movs	r0, #0
1510:Core/Src/main_unique.c **** }
 381              		.loc 1 1510 1 view .LVU92
 382 0022 7047     		bx	lr
 383              	.L30:
 384              		.align	2
 385              	.L29:
 386 0024 00000000 		.word	s_evq_head
 387 0028 00000000 		.word	s_evq_tail
 388 002c 00000000 		.word	s_evq
 389              		.cfi_endproc
 390              	.LFE321:
 392              		.section	.text.clamp_coord,"ax",%progbits
 393              		.align	1
 394              		.syntax unified
 395              		.thumb
 396              		.thumb_func
 398              	clamp_coord:
 399              	.LVL22:
 400              	.LFB322:
1511:Core/Src/main_unique.c **** 
1512:Core/Src/main_unique.c **** /* ----------------------- Utilidades de presentacion ---------------------- */
1513:Core/Src/main_unique.c **** 
1514:Core/Src/main_unique.c **** /*
1515:Core/Src/main_unique.c ****  * clamp_coord
1516:Core/Src/main_unique.c ****  * Satura un valor dentro del rango representable en la pantalla.
1517:Core/Src/main_unique.c ****  */
1518:Core/Src/main_unique.c **** static int16_t clamp_coord(int32_t v)
1519:Core/Src/main_unique.c **** {
 401              		.loc 1 1519 1 is_stmt 1 view -0
 402              		.cfi_startproc
 403              		@ args = 0, pretend = 0, frame = 0
 404              		@ frame_needed = 0, uses_anonymous_args = 0
 405              		@ link register save eliminated.
1520:Core/Src/main_unique.c ****     if (v > COORD_MAX) return (int16_t)COORD_MAX;
 406              		.loc 1 1520 5 view .LVU94
 407              		.loc 1 1520 8 is_stmt 0 view .LVU95
 408 0000 B0F57A7F 		cmp	r0, #1000
 409 0004 04DA     		bge	.L33
1521:Core/Src/main_unique.c ****     if (v < COORD_MIN) return (int16_t)COORD_MIN;
 410              		.loc 1 1521 5 is_stmt 1 view .LVU96
 411              		.loc 1 1521 8 is_stmt 0 view .LVU97
 412 0006 10F57A7F 		cmn	r0, #1000
 413 000a 04DD     		ble	.L34
1522:Core/Src/main_unique.c ****     return (int16_t)v;
 414              		.loc 1 1522 5 is_stmt 1 view .LVU98
 415              		.loc 1 1522 12 is_stmt 0 view .LVU99
 416 000c 00B2     		sxth	r0, r0
 417              	.LVL23:
 418              		.loc 1 1522 12 view .LVU100
 419 000e 7047     		bx	lr
 420              	.LVL24:
 421              	.L33:
ARM GAS  /tmp/ccjBgtoi.s 			page 35


1520:Core/Src/main_unique.c ****     if (v > COORD_MAX) return (int16_t)COORD_MAX;
 422              		.loc 1 1520 31 discriminator 1 view .LVU101
 423 0010 40F2E730 		movw	r0, #999
 424              	.LVL25:
1520:Core/Src/main_unique.c ****     if (v > COORD_MAX) return (int16_t)COORD_MAX;
 425              		.loc 1 1520 31 discriminator 1 view .LVU102
 426 0014 7047     		bx	lr
 427              	.LVL26:
 428              	.L34:
1521:Core/Src/main_unique.c ****     if (v < COORD_MIN) return (int16_t)COORD_MIN;
 429              		.loc 1 1521 31 discriminator 1 view .LVU103
 430 0016 0148     		ldr	r0, .L35
 431              	.LVL27:
1523:Core/Src/main_unique.c **** }
 432              		.loc 1 1523 1 view .LVU104
 433 0018 7047     		bx	lr
 434              	.L36:
 435 001a 00BF     		.align	2
 436              	.L35:
 437 001c 19FCFFFF 		.word	-999
 438              		.cfi_endproc
 439              	.LFE322:
 441              		.section	.text.set_line2,"ax",%progbits
 442              		.align	1
 443              		.syntax unified
 444              		.thumb
 445              		.thumb_func
 447              	set_line2:
 448              	.LVL28:
 449              	.LFB324:
1524:Core/Src/main_unique.c **** 
1525:Core/Src/main_unique.c **** /*
1526:Core/Src/main_unique.c ****  * lcd_update
1527:Core/Src/main_unique.c ****  * Escribe una fila solo si su contenido difiere del ultimo enviado.
1528:Core/Src/main_unique.c ****  */
1529:Core/Src/main_unique.c **** static void lcd_update(uint8_t row, const char *txt)
1530:Core/Src/main_unique.c **** {
1531:Core/Src/main_unique.c ****     char norm[LCD_COLS + 1U];
1532:Core/Src/main_unique.c ****     uint8_t i, end = 0U;
1533:Core/Src/main_unique.c **** 
1534:Core/Src/main_unique.c ****     /* Normaliza a la anchura exacta de la pantalla para que la comparacion
1535:Core/Src/main_unique.c ****        sea fiable */
1536:Core/Src/main_unique.c ****     for (i = 0U; i < LCD_COLS; i++) {
1537:Core/Src/main_unique.c ****         if (!end && (txt[i] == '\0')) end = 1U;
1538:Core/Src/main_unique.c ****         norm[i] = end ? ' ' : txt[i];
1539:Core/Src/main_unique.c ****     }
1540:Core/Src/main_unique.c ****     norm[LCD_COLS] = '\0';
1541:Core/Src/main_unique.c **** 
1542:Core/Src/main_unique.c ****     if (strncmp(norm, s_shadow[row], LCD_COLS) == 0) {
1543:Core/Src/main_unique.c ****         return;                       /* sin cambios: no se toca el bus */
1544:Core/Src/main_unique.c ****     }
1545:Core/Src/main_unique.c ****     memcpy(s_shadow[row], norm, LCD_COLS + 1U);
1546:Core/Src/main_unique.c ****     lcd_print_line(row, norm);
1547:Core/Src/main_unique.c **** }
1548:Core/Src/main_unique.c **** 
1549:Core/Src/main_unique.c **** /*
1550:Core/Src/main_unique.c ****  * set_line2
ARM GAS  /tmp/ccjBgtoi.s 			page 36


1551:Core/Src/main_unique.c ****  * Cambia el texto de la fila 1 y reinicia el desplazamiento.
1552:Core/Src/main_unique.c ****  */
1553:Core/Src/main_unique.c **** static void set_line2(const char *txt)
1554:Core/Src/main_unique.c **** {
 450              		.loc 1 1554 1 is_stmt 1 view -0
 451              		.cfi_startproc
 452              		@ args = 0, pretend = 0, frame = 0
 453              		@ frame_needed = 0, uses_anonymous_args = 0
 454              		@ link register save eliminated.
1555:Core/Src/main_unique.c ****     s_line2  = txt;
 455              		.loc 1 1555 5 view .LVU106
 456              		.loc 1 1555 14 is_stmt 0 view .LVU107
 457 0000 024B     		ldr	r3, .L38
 458 0002 1860     		str	r0, [r3]
1556:Core/Src/main_unique.c ****     s_scroll = 0;
 459              		.loc 1 1556 5 is_stmt 1 view .LVU108
 460              		.loc 1 1556 14 is_stmt 0 view .LVU109
 461 0004 024B     		ldr	r3, .L38+4
 462 0006 0022     		movs	r2, #0
 463 0008 1A80     		strh	r2, [r3]	@ movhi
1557:Core/Src/main_unique.c **** }
 464              		.loc 1 1557 1 view .LVU110
 465 000a 7047     		bx	lr
 466              	.L39:
 467              		.align	2
 468              	.L38:
 469 000c 00000000 		.word	s_line2
 470 0010 00000000 		.word	s_scroll
 471              		.cfi_endproc
 472              	.LFE324:
 474              		.section	.text.uart_start_tx,"ax",%progbits
 475              		.align	1
 476              		.syntax unified
 477              		.thumb
 478              		.thumb_func
 480              	uart_start_tx:
 481              	.LFB277:
 526:Core/Src/main_unique.c ****     if (s_tx_busy || (s_tx_head == s_tx_tail)) {
 482              		.loc 1 526 1 is_stmt 1 view -0
 483              		.cfi_startproc
 484              		@ args = 0, pretend = 0, frame = 0
 485              		@ frame_needed = 0, uses_anonymous_args = 0
 486 0000 08B5     		push	{r3, lr}
 487              	.LCFI0:
 488              		.cfi_def_cfa_offset 8
 489              		.cfi_offset 3, -8
 490              		.cfi_offset 14, -4
 527:Core/Src/main_unique.c ****         return;   /* ya hay un envio activo, o no queda nada por enviar */
 491              		.loc 1 527 5 view .LVU112
 527:Core/Src/main_unique.c ****         return;   /* ya hay un envio activo, o no queda nada por enviar */
 492              		.loc 1 527 9 is_stmt 0 view .LVU113
 493 0002 0D4B     		ldr	r3, .L43
 494 0004 1B78     		ldrb	r3, [r3]	@ zero_extendqisi2
 527:Core/Src/main_unique.c ****         return;   /* ya hay un envio activo, o no queda nada por enviar */
 495              		.loc 1 527 8 view .LVU114
 496 0006 B3B9     		cbnz	r3, .L40
 527:Core/Src/main_unique.c ****         return;   /* ya hay un envio activo, o no queda nada por enviar */
ARM GAS  /tmp/ccjBgtoi.s 			page 37


 497              		.loc 1 527 33 discriminator 1 view .LVU115
 498 0008 0C4B     		ldr	r3, .L43+4
 499 000a 1A88     		ldrh	r2, [r3]
 500 000c 0C4B     		ldr	r3, .L43+8
 501 000e 1B88     		ldrh	r3, [r3]
 527:Core/Src/main_unique.c ****         return;   /* ya hay un envio activo, o no queda nada por enviar */
 502              		.loc 1 527 19 discriminator 1 view .LVU116
 503 0010 9A42     		cmp	r2, r3
 504 0012 10D0     		beq	.L40
 530:Core/Src/main_unique.c ****     s_tx_tail    = (uint16_t)((s_tx_tail + 1U) % UART_TX_BUF_SIZE);
 505              		.loc 1 530 5 is_stmt 1 view .LVU117
 530:Core/Src/main_unique.c ****     s_tx_tail    = (uint16_t)((s_tx_tail + 1U) % UART_TX_BUF_SIZE);
 506              		.loc 1 530 28 is_stmt 0 view .LVU118
 507 0014 0A4A     		ldr	r2, .L43+8
 508 0016 1388     		ldrh	r3, [r2]
 509 0018 0A49     		ldr	r1, .L43+12
 510 001a CB5C     		ldrb	r3, [r1, r3]	@ zero_extendqisi2
 530:Core/Src/main_unique.c ****     s_tx_tail    = (uint16_t)((s_tx_tail + 1U) % UART_TX_BUF_SIZE);
 511              		.loc 1 530 18 view .LVU119
 512 001c 0A49     		ldr	r1, .L43+16
 513 001e 0B70     		strb	r3, [r1]
 531:Core/Src/main_unique.c ****     s_tx_busy    = 1U;
 514              		.loc 1 531 5 is_stmt 1 view .LVU120
 531:Core/Src/main_unique.c ****     s_tx_busy    = 1U;
 515              		.loc 1 531 20 is_stmt 0 view .LVU121
 516 0020 1388     		ldrh	r3, [r2]
 517 0022 0133     		adds	r3, r3, #1
 518 0024 C3F30803 		ubfx	r3, r3, #0, #9
 531:Core/Src/main_unique.c ****     s_tx_busy    = 1U;
 519              		.loc 1 531 18 view .LVU122
 520 0028 1380     		strh	r3, [r2]	@ movhi
 532:Core/Src/main_unique.c **** 
 521              		.loc 1 532 5 is_stmt 1 view .LVU123
 532:Core/Src/main_unique.c **** 
 522              		.loc 1 532 18 is_stmt 0 view .LVU124
 523 002a 0122     		movs	r2, #1
 524 002c 024B     		ldr	r3, .L43
 525 002e 1A70     		strb	r2, [r3]
 534:Core/Src/main_unique.c **** }
 526              		.loc 1 534 5 is_stmt 1 view .LVU125
 527 0030 0648     		ldr	r0, .L43+20
 528 0032 FFF7FEFF 		bl	HAL_UART_Transmit_IT
 529              	.LVL29:
 530              	.L40:
 535:Core/Src/main_unique.c **** 
 531              		.loc 1 535 1 is_stmt 0 view .LVU126
 532 0036 08BD     		pop	{r3, pc}
 533              	.L44:
 534              		.align	2
 535              	.L43:
 536 0038 00000000 		.word	s_tx_busy
 537 003c 00000000 		.word	s_tx_head
 538 0040 00000000 		.word	s_tx_tail
 539 0044 00000000 		.word	s_tx_buf
 540 0048 00000000 		.word	s_tx_current
 541 004c 00000000 		.word	huart2
 542              		.cfi_endproc
ARM GAS  /tmp/ccjBgtoi.s 			page 38


 543              	.LFE277:
 545              		.section	.text.lcd_tx,"ax",%progbits
 546              		.align	1
 547              		.syntax unified
 548              		.thumb
 549              		.thumb_func
 551              	lcd_tx:
 552              	.LVL30:
 553              	.LFB303:
1079:Core/Src/main_unique.c ****     HAL_StatusTypeDef st;
 554              		.loc 1 1079 1 is_stmt 1 view -0
 555              		.cfi_startproc
 556              		@ args = 0, pretend = 0, frame = 0
 557              		@ frame_needed = 0, uses_anonymous_args = 0
1079:Core/Src/main_unique.c ****     HAL_StatusTypeDef st;
 558              		.loc 1 1079 1 is_stmt 0 view .LVU128
 559 0000 00B5     		push	{lr}
 560              	.LCFI1:
 561              		.cfi_def_cfa_offset 4
 562              		.cfi_offset 14, -4
 563 0002 83B0     		sub	sp, sp, #12
 564              	.LCFI2:
 565              		.cfi_def_cfa_offset 16
 566 0004 0246     		mov	r2, r0
 567 0006 0B46     		mov	r3, r1
1080:Core/Src/main_unique.c **** 
 568              		.loc 1 1080 5 is_stmt 1 view .LVU129
1086:Core/Src/main_unique.c **** 
 569              		.loc 1 1086 5 view .LVU130
1086:Core/Src/main_unique.c **** 
 570              		.loc 1 1086 42 is_stmt 0 view .LVU131
 571 0008 0949     		ldr	r1, .L50
 572              	.LVL31:
1086:Core/Src/main_unique.c **** 
 573              		.loc 1 1086 42 view .LVU132
 574 000a 91F800C0 		ldrb	ip, [r1]	@ zero_extendqisi2
1086:Core/Src/main_unique.c **** 
 575              		.loc 1 1086 10 view .LVU133
 576 000e 3221     		movs	r1, #50
 577 0010 0091     		str	r1, [sp]
 578 0012 4FEA4C01 		lsl	r1, ip, #1
 579 0016 0748     		ldr	r0, .L50+4
 580              	.LVL32:
1086:Core/Src/main_unique.c **** 
 581              		.loc 1 1086 10 view .LVU134
 582 0018 FFF7FEFF 		bl	HAL_I2C_Master_Transmit
 583              	.LVL33:
1088:Core/Src/main_unique.c ****         s_errors++;
 584              		.loc 1 1088 5 is_stmt 1 view .LVU135
1088:Core/Src/main_unique.c ****         s_errors++;
 585              		.loc 1 1088 8 is_stmt 0 view .LVU136
 586 001c 10B9     		cbnz	r0, .L49
1092:Core/Src/main_unique.c **** }
 587              		.loc 1 1092 12 view .LVU137
 588 001e 0120     		movs	r0, #1
 589              	.LVL34:
 590              	.L46:
ARM GAS  /tmp/ccjBgtoi.s 			page 39


1093:Core/Src/main_unique.c **** 
 591              		.loc 1 1093 1 view .LVU138
 592 0020 03B0     		add	sp, sp, #12
 593              	.LCFI3:
 594              		.cfi_remember_state
 595              		.cfi_def_cfa_offset 4
 596              		@ sp needed
 597 0022 00BD     		pop	{pc}
 598              	.LVL35:
 599              	.L49:
 600              	.LCFI4:
 601              		.cfi_restore_state
1089:Core/Src/main_unique.c ****         return 0U;
 602              		.loc 1 1089 9 is_stmt 1 view .LVU139
1089:Core/Src/main_unique.c ****         return 0U;
 603              		.loc 1 1089 17 is_stmt 0 view .LVU140
 604 0024 044A     		ldr	r2, .L50+8
 605 0026 1368     		ldr	r3, [r2]
 606 0028 0133     		adds	r3, r3, #1
 607 002a 1360     		str	r3, [r2]
1090:Core/Src/main_unique.c ****     }
 608              		.loc 1 1090 9 is_stmt 1 view .LVU141
1090:Core/Src/main_unique.c ****     }
 609              		.loc 1 1090 16 is_stmt 0 view .LVU142
 610 002c 0020     		movs	r0, #0
 611              	.LVL36:
1090:Core/Src/main_unique.c ****     }
 612              		.loc 1 1090 16 view .LVU143
 613 002e F7E7     		b	.L46
 614              	.L51:
 615              		.align	2
 616              	.L50:
 617 0030 00000000 		.word	s_addr7
 618 0034 00000000 		.word	hi2c1
 619 0038 00000000 		.word	s_errors
 620              		.cfi_endproc
 621              	.LFE303:
 623              		.section	.text.lcd_pulse_nibble,"ax",%progbits
 624              		.align	1
 625              		.syntax unified
 626              		.thumb
 627              		.thumb_func
 629              	lcd_pulse_nibble:
 630              	.LVL37:
 631              	.LFB305:
1125:Core/Src/main_unique.c ****     uint8_t seq[2];
 632              		.loc 1 1125 1 is_stmt 1 view -0
 633              		.cfi_startproc
 634              		@ args = 0, pretend = 0, frame = 8
 635              		@ frame_needed = 0, uses_anonymous_args = 0
1125:Core/Src/main_unique.c ****     uint8_t seq[2];
 636              		.loc 1 1125 1 is_stmt 0 view .LVU145
 637 0000 00B5     		push	{lr}
 638              	.LCFI5:
 639              		.cfi_def_cfa_offset 4
 640              		.cfi_offset 14, -4
 641 0002 83B0     		sub	sp, sp, #12
ARM GAS  /tmp/ccjBgtoi.s 			page 40


 642              	.LCFI6:
 643              		.cfi_def_cfa_offset 16
1126:Core/Src/main_unique.c ****     seq[0] = (uint8_t)(nibble | 0x04U);
 644              		.loc 1 1126 5 is_stmt 1 view .LVU146
1127:Core/Src/main_unique.c ****     seq[1] = (uint8_t)(nibble & ~0x04U);
 645              		.loc 1 1127 5 view .LVU147
1127:Core/Src/main_unique.c ****     seq[1] = (uint8_t)(nibble & ~0x04U);
 646              		.loc 1 1127 14 is_stmt 0 view .LVU148
 647 0004 40F00403 		orr	r3, r0, #4
1127:Core/Src/main_unique.c ****     seq[1] = (uint8_t)(nibble & ~0x04U);
 648              		.loc 1 1127 12 view .LVU149
 649 0008 8DF80430 		strb	r3, [sp, #4]
1128:Core/Src/main_unique.c **** 
 650              		.loc 1 1128 5 is_stmt 1 view .LVU150
1128:Core/Src/main_unique.c **** 
 651              		.loc 1 1128 14 is_stmt 0 view .LVU151
 652 000c 00F0FB00 		and	r0, r0, #251
 653              	.LVL38:
1128:Core/Src/main_unique.c **** 
 654              		.loc 1 1128 12 view .LVU152
 655 0010 8DF80500 		strb	r0, [sp, #5]
1130:Core/Src/main_unique.c ****     delay_us(50U);
 656              		.loc 1 1130 5 is_stmt 1 view .LVU153
 657 0014 0221     		movs	r1, #2
 658 0016 01A8     		add	r0, sp, #4
 659 0018 FFF7FEFF 		bl	lcd_tx
 660              	.LVL39:
1131:Core/Src/main_unique.c **** }
 661              		.loc 1 1131 5 view .LVU154
 662 001c 3220     		movs	r0, #50
 663 001e FFF7FEFF 		bl	delay_us
 664              	.LVL40:
1132:Core/Src/main_unique.c **** 
 665              		.loc 1 1132 1 is_stmt 0 view .LVU155
 666 0022 03B0     		add	sp, sp, #12
 667              	.LCFI7:
 668              		.cfi_def_cfa_offset 4
 669              		@ sp needed
 670 0024 00BD     		pop	{pc}
 671              		.cfi_endproc
 672              	.LFE305:
 674              		.section	.text.lcd_send,"ax",%progbits
 675              		.align	1
 676              		.syntax unified
 677              		.thumb
 678              		.thumb_func
 680              	lcd_send:
 681              	.LVL41:
 682              	.LFB304:
1102:Core/Src/main_unique.c ****     uint8_t hi = (uint8_t)((value & 0xF0U)        | mode | s_backlight);
 683              		.loc 1 1102 1 is_stmt 1 view -0
 684              		.cfi_startproc
 685              		@ args = 0, pretend = 0, frame = 8
 686              		@ frame_needed = 0, uses_anonymous_args = 0
1102:Core/Src/main_unique.c ****     uint8_t hi = (uint8_t)((value & 0xF0U)        | mode | s_backlight);
 687              		.loc 1 1102 1 is_stmt 0 view .LVU157
 688 0000 00B5     		push	{lr}
ARM GAS  /tmp/ccjBgtoi.s 			page 41


 689              	.LCFI8:
 690              		.cfi_def_cfa_offset 4
 691              		.cfi_offset 14, -4
 692 0002 83B0     		sub	sp, sp, #12
 693              	.LCFI9:
 694              		.cfi_def_cfa_offset 16
1103:Core/Src/main_unique.c ****     uint8_t lo = (uint8_t)(((value << 4) & 0xF0U) | mode | s_backlight);
 695              		.loc 1 1103 5 is_stmt 1 view .LVU158
1103:Core/Src/main_unique.c ****     uint8_t lo = (uint8_t)(((value << 4) & 0xF0U) | mode | s_backlight);
 696              		.loc 1 1103 35 is_stmt 0 view .LVU159
 697 0004 00F0F003 		and	r3, r0, #240
1103:Core/Src/main_unique.c ****     uint8_t lo = (uint8_t)(((value << 4) & 0xF0U) | mode | s_backlight);
 698              		.loc 1 1103 51 view .LVU160
 699 0008 0B43     		orrs	r3, r3, r1
 700              	.LVL42:
1104:Core/Src/main_unique.c **** 
 701              		.loc 1 1104 5 is_stmt 1 view .LVU161
1104:Core/Src/main_unique.c **** 
 702              		.loc 1 1104 36 is_stmt 0 view .LVU162
 703 000a 0001     		lsls	r0, r0, #4
 704              	.LVL43:
1104:Core/Src/main_unique.c **** 
 705              		.loc 1 1104 36 view .LVU163
 706 000c C0B2     		uxtb	r0, r0
1104:Core/Src/main_unique.c **** 
 707              		.loc 1 1104 51 view .LVU164
 708 000e 0143     		orrs	r1, r1, r0
 709              	.LVL44:
1106:Core/Src/main_unique.c ****     seq[0] = (uint8_t)(hi | 0x04U);   /* nibble alto, EN = 1 */
 710              		.loc 1 1106 5 is_stmt 1 view .LVU165
1107:Core/Src/main_unique.c ****     seq[1] = (uint8_t)(hi & ~0x04U);  /* nibble alto, EN = 0 -> captura */
 711              		.loc 1 1107 5 view .LVU166
1107:Core/Src/main_unique.c ****     seq[1] = (uint8_t)(hi & ~0x04U);  /* nibble alto, EN = 0 -> captura */
 712              		.loc 1 1107 14 is_stmt 0 view .LVU167
 713 0010 43F00C02 		orr	r2, r3, #12
1107:Core/Src/main_unique.c ****     seq[1] = (uint8_t)(hi & ~0x04U);  /* nibble alto, EN = 0 -> captura */
 714              		.loc 1 1107 12 view .LVU168
 715 0014 8DF80420 		strb	r2, [sp, #4]
1108:Core/Src/main_unique.c ****     seq[2] = (uint8_t)(lo | 0x04U);   /* nibble bajo, EN = 1 */
 716              		.loc 1 1108 5 is_stmt 1 view .LVU169
1108:Core/Src/main_unique.c ****     seq[2] = (uint8_t)(lo | 0x04U);   /* nibble bajo, EN = 1 */
 717              		.loc 1 1108 14 is_stmt 0 view .LVU170
 718 0018 23F00403 		bic	r3, r3, #4
 719              	.LVL45:
1108:Core/Src/main_unique.c ****     seq[2] = (uint8_t)(lo | 0x04U);   /* nibble bajo, EN = 1 */
 720              		.loc 1 1108 14 view .LVU171
 721 001c 43F00803 		orr	r3, r3, #8
1108:Core/Src/main_unique.c ****     seq[2] = (uint8_t)(lo | 0x04U);   /* nibble bajo, EN = 1 */
 722              		.loc 1 1108 12 view .LVU172
 723 0020 8DF80530 		strb	r3, [sp, #5]
1109:Core/Src/main_unique.c ****     seq[3] = (uint8_t)(lo & ~0x04U);  /* nibble bajo, EN = 0 -> captura */
 724              		.loc 1 1109 5 is_stmt 1 view .LVU173
1109:Core/Src/main_unique.c ****     seq[3] = (uint8_t)(lo & ~0x04U);  /* nibble bajo, EN = 0 -> captura */
 725              		.loc 1 1109 14 is_stmt 0 view .LVU174
 726 0024 41F00C03 		orr	r3, r1, #12
1109:Core/Src/main_unique.c ****     seq[3] = (uint8_t)(lo & ~0x04U);  /* nibble bajo, EN = 0 -> captura */
 727              		.loc 1 1109 12 view .LVU175
ARM GAS  /tmp/ccjBgtoi.s 			page 42


 728 0028 8DF80630 		strb	r3, [sp, #6]
1110:Core/Src/main_unique.c **** 
 729              		.loc 1 1110 5 is_stmt 1 view .LVU176
1110:Core/Src/main_unique.c **** 
 730              		.loc 1 1110 14 is_stmt 0 view .LVU177
 731 002c 21F00401 		bic	r1, r1, #4
 732              	.LVL46:
1110:Core/Src/main_unique.c **** 
 733              		.loc 1 1110 14 view .LVU178
 734 0030 41F00801 		orr	r1, r1, #8
1110:Core/Src/main_unique.c **** 
 735              		.loc 1 1110 12 view .LVU179
 736 0034 8DF80710 		strb	r1, [sp, #7]
1112:Core/Src/main_unique.c **** 
 737              		.loc 1 1112 5 is_stmt 1 view .LVU180
 738 0038 0421     		movs	r1, #4
 739 003a 0DEB0100 		add	r0, sp, r1
 740              	.LVL47:
1112:Core/Src/main_unique.c **** 
 741              		.loc 1 1112 5 is_stmt 0 view .LVU181
 742 003e FFF7FEFF 		bl	lcd_tx
 743              	.LVL48:
1116:Core/Src/main_unique.c **** }
 744              		.loc 1 1116 5 is_stmt 1 view .LVU182
 745 0042 3220     		movs	r0, #50
 746 0044 FFF7FEFF 		bl	delay_us
 747              	.LVL49:
1117:Core/Src/main_unique.c **** 
 748              		.loc 1 1117 1 is_stmt 0 view .LVU183
 749 0048 03B0     		add	sp, sp, #12
 750              	.LCFI10:
 751              		.cfi_def_cfa_offset 4
 752              		@ sp needed
 753 004a 00BD     		pop	{pc}
 754              		.cfi_endproc
 755              	.LFE304:
 757              		.section	.text.lcd_command,"ax",%progbits
 758              		.align	1
 759              		.syntax unified
 760              		.thumb
 761              		.thumb_func
 763              	lcd_command:
 764              	.LVL50:
 765              	.LFB306:
1134:Core/Src/main_unique.c **** static void lcd_data(uint8_t c)    { lcd_send(c, 0x01U); }
 766              		.loc 1 1134 36 is_stmt 1 view -0
 767              		.cfi_startproc
 768              		@ args = 0, pretend = 0, frame = 0
 769              		@ frame_needed = 0, uses_anonymous_args = 0
1134:Core/Src/main_unique.c **** static void lcd_data(uint8_t c)    { lcd_send(c, 0x01U); }
 770              		.loc 1 1134 36 is_stmt 0 view .LVU185
 771 0000 08B5     		push	{r3, lr}
 772              	.LCFI11:
 773              		.cfi_def_cfa_offset 8
 774              		.cfi_offset 3, -8
 775              		.cfi_offset 14, -4
1134:Core/Src/main_unique.c **** static void lcd_data(uint8_t c)    { lcd_send(c, 0x01U); }
ARM GAS  /tmp/ccjBgtoi.s 			page 43


 776              		.loc 1 1134 38 is_stmt 1 view .LVU186
 777 0002 0021     		movs	r1, #0
 778 0004 FFF7FEFF 		bl	lcd_send
 779              	.LVL51:
1134:Core/Src/main_unique.c **** static void lcd_data(uint8_t c)    { lcd_send(c, 0x01U); }
 780              		.loc 1 1134 58 is_stmt 0 view .LVU187
 781 0008 08BD     		pop	{r3, pc}
 782              		.cfi_endproc
 783              	.LFE306:
 785              		.section	.text.lcd_data,"ax",%progbits
 786              		.align	1
 787              		.syntax unified
 788              		.thumb
 789              		.thumb_func
 791              	lcd_data:
 792              	.LVL52:
 793              	.LFB307:
1135:Core/Src/main_unique.c **** 
 794              		.loc 1 1135 36 is_stmt 1 view -0
 795              		.cfi_startproc
 796              		@ args = 0, pretend = 0, frame = 0
 797              		@ frame_needed = 0, uses_anonymous_args = 0
1135:Core/Src/main_unique.c **** 
 798              		.loc 1 1135 36 is_stmt 0 view .LVU189
 799 0000 08B5     		push	{r3, lr}
 800              	.LCFI12:
 801              		.cfi_def_cfa_offset 8
 802              		.cfi_offset 3, -8
 803              		.cfi_offset 14, -4
1135:Core/Src/main_unique.c **** 
 804              		.loc 1 1135 38 is_stmt 1 view .LVU190
 805 0002 0121     		movs	r1, #1
 806 0004 FFF7FEFF 		bl	lcd_send
 807              	.LVL53:
1135:Core/Src/main_unique.c **** 
 808              		.loc 1 1135 58 is_stmt 0 view .LVU191
 809 0008 08BD     		pop	{r3, pc}
 810              		.cfi_endproc
 811              	.LFE307:
 813              		.section	.text.system_clock_mco_set,"ax",%progbits
 814              		.align	1
 815              		.global	system_clock_mco_set
 816              		.syntax unified
 817              		.thumb
 818              		.thumb_func
 820              	system_clock_mco_set:
 821              	.LVL54:
 822              	.LFB269:
 368:Core/Src/main_unique.c ****     switch (src) {
 823              		.loc 1 368 1 is_stmt 1 view -0
 824              		.cfi_startproc
 825              		@ args = 0, pretend = 0, frame = 0
 826              		@ frame_needed = 0, uses_anonymous_args = 0
 368:Core/Src/main_unique.c ****     switch (src) {
 827              		.loc 1 368 1 is_stmt 0 view .LVU193
 828 0000 10B5     		push	{r4, lr}
 829              	.LCFI13:
ARM GAS  /tmp/ccjBgtoi.s 			page 44


 830              		.cfi_def_cfa_offset 8
 831              		.cfi_offset 4, -8
 832              		.cfi_offset 14, -4
 369:Core/Src/main_unique.c **** 
 833              		.loc 1 369 5 is_stmt 1 view .LVU194
 834 0002 0446     		mov	r4, r0
 835 0004 90B1     		cbz	r0, .L61
 836 0006 0128     		cmp	r0, #1
 837 0008 1AD0     		beq	.L62
 385:Core/Src/main_unique.c ****         s_mco_freq = HAL_RCC_GetSysClockFreq() / 5U;  /* 100 MHz / 5 = 20 MHz */
 838              		.loc 1 385 9 view .LVU195
 839 000a 4FF0E062 		mov	r2, #117440512
 840 000e 4FF4C001 		mov	r1, #6291456
 841 0012 0020     		movs	r0, #0
 842              	.LVL55:
 385:Core/Src/main_unique.c ****         s_mco_freq = HAL_RCC_GetSysClockFreq() / 5U;  /* 100 MHz / 5 = 20 MHz */
 843              		.loc 1 385 9 is_stmt 0 view .LVU196
 844 0014 FFF7FEFF 		bl	HAL_RCC_MCOConfig
 845              	.LVL56:
 386:Core/Src/main_unique.c ****         src = MCO_SRC_PLL;                   /* normaliza el valor guardado  */
 846              		.loc 1 386 9 is_stmt 1 view .LVU197
 386:Core/Src/main_unique.c ****         src = MCO_SRC_PLL;                   /* normaliza el valor guardado  */
 847              		.loc 1 386 22 is_stmt 0 view .LVU198
 848 0018 FFF7FEFF 		bl	HAL_RCC_GetSysClockFreq
 849              	.LVL57:
 386:Core/Src/main_unique.c ****         src = MCO_SRC_PLL;                   /* normaliza el valor guardado  */
 850              		.loc 1 386 48 discriminator 1 view .LVU199
 851 001c 104B     		ldr	r3, .L70
 852 001e A3FB0030 		umull	r3, r0, r3, r0
 853 0022 8008     		lsrs	r0, r0, #2
 386:Core/Src/main_unique.c ****         src = MCO_SRC_PLL;                   /* normaliza el valor guardado  */
 854              		.loc 1 386 20 discriminator 1 view .LVU200
 855 0024 0F4B     		ldr	r3, .L70+4
 856 0026 1860     		str	r0, [r3]
 387:Core/Src/main_unique.c ****         break;
 857              		.loc 1 387 9 is_stmt 1 view .LVU201
 858              	.LVL58:
 388:Core/Src/main_unique.c ****     }
 859              		.loc 1 388 9 view .LVU202
 387:Core/Src/main_unique.c ****         break;
 860              		.loc 1 387 13 is_stmt 0 view .LVU203
 861 0028 0224     		movs	r4, #2
 388:Core/Src/main_unique.c ****     }
 862              		.loc 1 388 9 view .LVU204
 863 002a 06E0     		b	.L64
 864              	.LVL59:
 865              	.L61:
 372:Core/Src/main_unique.c ****         s_mco_freq = HSI_VALUE;              /* 16 000 000 Hz */
 866              		.loc 1 372 9 is_stmt 1 view .LVU205
 867 002c 0246     		mov	r2, r0
 868 002e 0146     		mov	r1, r0
 869 0030 FFF7FEFF 		bl	HAL_RCC_MCOConfig
 870              	.LVL60:
 373:Core/Src/main_unique.c ****         break;
 871              		.loc 1 373 9 view .LVU206
 373:Core/Src/main_unique.c ****         break;
 872              		.loc 1 373 20 is_stmt 0 view .LVU207
ARM GAS  /tmp/ccjBgtoi.s 			page 45


 873 0034 0B4B     		ldr	r3, .L70+4
 874 0036 0C4A     		ldr	r2, .L70+8
 875 0038 1A60     		str	r2, [r3]
 374:Core/Src/main_unique.c **** 
 876              		.loc 1 374 9 is_stmt 1 view .LVU208
 877              	.LVL61:
 878              	.L64:
 391:Core/Src/main_unique.c **** }
 879              		.loc 1 391 5 view .LVU209
 391:Core/Src/main_unique.c **** }
 880              		.loc 1 391 15 is_stmt 0 view .LVU210
 881 003a 0C4B     		ldr	r3, .L70+12
 882 003c 1C70     		strb	r4, [r3]
 392:Core/Src/main_unique.c **** 
 883              		.loc 1 392 1 view .LVU211
 884 003e 10BD     		pop	{r4, pc}
 885              	.LVL62:
 886              	.L62:
 377:Core/Src/main_unique.c ****         /* Si el cristal no oscila, MCO1 queda en reposo: se refleja con una
 887              		.loc 1 377 9 is_stmt 1 view .LVU212
 888 0040 0022     		movs	r2, #0
 889 0042 4FF40011 		mov	r1, #2097152
 890 0046 1046     		mov	r0, r2
 891              	.LVL63:
 377:Core/Src/main_unique.c ****         /* Si el cristal no oscila, MCO1 queda en reposo: se refleja con una
 892              		.loc 1 377 9 is_stmt 0 view .LVU213
 893 0048 FFF7FEFF 		bl	HAL_RCC_MCOConfig
 894              	.LVL64:
 380:Core/Src/main_unique.c ****         break;
 895              		.loc 1 380 9 is_stmt 1 view .LVU214
 380:Core/Src/main_unique.c ****         break;
 896              		.loc 1 380 31 is_stmt 0 view .LVU215
 897 004c 084B     		ldr	r3, .L70+16
 898 004e 1B78     		ldrb	r3, [r3]	@ zero_extendqisi2
 380:Core/Src/main_unique.c ****         break;
 899              		.loc 1 380 43 view .LVU216
 900 0050 23B1     		cbz	r3, .L67
 380:Core/Src/main_unique.c ****         break;
 901              		.loc 1 380 43 discriminator 1 view .LVU217
 902 0052 4FF40042 		mov	r2, #32768
 903              	.L65:
 380:Core/Src/main_unique.c ****         break;
 904              		.loc 1 380 20 discriminator 3 view .LVU218
 905 0056 034B     		ldr	r3, .L70+4
 906 0058 1A60     		str	r2, [r3]
 381:Core/Src/main_unique.c **** 
 907              		.loc 1 381 9 is_stmt 1 view .LVU219
 908 005a EEE7     		b	.L64
 909              	.L67:
 380:Core/Src/main_unique.c ****         break;
 910              		.loc 1 380 43 is_stmt 0 discriminator 2 view .LVU220
 911 005c 1A46     		mov	r2, r3
 912 005e FAE7     		b	.L65
 913              	.L71:
 914              		.align	2
 915              	.L70:
 916 0060 CDCCCCCC 		.word	-858993459
ARM GAS  /tmp/ccjBgtoi.s 			page 46


 917 0064 00000000 		.word	s_mco_freq
 918 0068 0024F400 		.word	16000000
 919 006c 00000000 		.word	s_mco_src
 920 0070 00000000 		.word	s_lse_ok
 921              		.cfi_endproc
 922              	.LFE269:
 924              		.section	.text.system_clock_mco_get,"ax",%progbits
 925              		.align	1
 926              		.global	system_clock_mco_get
 927              		.syntax unified
 928              		.thumb
 929              		.thumb_func
 931              	system_clock_mco_get:
 932              	.LFB270:
 396:Core/Src/main_unique.c ****     return s_mco_src;
 933              		.loc 1 396 1 is_stmt 1 view -0
 934              		.cfi_startproc
 935              		@ args = 0, pretend = 0, frame = 0
 936              		@ frame_needed = 0, uses_anonymous_args = 0
 937              		@ link register save eliminated.
 397:Core/Src/main_unique.c **** }
 938              		.loc 1 397 5 view .LVU222
 398:Core/Src/main_unique.c **** 
 939              		.loc 1 398 1 is_stmt 0 view .LVU223
 940 0000 014B     		ldr	r3, .L73
 941 0002 1878     		ldrb	r0, [r3]	@ zero_extendqisi2
 942 0004 7047     		bx	lr
 943              	.L74:
 944 0006 00BF     		.align	2
 945              	.L73:
 946 0008 00000000 		.word	s_mco_src
 947              		.cfi_endproc
 948              	.LFE270:
 950              		.section	.rodata.system_clock_mco_label.str1.4,"aMS",%progbits,1
 951              		.align	2
 952              	.LC1:
 953 0000 4D434F31 		.ascii	"MCO1:HSI 16MHz\000"
 953      3A485349 
 953      2031364D 
 953      487A00
 954 000f 00       		.align	2
 955              	.LC2:
 956 0010 4D434F31 		.ascii	"MCO1:LSE NO OSC\000"
 956      3A4C5345 
 956      204E4F20 
 956      4F534300 
 957              		.align	2
 958              	.LC3:
 959 0020 4D434F31 		.ascii	"MCO1:PLL 20MHz\000"
 959      3A504C4C 
 959      2032304D 
 959      487A00
 960 002f 00       		.align	2
 961              	.LC4:
 962 0030 4D434F31 		.ascii	"MCO1:?\000"
 962      3A3F00
 963 0037 00       		.align	2
ARM GAS  /tmp/ccjBgtoi.s 			page 47


 964              	.LC5:
 965 0038 4D434F31 		.ascii	"MCO1:LSE 32768\000"
 965      3A4C5345 
 965      20333237 
 965      363800
 966              		.section	.text.system_clock_mco_label,"ax",%progbits
 967              		.align	1
 968              		.global	system_clock_mco_label
 969              		.syntax unified
 970              		.thumb
 971              		.thumb_func
 973              	system_clock_mco_label:
 974              	.LFB271:
 402:Core/Src/main_unique.c ****     switch (s_mco_src) {
 975              		.loc 1 402 1 is_stmt 1 view -0
 976              		.cfi_startproc
 977              		@ args = 0, pretend = 0, frame = 0
 978              		@ frame_needed = 0, uses_anonymous_args = 0
 979              		@ link register save eliminated.
 403:Core/Src/main_unique.c ****     case MCO_SRC_HSI: return "MCO1:HSI 16MHz";
 980              		.loc 1 403 5 view .LVU225
 981 0000 094B     		ldr	r3, .L81
 982 0002 1B78     		ldrb	r3, [r3]	@ zero_extendqisi2
 983 0004 012B     		cmp	r3, #1
 984 0006 04D0     		beq	.L76
 985 0008 022B     		cmp	r3, #2
 986 000a 07D0     		beq	.L78
 987 000c 43B9     		cbnz	r3, .L79
 988 000e 0748     		ldr	r0, .L81+4
 989 0010 7047     		bx	lr
 990              	.L76:
 405:Core/Src/main_unique.c ****     case MCO_SRC_PLL: return "MCO1:PLL 20MHz";
 991              		.loc 1 405 23 view .LVU226
 405:Core/Src/main_unique.c ****     case MCO_SRC_PLL: return "MCO1:PLL 20MHz";
 992              		.loc 1 405 39 is_stmt 0 view .LVU227
 993 0012 074B     		ldr	r3, .L81+8
 994 0014 1B78     		ldrb	r3, [r3]	@ zero_extendqisi2
 405:Core/Src/main_unique.c ****     case MCO_SRC_PLL: return "MCO1:PLL 20MHz";
 995              		.loc 1 405 58 view .LVU228
 996 0016 2BB1     		cbz	r3, .L80
 405:Core/Src/main_unique.c ****     case MCO_SRC_PLL: return "MCO1:PLL 20MHz";
 997              		.loc 1 405 58 discriminator 1 view .LVU229
 998 0018 0648     		ldr	r0, .L81+12
 999 001a 7047     		bx	lr
 1000              	.L78:
 406:Core/Src/main_unique.c ****     default:          return "MCO1:?";
 1001              		.loc 1 406 30 view .LVU230
 1002 001c 0648     		ldr	r0, .L81+16
 1003 001e 7047     		bx	lr
 1004              	.L79:
 407:Core/Src/main_unique.c ****     }
 1005              		.loc 1 407 30 view .LVU231
 1006 0020 0648     		ldr	r0, .L81+20
 1007 0022 7047     		bx	lr
 1008              	.L80:
 405:Core/Src/main_unique.c ****     case MCO_SRC_PLL: return "MCO1:PLL 20MHz";
 1009              		.loc 1 405 58 discriminator 2 view .LVU232
ARM GAS  /tmp/ccjBgtoi.s 			page 48


 1010 0024 0648     		ldr	r0, .L81+24
 409:Core/Src/main_unique.c **** 
 1011              		.loc 1 409 1 view .LVU233
 1012 0026 7047     		bx	lr
 1013              	.L82:
 1014              		.align	2
 1015              	.L81:
 1016 0028 00000000 		.word	s_mco_src
 1017 002c 00000000 		.word	.LC1
 1018 0030 00000000 		.word	s_lse_ok
 1019 0034 38000000 		.word	.LC5
 1020 0038 20000000 		.word	.LC3
 1021 003c 30000000 		.word	.LC4
 1022 0040 10000000 		.word	.LC2
 1023              		.cfi_endproc
 1024              	.LFE271:
 1026              		.section	.text.system_clock_lse_ok,"ax",%progbits
 1027              		.align	1
 1028              		.global	system_clock_lse_ok
 1029              		.syntax unified
 1030              		.thumb
 1031              		.thumb_func
 1033              	system_clock_lse_ok:
 1034              	.LFB272:
 413:Core/Src/main_unique.c ****     return s_lse_ok;
 1035              		.loc 1 413 1 is_stmt 1 view -0
 1036              		.cfi_startproc
 1037              		@ args = 0, pretend = 0, frame = 0
 1038              		@ frame_needed = 0, uses_anonymous_args = 0
 1039              		@ link register save eliminated.
 414:Core/Src/main_unique.c **** }
 1040              		.loc 1 414 5 view .LVU235
 415:Core/Src/main_unique.c **** 
 1041              		.loc 1 415 1 is_stmt 0 view .LVU236
 1042 0000 014B     		ldr	r3, .L84
 1043 0002 1878     		ldrb	r0, [r3]	@ zero_extendqisi2
 1044 0004 7047     		bx	lr
 1045              	.L85:
 1046 0006 00BF     		.align	2
 1047              	.L84:
 1048 0008 00000000 		.word	s_lse_ok
 1049              		.cfi_endproc
 1050              	.LFE272:
 1052              		.section	.text.system_clock_mco_freq,"ax",%progbits
 1053              		.align	1
 1054              		.global	system_clock_mco_freq
 1055              		.syntax unified
 1056              		.thumb
 1057              		.thumb_func
 1059              	system_clock_mco_freq:
 1060              	.LFB273:
 419:Core/Src/main_unique.c ****     return s_mco_freq;
 1061              		.loc 1 419 1 is_stmt 1 view -0
 1062              		.cfi_startproc
 1063              		@ args = 0, pretend = 0, frame = 0
 1064              		@ frame_needed = 0, uses_anonymous_args = 0
 1065              		@ link register save eliminated.
ARM GAS  /tmp/ccjBgtoi.s 			page 49


 420:Core/Src/main_unique.c **** }
 1066              		.loc 1 420 5 view .LVU238
 421:Core/Src/main_unique.c **** 
 1067              		.loc 1 421 1 is_stmt 0 view .LVU239
 1068 0000 014B     		ldr	r3, .L87
 1069 0002 1868     		ldr	r0, [r3]
 1070 0004 7047     		bx	lr
 1071              	.L88:
 1072 0006 00BF     		.align	2
 1073              	.L87:
 1074 0008 00000000 		.word	s_mco_freq
 1075              		.cfi_endproc
 1076              	.LFE273:
 1078              		.section	.text.gpio_init,"ax",%progbits
 1079              		.align	1
 1080              		.global	gpio_init
 1081              		.syntax unified
 1082              		.thumb
 1083              		.thumb_func
 1085              	gpio_init:
 1086              	.LFB274:
 438:Core/Src/main_unique.c ****     GPIO_InitTypeDef gi = {0};   /* estructura de configuracion de pin */
 1087              		.loc 1 438 1 is_stmt 1 view -0
 1088              		.cfi_startproc
 1089              		@ args = 0, pretend = 0, frame = 32
 1090              		@ frame_needed = 0, uses_anonymous_args = 0
 1091 0000 F0B5     		push	{r4, r5, r6, r7, lr}
 1092              	.LCFI14:
 1093              		.cfi_def_cfa_offset 20
 1094              		.cfi_offset 4, -20
 1095              		.cfi_offset 5, -16
 1096              		.cfi_offset 6, -12
 1097              		.cfi_offset 7, -8
 1098              		.cfi_offset 14, -4
 1099 0002 89B0     		sub	sp, sp, #36
 1100              	.LCFI15:
 1101              		.cfi_def_cfa_offset 56
 439:Core/Src/main_unique.c **** 
 1102              		.loc 1 439 5 view .LVU241
 439:Core/Src/main_unique.c **** 
 1103              		.loc 1 439 22 is_stmt 0 view .LVU242
 1104 0004 03AD     		add	r5, sp, #12
 1105 0006 0024     		movs	r4, #0
 1106 0008 0394     		str	r4, [sp, #12]
 1107 000a 0494     		str	r4, [sp, #16]
 1108 000c 0594     		str	r4, [sp, #20]
 1109 000e 0694     		str	r4, [sp, #24]
 1110 0010 0794     		str	r4, [sp, #28]
 442:Core/Src/main_unique.c ****     __HAL_RCC_GPIOB_CLK_ENABLE();   /* puerto B: pulsador en PB5          */
 1111              		.loc 1 442 5 is_stmt 1 view .LVU243
 1112              	.LBB5:
 442:Core/Src/main_unique.c ****     __HAL_RCC_GPIOB_CLK_ENABLE();   /* puerto B: pulsador en PB5          */
 1113              		.loc 1 442 5 view .LVU244
 1114 0012 0194     		str	r4, [sp, #4]
 442:Core/Src/main_unique.c ****     __HAL_RCC_GPIOB_CLK_ENABLE();   /* puerto B: pulsador en PB5          */
 1115              		.loc 1 442 5 view .LVU245
 1116 0014 1B4B     		ldr	r3, .L91
ARM GAS  /tmp/ccjBgtoi.s 			page 50


 1117 0016 1A6B     		ldr	r2, [r3, #48]
 1118 0018 42F08002 		orr	r2, r2, #128
 1119 001c 1A63     		str	r2, [r3, #48]
 442:Core/Src/main_unique.c ****     __HAL_RCC_GPIOB_CLK_ENABLE();   /* puerto B: pulsador en PB5          */
 1120              		.loc 1 442 5 view .LVU246
 1121 001e 1A6B     		ldr	r2, [r3, #48]
 1122 0020 02F08002 		and	r2, r2, #128
 1123 0024 0192     		str	r2, [sp, #4]
 442:Core/Src/main_unique.c ****     __HAL_RCC_GPIOB_CLK_ENABLE();   /* puerto B: pulsador en PB5          */
 1124              		.loc 1 442 5 view .LVU247
 1125 0026 019A     		ldr	r2, [sp, #4]
 1126              	.LBE5:
 442:Core/Src/main_unique.c ****     __HAL_RCC_GPIOB_CLK_ENABLE();   /* puerto B: pulsador en PB5          */
 1127              		.loc 1 442 5 view .LVU248
 443:Core/Src/main_unique.c **** 
 1128              		.loc 1 443 5 view .LVU249
 1129              	.LBB6:
 443:Core/Src/main_unique.c **** 
 1130              		.loc 1 443 5 view .LVU250
 1131 0028 0294     		str	r4, [sp, #8]
 443:Core/Src/main_unique.c **** 
 1132              		.loc 1 443 5 view .LVU251
 1133 002a 1A6B     		ldr	r2, [r3, #48]
 1134 002c 42F00202 		orr	r2, r2, #2
 1135 0030 1A63     		str	r2, [r3, #48]
 443:Core/Src/main_unique.c **** 
 1136              		.loc 1 443 5 view .LVU252
 1137 0032 1B6B     		ldr	r3, [r3, #48]
 1138 0034 03F00203 		and	r3, r3, #2
 1139 0038 0293     		str	r3, [sp, #8]
 443:Core/Src/main_unique.c **** 
 1140              		.loc 1 443 5 view .LVU253
 1141 003a 029B     		ldr	r3, [sp, #8]
 1142              	.LBE6:
 443:Core/Src/main_unique.c **** 
 1143              		.loc 1 443 5 view .LVU254
 448:Core/Src/main_unique.c **** 
 1144              		.loc 1 448 5 view .LVU255
 1145 003c 124F     		ldr	r7, .L91+4
 1146 003e 2246     		mov	r2, r4
 1147 0040 0221     		movs	r1, #2
 1148 0042 3846     		mov	r0, r7
 1149 0044 FFF7FEFF 		bl	HAL_GPIO_WritePin
 1150              	.LVL65:
 450:Core/Src/main_unique.c ****     gi.Mode  = GPIO_MODE_OUTPUT_PP;  /* push-pull: el pin puede forzar 0 y 1.
 1151              		.loc 1 450 5 view .LVU256
 450:Core/Src/main_unique.c ****     gi.Mode  = GPIO_MODE_OUTPUT_PP;  /* push-pull: el pin puede forzar 0 y 1.
 1152              		.loc 1 450 14 is_stmt 0 view .LVU257
 1153 0048 0223     		movs	r3, #2
 1154 004a 0393     		str	r3, [sp, #12]
 451:Core/Src/main_unique.c ****                                         Alternativa: GPIO_MODE_OUTPUT_OD
 1155              		.loc 1 451 5 is_stmt 1 view .LVU258
 451:Core/Src/main_unique.c ****                                         Alternativa: GPIO_MODE_OUTPUT_OD
 1156              		.loc 1 451 14 is_stmt 0 view .LVU259
 1157 004c 0126     		movs	r6, #1
 1158 004e 0496     		str	r6, [sp, #16]
 454:Core/Src/main_unique.c ****     gi.Speed = GPIO_SPEED_FREQ_LOW;  /* 2 MHz basta para 4 Hz; velocidades
ARM GAS  /tmp/ccjBgtoi.s 			page 51


 1159              		.loc 1 454 5 is_stmt 1 view .LVU260
 454:Core/Src/main_unique.c ****     gi.Speed = GPIO_SPEED_FREQ_LOW;  /* 2 MHz basta para 4 Hz; velocidades
 1160              		.loc 1 454 14 is_stmt 0 view .LVU261
 1161 0050 0594     		str	r4, [sp, #20]
 455:Core/Src/main_unique.c ****                                         mayores solo aumentan el ruido y el
 1162              		.loc 1 455 5 is_stmt 1 view .LVU262
 455:Core/Src/main_unique.c ****                                         mayores solo aumentan el ruido y el
 1163              		.loc 1 455 14 is_stmt 0 view .LVU263
 1164 0052 0694     		str	r4, [sp, #24]
 459:Core/Src/main_unique.c **** 
 1165              		.loc 1 459 5 is_stmt 1 view .LVU264
 1166 0054 2946     		mov	r1, r5
 1167 0056 3846     		mov	r0, r7
 1168 0058 FFF7FEFF 		bl	HAL_GPIO_Init
 1169              	.LVL66:
 462:Core/Src/main_unique.c ****     gi.Mode = GPIO_MODE_IT_FALLING;  /* interrupcion en flanco de bajada.
 1170              		.loc 1 462 5 view .LVU265
 462:Core/Src/main_unique.c ****     gi.Mode = GPIO_MODE_IT_FALLING;  /* interrupcion en flanco de bajada.
 1171              		.loc 1 462 13 is_stmt 0 view .LVU266
 1172 005c 2023     		movs	r3, #32
 1173 005e 0393     		str	r3, [sp, #12]
 463:Core/Src/main_unique.c ****                                         El SW del joystick cortocircuita el
 1174              		.loc 1 463 5 is_stmt 1 view .LVU267
 463:Core/Src/main_unique.c ****                                         El SW del joystick cortocircuita el
 1175              		.loc 1 463 13 is_stmt 0 view .LVU268
 1176 0060 4FF40413 		mov	r3, #2162688
 1177 0064 0493     		str	r3, [sp, #16]
 467:Core/Src/main_unique.c ****                                         y cae a 0 al pulsar. Evita anadir una
 1178              		.loc 1 467 5 is_stmt 1 view .LVU269
 467:Core/Src/main_unique.c ****                                         y cae a 0 al pulsar. Evita anadir una
 1179              		.loc 1 467 13 is_stmt 0 view .LVU270
 1180 0066 0596     		str	r6, [sp, #20]
 470:Core/Src/main_unique.c **** 
 1181              		.loc 1 470 5 is_stmt 1 view .LVU271
 1182 0068 2946     		mov	r1, r5
 1183 006a 0848     		ldr	r0, .L91+8
 1184 006c FFF7FEFF 		bl	HAL_GPIO_Init
 1185              	.LVL67:
 475:Core/Src/main_unique.c ****     HAL_NVIC_EnableIRQ(JOY_SW_EXTI_IRQn);
 1186              		.loc 1 475 5 view .LVU272
 1187 0070 2246     		mov	r2, r4
 1188 0072 0821     		movs	r1, #8
 1189 0074 1720     		movs	r0, #23
 1190 0076 FFF7FEFF 		bl	HAL_NVIC_SetPriority
 1191              	.LVL68:
 476:Core/Src/main_unique.c **** }
 1192              		.loc 1 476 5 view .LVU273
 1193 007a 1720     		movs	r0, #23
 1194 007c FFF7FEFF 		bl	HAL_NVIC_EnableIRQ
 1195              	.LVL69:
 477:Core/Src/main_unique.c **** 
 1196              		.loc 1 477 1 is_stmt 0 view .LVU274
 1197 0080 09B0     		add	sp, sp, #36
 1198              	.LCFI16:
 1199              		.cfi_def_cfa_offset 20
 1200              		@ sp needed
 1201 0082 F0BD     		pop	{r4, r5, r6, r7, pc}
ARM GAS  /tmp/ccjBgtoi.s 			page 52


 1202              	.L92:
 1203              		.align	2
 1204              	.L91:
 1205 0084 00380240 		.word	1073887232
 1206 0088 001C0240 		.word	1073880064
 1207 008c 00040240 		.word	1073873920
 1208              		.cfi_endproc
 1209              	.LFE274:
 1211              		.section	.text.gpio_led_toggle,"ax",%progbits
 1212              		.align	1
 1213              		.global	gpio_led_toggle
 1214              		.syntax unified
 1215              		.thumb
 1216              		.thumb_func
 1218              	gpio_led_toggle:
 1219              	.LFB275:
 481:Core/Src/main_unique.c ****     HAL_GPIO_TogglePin(LED_GPIO_PORT, LED_PIN);
 1220              		.loc 1 481 1 is_stmt 1 view -0
 1221              		.cfi_startproc
 1222              		@ args = 0, pretend = 0, frame = 0
 1223              		@ frame_needed = 0, uses_anonymous_args = 0
 1224 0000 08B5     		push	{r3, lr}
 1225              	.LCFI17:
 1226              		.cfi_def_cfa_offset 8
 1227              		.cfi_offset 3, -8
 1228              		.cfi_offset 14, -4
 482:Core/Src/main_unique.c **** }
 1229              		.loc 1 482 5 view .LVU276
 1230 0002 0221     		movs	r1, #2
 1231 0004 0148     		ldr	r0, .L95
 1232 0006 FFF7FEFF 		bl	HAL_GPIO_TogglePin
 1233              	.LVL70:
 483:Core/Src/main_unique.c **** 
 1234              		.loc 1 483 1 is_stmt 0 view .LVU277
 1235 000a 08BD     		pop	{r3, pc}
 1236              	.L96:
 1237              		.align	2
 1238              	.L95:
 1239 000c 001C0240 		.word	1073880064
 1240              		.cfi_endproc
 1241              	.LFE275:
 1243              		.section	.text.gpio_led_write,"ax",%progbits
 1244              		.align	1
 1245              		.global	gpio_led_write
 1246              		.syntax unified
 1247              		.thumb
 1248              		.thumb_func
 1250              	gpio_led_write:
 1251              	.LVL71:
 1252              	.LFB276:
 487:Core/Src/main_unique.c ****     HAL_GPIO_WritePin(LED_GPIO_PORT, LED_PIN,
 1253              		.loc 1 487 1 is_stmt 1 view -0
 1254              		.cfi_startproc
 1255              		@ args = 0, pretend = 0, frame = 0
 1256              		@ frame_needed = 0, uses_anonymous_args = 0
 487:Core/Src/main_unique.c ****     HAL_GPIO_WritePin(LED_GPIO_PORT, LED_PIN,
 1257              		.loc 1 487 1 is_stmt 0 view .LVU279
ARM GAS  /tmp/ccjBgtoi.s 			page 53


 1258 0000 08B5     		push	{r3, lr}
 1259              	.LCFI18:
 1260              		.cfi_def_cfa_offset 8
 1261              		.cfi_offset 3, -8
 1262              		.cfi_offset 14, -4
 488:Core/Src/main_unique.c ****                       on ? GPIO_PIN_SET : GPIO_PIN_RESET);
 1263              		.loc 1 488 5 is_stmt 1 view .LVU280
 1264 0002 021E     		subs	r2, r0, #0
 1265 0004 18BF     		it	ne
 1266 0006 0122     		movne	r2, #1
 1267 0008 0221     		movs	r1, #2
 1268 000a 0248     		ldr	r0, .L99
 1269              	.LVL72:
 488:Core/Src/main_unique.c ****                       on ? GPIO_PIN_SET : GPIO_PIN_RESET);
 1270              		.loc 1 488 5 is_stmt 0 view .LVU281
 1271 000c FFF7FEFF 		bl	HAL_GPIO_WritePin
 1272              	.LVL73:
 490:Core/Src/main_unique.c **** 
 1273              		.loc 1 490 1 view .LVU282
 1274 0010 08BD     		pop	{r3, pc}
 1275              	.L100:
 1276 0012 00BF     		.align	2
 1277              	.L99:
 1278 0014 001C0240 		.word	1073880064
 1279              		.cfi_endproc
 1280              	.LFE276:
 1282              		.section	.text.uart_send,"ax",%progbits
 1283              		.align	1
 1284              		.global	uart_send
 1285              		.syntax unified
 1286              		.thumb
 1287              		.thumb_func
 1289              	uart_send:
 1290              	.LVL74:
 1291              	.LFB279:
 576:Core/Src/main_unique.c ****     uint16_t next;
 1292              		.loc 1 576 1 is_stmt 1 view -0
 1293              		.cfi_startproc
 1294              		@ args = 0, pretend = 0, frame = 0
 1295              		@ frame_needed = 0, uses_anonymous_args = 0
 576:Core/Src/main_unique.c ****     uint16_t next;
 1296              		.loc 1 576 1 is_stmt 0 view .LVU284
 1297 0000 08B5     		push	{r3, lr}
 1298              	.LCFI19:
 1299              		.cfi_def_cfa_offset 8
 1300              		.cfi_offset 3, -8
 1301              		.cfi_offset 14, -4
 577:Core/Src/main_unique.c **** 
 1302              		.loc 1 577 5 is_stmt 1 view .LVU285
 579:Core/Src/main_unique.c ****         next = (uint16_t)((s_tx_head + 1U) % UART_TX_BUF_SIZE);
 1303              		.loc 1 579 5 view .LVU286
 579:Core/Src/main_unique.c ****         next = (uint16_t)((s_tx_head + 1U) % UART_TX_BUF_SIZE);
 1304              		.loc 1 579 11 is_stmt 0 view .LVU287
 1305 0002 08E0     		b	.L102
 1306              	.LVL75:
 1307              	.L106:
 584:Core/Src/main_unique.c ****         s_tx_head = next;
ARM GAS  /tmp/ccjBgtoi.s 			page 54


 1308              		.loc 1 584 9 is_stmt 1 view .LVU288
 584:Core/Src/main_unique.c ****         s_tx_head = next;
 1309              		.loc 1 584 42 is_stmt 0 view .LVU289
 1310 0004 0130     		adds	r0, r0, #1
 1311              	.LVL76:
 584:Core/Src/main_unique.c ****         s_tx_head = next;
 1312              		.loc 1 584 17 view .LVU290
 1313 0006 0B49     		ldr	r1, .L107
 1314 0008 B1F800C0 		ldrh	ip, [r1]
 584:Core/Src/main_unique.c ****         s_tx_head = next;
 1315              		.loc 1 584 29 view .LVU291
 1316 000c DFF82CE0 		ldr	lr, .L107+8
 1317 0010 0EF80C20 		strb	r2, [lr, ip]
 585:Core/Src/main_unique.c ****     }
 1318              		.loc 1 585 9 is_stmt 1 view .LVU292
 585:Core/Src/main_unique.c ****     }
 1319              		.loc 1 585 19 is_stmt 0 view .LVU293
 1320 0014 0B80     		strh	r3, [r1]	@ movhi
 1321              	.LVL77:
 1322              	.L102:
 579:Core/Src/main_unique.c ****         next = (uint16_t)((s_tx_head + 1U) % UART_TX_BUF_SIZE);
 1323              		.loc 1 579 15 is_stmt 1 discriminator 1 view .LVU294
 579:Core/Src/main_unique.c ****         next = (uint16_t)((s_tx_head + 1U) % UART_TX_BUF_SIZE);
 1324              		.loc 1 579 12 is_stmt 0 discriminator 1 view .LVU295
 1325 0016 0278     		ldrb	r2, [r0]	@ zero_extendqisi2
 579:Core/Src/main_unique.c ****         next = (uint16_t)((s_tx_head + 1U) % UART_TX_BUF_SIZE);
 1326              		.loc 1 579 15 discriminator 1 view .LVU296
 1327 0018 42B1     		cbz	r2, .L103
 580:Core/Src/main_unique.c ****         if (next == s_tx_tail) {
 1328              		.loc 1 580 9 is_stmt 1 view .LVU297
 580:Core/Src/main_unique.c ****         if (next == s_tx_tail) {
 1329              		.loc 1 580 16 is_stmt 0 view .LVU298
 1330 001a 064B     		ldr	r3, .L107
 1331 001c 1B88     		ldrh	r3, [r3]
 1332 001e 0133     		adds	r3, r3, #1
 580:Core/Src/main_unique.c ****         if (next == s_tx_tail) {
 1333              		.loc 1 580 14 view .LVU299
 1334 0020 C3F30803 		ubfx	r3, r3, #0, #9
 1335              	.LVL78:
 581:Core/Src/main_unique.c ****             break;   /* buffer lleno: se descarta el resto */
 1336              		.loc 1 581 9 is_stmt 1 view .LVU300
 581:Core/Src/main_unique.c ****             break;   /* buffer lleno: se descarta el resto */
 1337              		.loc 1 581 18 is_stmt 0 view .LVU301
 1338 0024 0449     		ldr	r1, .L107+4
 1339 0026 0988     		ldrh	r1, [r1]
 581:Core/Src/main_unique.c ****             break;   /* buffer lleno: se descarta el resto */
 1340              		.loc 1 581 12 view .LVU302
 1341 0028 9942     		cmp	r1, r3
 1342 002a EBD1     		bne	.L106
 1343              	.LVL79:
 1344              	.L103:
 587:Core/Src/main_unique.c **** }
 1345              		.loc 1 587 5 is_stmt 1 view .LVU303
 1346 002c FFF7FEFF 		bl	uart_start_tx
 1347              	.LVL80:
 588:Core/Src/main_unique.c **** 
 1348              		.loc 1 588 1 is_stmt 0 view .LVU304
ARM GAS  /tmp/ccjBgtoi.s 			page 55


 1349 0030 08BD     		pop	{r3, pc}
 1350              	.L108:
 1351 0032 00BF     		.align	2
 1352              	.L107:
 1353 0034 00000000 		.word	s_tx_head
 1354 0038 00000000 		.word	s_tx_tail
 1355 003c 00000000 		.word	s_tx_buf
 1356              		.cfi_endproc
 1357              	.LFE279:
 1359              		.section	.rodata.uart_send_line.str1.4,"aMS",%progbits,1
 1360              		.align	2
 1361              	.LC6:
 1362 0000 0D0A00   		.ascii	"\015\012\000"
 1363              		.section	.text.uart_send_line,"ax",%progbits
 1364              		.align	1
 1365              		.global	uart_send_line
 1366              		.syntax unified
 1367              		.thumb
 1368              		.thumb_func
 1370              	uart_send_line:
 1371              	.LVL81:
 1372              	.LFB280:
 591:Core/Src/main_unique.c ****     uart_send(s);
 1373              		.loc 1 591 1 is_stmt 1 view -0
 1374              		.cfi_startproc
 1375              		@ args = 0, pretend = 0, frame = 0
 1376              		@ frame_needed = 0, uses_anonymous_args = 0
 591:Core/Src/main_unique.c ****     uart_send(s);
 1377              		.loc 1 591 1 is_stmt 0 view .LVU306
 1378 0000 08B5     		push	{r3, lr}
 1379              	.LCFI20:
 1380              		.cfi_def_cfa_offset 8
 1381              		.cfi_offset 3, -8
 1382              		.cfi_offset 14, -4
 592:Core/Src/main_unique.c ****     uart_send("\r\n");
 1383              		.loc 1 592 5 is_stmt 1 view .LVU307
 1384 0002 FFF7FEFF 		bl	uart_send
 1385              	.LVL82:
 593:Core/Src/main_unique.c **** }
 1386              		.loc 1 593 5 view .LVU308
 1387 0006 0248     		ldr	r0, .L111
 1388 0008 FFF7FEFF 		bl	uart_send
 1389              	.LVL83:
 594:Core/Src/main_unique.c **** 
 1390              		.loc 1 594 1 is_stmt 0 view .LVU309
 1391 000c 08BD     		pop	{r3, pc}
 1392              	.L112:
 1393 000e 00BF     		.align	2
 1394              	.L111:
 1395 0010 00000000 		.word	.LC6
 1396              		.cfi_endproc
 1397              	.LFE280:
 1399              		.section	.rodata.print_help.str1.4,"aMS",%progbits,1
 1400              		.align	2
 1401              	.LC7:
 1402 0000 00       		.ascii	"\000"
 1403 0001 000000   		.align	2
ARM GAS  /tmp/ccjBgtoi.s 			page 56


 1404              	.LC8:
 1405 0004 3D3D3D20 		.ascii	"=== PARCIAL TALLER V 2026-1 - DANIEL VARGAS - UNAL "
 1405      50415243 
 1405      49414C20 
 1405      54414C4C 
 1405      45522056 
 1406 0037 3D3D3D00 		.ascii	"===\000"
 1407 003b 00       		.align	2
 1408              	.LC9:
 1409 003c 2063203A 		.ascii	" c : coordenadas X e Y a cero\000"
 1409      20636F6F 
 1409      7264656E 
 1409      61646173 
 1409      20582065 
 1410 005a 0000     		.align	2
 1411              	.LC10:
 1412 005c 2078203A 		.ascii	" x : activa modo X\000"
 1412      20616374 
 1412      69766120 
 1412      6D6F646F 
 1412      205800
 1413 006f 00       		.align	2
 1414              	.LC11:
 1415 0070 2079203A 		.ascii	" y : activa modo Y\000"
 1415      20616374 
 1415      69766120 
 1415      6D6F646F 
 1415      205900
 1416 0083 00       		.align	2
 1417              	.LC12:
 1418 0084 202B203A 		.ascii	" + : incrementa la coordenada del modo activo\000"
 1418      20696E63 
 1418      72656D65 
 1418      6E746120 
 1418      6C612063 
 1419 00b2 0000     		.align	2
 1420              	.LC13:
 1421 00b4 202D203A 		.ascii	" - : decrementa la coordenada del modo activo\000"
 1421      20646563 
 1421      72656D65 
 1421      6E746120 
 1421      6C612063 
 1422 00e2 0000     		.align	2
 1423              	.LC14:
 1424 00e4 2068203A 		.ascii	" h : MCO1 (PA8) = HSI 16 MHz\000"
 1424      204D434F 
 1424      31202850 
 1424      41382920 
 1424      3D204853 
 1425 0101 000000   		.align	2
 1426              	.LC15:
 1427 0104 206C203A 		.ascii	" l : MCO1 (PA8) = LSE 32768 Hz\000"
 1427      204D434F 
 1427      31202850 
 1427      41382920 
 1427      3D204C53 
 1428 0123 00       		.align	2
ARM GAS  /tmp/ccjBgtoi.s 			page 57


 1429              	.LC16:
 1430 0124 2070203A 		.ascii	" p : MCO1 (PA8) = PLL / 5 = 20 MHz\000"
 1430      204D434F 
 1430      31202850 
 1430      41382920 
 1430      3D20504C 
 1431 0147 00       		.align	2
 1432              	.LC17:
 1433 0148 2064203A 		.ascii	" d : informe de diagnostico del sistema\000"
 1433      20696E66 
 1433      6F726D65 
 1433      20646520 
 1433      64696167 
 1434              		.align	2
 1435              	.LC18:
 1436 0170 2073203A 		.ascii	" s : sondeo completo del bus I2C\000"
 1436      20736F6E 
 1436      64656F20 
 1436      636F6D70 
 1436      6C65746F 
 1437 0191 000000   		.align	2
 1438              	.LC19:
 1439 0194 203F203A 		.ascii	" ? : esta ayuda\000"
 1439      20657374 
 1439      61206179 
 1439      75646100 
 1440              		.align	2
 1441              	.LC20:
 1442 01a4 3D3D3D3D 		.ascii	"==================================================="
 1442      3D3D3D3D 
 1442      3D3D3D3D 
 1442      3D3D3D3D 
 1442      3D3D3D3D 
 1443 01d7 3D3D3D00 		.ascii	"===\000"
 1444              		.section	.text.print_help,"ax",%progbits
 1445              		.align	1
 1446              		.syntax unified
 1447              		.thumb
 1448              		.thumb_func
 1450              	print_help:
 1451              	.LFB332:
1558:Core/Src/main_unique.c **** 
1559:Core/Src/main_unique.c **** /*
1560:Core/Src/main_unique.c ****  * render_line2
1561:Core/Src/main_unique.c ****  * Compone la ventana visible de la fila 1.
1562:Core/Src/main_unique.c ****  * Si el texto cabe entero se muestra fijo; si no, se desplaza ciclicamente
1563:Core/Src/main_unique.c ****  * anadiendo un separador de tres espacios entre el final y el principio.
1564:Core/Src/main_unique.c ****  */
1565:Core/Src/main_unique.c **** static void render_line2(void)
1566:Core/Src/main_unique.c **** {
1567:Core/Src/main_unique.c ****     char     win[LCD_COLS + 1U];
1568:Core/Src/main_unique.c ****     uint16_t len, total, i, idx;
1569:Core/Src/main_unique.c **** 
1570:Core/Src/main_unique.c ****     if (s_line2 == NULL) {
1571:Core/Src/main_unique.c ****         return;
1572:Core/Src/main_unique.c ****     }
1573:Core/Src/main_unique.c **** 
ARM GAS  /tmp/ccjBgtoi.s 			page 58


1574:Core/Src/main_unique.c ****     len = (uint16_t)strlen(s_line2);
1575:Core/Src/main_unique.c **** 
1576:Core/Src/main_unique.c ****     if (len <= LCD_COLS) {
1577:Core/Src/main_unique.c ****         lcd_update(1U, s_line2);   /* cabe entero: sin desplazamiento */
1578:Core/Src/main_unique.c ****         return;
1579:Core/Src/main_unique.c ****     }
1580:Core/Src/main_unique.c **** 
1581:Core/Src/main_unique.c ****     total = (uint16_t)(len + 3U);      /* longitud del ciclo con separador */
1582:Core/Src/main_unique.c **** 
1583:Core/Src/main_unique.c ****     for (i = 0U; i < LCD_COLS; i++) {
1584:Core/Src/main_unique.c ****         idx = (uint16_t)((s_scroll + i) % total);
1585:Core/Src/main_unique.c ****         win[i] = (idx < len) ? s_line2[idx] : ' ';
1586:Core/Src/main_unique.c ****     }
1587:Core/Src/main_unique.c ****     win[LCD_COLS] = '\0';
1588:Core/Src/main_unique.c **** 
1589:Core/Src/main_unique.c ****     lcd_update(1U, win);
1590:Core/Src/main_unique.c **** }
1591:Core/Src/main_unique.c **** 
1592:Core/Src/main_unique.c **** /*
1593:Core/Src/main_unique.c ****  * render_time
1594:Core/Src/main_unique.c ****  * Refresca la fila 0 con la hora y la fecha del RTC.
1595:Core/Src/main_unique.c ****  */
1596:Core/Src/main_unique.c **** static void render_time(void)
1597:Core/Src/main_unique.c **** {
1598:Core/Src/main_unique.c ****     char buf[LCD_COLS + 1U];
1599:Core/Src/main_unique.c **** 
1600:Core/Src/main_unique.c ****     rtc_format_line(buf, sizeof(buf));
1601:Core/Src/main_unique.c ****     lcd_update(0U, buf);
1602:Core/Src/main_unique.c **** }
1603:Core/Src/main_unique.c **** 
1604:Core/Src/main_unique.c **** /*
1605:Core/Src/main_unique.c ****  * render_coords
1606:Core/Src/main_unique.c ****  * Refresca las filas 2 y 3 con la coordenada y la muestra cruda de cada eje.
1607:Core/Src/main_unique.c ****  * Formato: "X:+025 ADC:2048".
1608:Core/Src/main_unique.c ****  */
1609:Core/Src/main_unique.c **** static void render_coords(void)
1610:Core/Src/main_unique.c **** {
1611:Core/Src/main_unique.c ****     /* El buffer se dimensiona con holgura para que el compilador pueda
1612:Core/Src/main_unique.c ****        descartar cualquier posibilidad de truncamiento en snprintf. */
1613:Core/Src/main_unique.c ****     char buf[24];
1614:Core/Src/main_unique.c **** 
1615:Core/Src/main_unique.c ****     snprintf(buf, sizeof(buf), "X:%+04d ADC:%04u",
1616:Core/Src/main_unique.c ****              (int)s_coord_x, (unsigned)adc_joystick_raw_x());
1617:Core/Src/main_unique.c ****     lcd_update(2U, buf);
1618:Core/Src/main_unique.c **** 
1619:Core/Src/main_unique.c ****     snprintf(buf, sizeof(buf), "Y:%+04d ADC:%04u",
1620:Core/Src/main_unique.c ****              (int)s_coord_y, (unsigned)adc_joystick_raw_y());
1621:Core/Src/main_unique.c ****     lcd_update(3U, buf);
1622:Core/Src/main_unique.c **** }
1623:Core/Src/main_unique.c **** 
1624:Core/Src/main_unique.c **** /*
1625:Core/Src/main_unique.c ****  * show_message
1626:Core/Src/main_unique.c ****  * Muestra un texto temporal en la fila 1 y programa el regreso al estado
1627:Core/Src/main_unique.c ****  * anterior transcurridos 3 segundos.
1628:Core/Src/main_unique.c ****  */
1629:Core/Src/main_unique.c **** static void show_message(const char *txt)
1630:Core/Src/main_unique.c **** {
ARM GAS  /tmp/ccjBgtoi.s 			page 59


1631:Core/Src/main_unique.c ****     if (s_state != ST_MESSAGE) {
1632:Core/Src/main_unique.c ****         s_prev = s_state;      /* memoriza a donde volver */
1633:Core/Src/main_unique.c ****     }
1634:Core/Src/main_unique.c ****     s_state       = ST_MESSAGE;
1635:Core/Src/main_unique.c ****     s_msg_timeout = MSG_DURATION_TICKS;
1636:Core/Src/main_unique.c ****     set_line2(txt);
1637:Core/Src/main_unique.c ****     render_line2();
1638:Core/Src/main_unique.c **** }
1639:Core/Src/main_unique.c **** 
1640:Core/Src/main_unique.c **** /*
1641:Core/Src/main_unique.c ****  * restore_line2
1642:Core/Src/main_unique.c ****  * Devuelve a la fila 1 el texto que corresponde al estado activo.
1643:Core/Src/main_unique.c ****  */
1644:Core/Src/main_unique.c **** static void restore_line2(void)
1645:Core/Src/main_unique.c **** {
1646:Core/Src/main_unique.c ****     switch (s_state) {
1647:Core/Src/main_unique.c ****     case ST_MODE_X: set_line2(TXT_MODE_X); break;
1648:Core/Src/main_unique.c ****     case ST_MODE_Y: set_line2(TXT_MODE_Y); break;
1649:Core/Src/main_unique.c ****     default:        set_line2(TXT_BANNER); break;
1650:Core/Src/main_unique.c ****     }
1651:Core/Src/main_unique.c ****     render_line2();
1652:Core/Src/main_unique.c **** }
1653:Core/Src/main_unique.c **** 
1654:Core/Src/main_unique.c **** /* ----------------------- Acciones sobre las coordenadas ------------------ */
1655:Core/Src/main_unique.c **** 
1656:Core/Src/main_unique.c **** /*
1657:Core/Src/main_unique.c ****  * coord_step
1658:Core/Src/main_unique.c ****  * Aplica un incremento a la coordenada del modo activo. Si no hay modo
1659:Core/Src/main_unique.c ****  * seleccionado emite el aviso exigido por el enunciado.
1660:Core/Src/main_unique.c ****  */
1661:Core/Src/main_unique.c **** static void coord_step(int16_t delta)
1662:Core/Src/main_unique.c **** {
1663:Core/Src/main_unique.c ****     switch (s_state) {
1664:Core/Src/main_unique.c **** 
1665:Core/Src/main_unique.c ****     case ST_MODE_X:
1666:Core/Src/main_unique.c ****         s_coord_x = clamp_coord((int32_t)s_coord_x + delta);
1667:Core/Src/main_unique.c ****         render_coords();
1668:Core/Src/main_unique.c ****         break;
1669:Core/Src/main_unique.c **** 
1670:Core/Src/main_unique.c ****     case ST_MODE_Y:
1671:Core/Src/main_unique.c ****         s_coord_y = clamp_coord((int32_t)s_coord_y + delta);
1672:Core/Src/main_unique.c ****         render_coords();
1673:Core/Src/main_unique.c ****         break;
1674:Core/Src/main_unique.c **** 
1675:Core/Src/main_unique.c ****     case ST_MESSAGE:
1676:Core/Src/main_unique.c ****         /* Si ya se esta mostrando el aviso se prolonga su duracion, salvo que
1677:Core/Src/main_unique.c ****            el modo memorizado sea valido, en cuyo caso se aplica el paso. */
1678:Core/Src/main_unique.c ****         if (s_prev == ST_MODE_X) {
1679:Core/Src/main_unique.c ****             s_coord_x = clamp_coord((int32_t)s_coord_x + delta);
1680:Core/Src/main_unique.c ****             render_coords();
1681:Core/Src/main_unique.c ****         } else if (s_prev == ST_MODE_Y) {
1682:Core/Src/main_unique.c ****             s_coord_y = clamp_coord((int32_t)s_coord_y + delta);
1683:Core/Src/main_unique.c ****             render_coords();
1684:Core/Src/main_unique.c ****         } else {
1685:Core/Src/main_unique.c ****             s_msg_timeout = MSG_DURATION_TICKS;
1686:Core/Src/main_unique.c ****         }
1687:Core/Src/main_unique.c ****         break;
ARM GAS  /tmp/ccjBgtoi.s 			page 60


1688:Core/Src/main_unique.c **** 
1689:Core/Src/main_unique.c ****     default:
1690:Core/Src/main_unique.c ****         show_message(TXT_NO_MODE);
1691:Core/Src/main_unique.c ****         uart_send_line("ERROR: seleccione modo con 'x' o 'y'");
1692:Core/Src/main_unique.c ****         break;
1693:Core/Src/main_unique.c ****     }
1694:Core/Src/main_unique.c **** }
1695:Core/Src/main_unique.c **** 
1696:Core/Src/main_unique.c **** /*
1697:Core/Src/main_unique.c ****  * apply_joystick
1698:Core/Src/main_unique.c ****  * Traduce la posicion del joystick en incrementos de coordenada. Se ejecuta
1699:Core/Src/main_unique.c ****  * cada 100 ms, de modo que mantener la palanca desviada produce un barrido
1700:Core/Src/main_unique.c ****  * continuo de 10 unidades por segundo.
1701:Core/Src/main_unique.c ****  */
1702:Core/Src/main_unique.c **** static void apply_joystick(void)
1703:Core/Src/main_unique.c **** {
1704:Core/Src/main_unique.c ****     int8_t dx = adc_joystick_dir_x();
1705:Core/Src/main_unique.c ****     int8_t dy = adc_joystick_dir_y();
1706:Core/Src/main_unique.c **** 
1707:Core/Src/main_unique.c ****     if (dx != 0) {
1708:Core/Src/main_unique.c ****         s_coord_x = clamp_coord((int32_t)s_coord_x + dx);
1709:Core/Src/main_unique.c ****     }
1710:Core/Src/main_unique.c ****     if (dy != 0) {
1711:Core/Src/main_unique.c ****         s_coord_y = clamp_coord((int32_t)s_coord_y + dy);
1712:Core/Src/main_unique.c ****     }
1713:Core/Src/main_unique.c **** }
1714:Core/Src/main_unique.c **** 
1715:Core/Src/main_unique.c **** /* ----------------------- Ayuda por consola ------------------------------- */
1716:Core/Src/main_unique.c **** static void print_help(void)
1717:Core/Src/main_unique.c **** {
 1452              		.loc 1 1717 1 is_stmt 1 view -0
 1453              		.cfi_startproc
 1454              		@ args = 0, pretend = 0, frame = 0
 1455              		@ frame_needed = 0, uses_anonymous_args = 0
 1456 0000 08B5     		push	{r3, lr}
 1457              	.LCFI21:
 1458              		.cfi_def_cfa_offset 8
 1459              		.cfi_offset 3, -8
 1460              		.cfi_offset 14, -4
1718:Core/Src/main_unique.c ****     uart_send_line("");
 1461              		.loc 1 1718 5 view .LVU311
 1462 0002 1548     		ldr	r0, .L115
 1463 0004 FFF7FEFF 		bl	uart_send_line
 1464              	.LVL84:
1719:Core/Src/main_unique.c ****     uart_send_line("=== PARCIAL TALLER V 2026-1 - DANIEL VARGAS - UNAL ===");
 1465              		.loc 1 1719 5 view .LVU312
 1466 0008 1448     		ldr	r0, .L115+4
 1467 000a FFF7FEFF 		bl	uart_send_line
 1468              	.LVL85:
1720:Core/Src/main_unique.c ****     uart_send_line(" c : coordenadas X e Y a cero");
 1469              		.loc 1 1720 5 view .LVU313
 1470 000e 1448     		ldr	r0, .L115+8
 1471 0010 FFF7FEFF 		bl	uart_send_line
 1472              	.LVL86:
1721:Core/Src/main_unique.c ****     uart_send_line(" x : activa modo X");
 1473              		.loc 1 1721 5 view .LVU314
 1474 0014 1348     		ldr	r0, .L115+12
ARM GAS  /tmp/ccjBgtoi.s 			page 61


 1475 0016 FFF7FEFF 		bl	uart_send_line
 1476              	.LVL87:
1722:Core/Src/main_unique.c ****     uart_send_line(" y : activa modo Y");
 1477              		.loc 1 1722 5 view .LVU315
 1478 001a 1348     		ldr	r0, .L115+16
 1479 001c FFF7FEFF 		bl	uart_send_line
 1480              	.LVL88:
1723:Core/Src/main_unique.c ****     uart_send_line(" + : incrementa la coordenada del modo activo");
 1481              		.loc 1 1723 5 view .LVU316
 1482 0020 1248     		ldr	r0, .L115+20
 1483 0022 FFF7FEFF 		bl	uart_send_line
 1484              	.LVL89:
1724:Core/Src/main_unique.c ****     uart_send_line(" - : decrementa la coordenada del modo activo");
 1485              		.loc 1 1724 5 view .LVU317
 1486 0026 1248     		ldr	r0, .L115+24
 1487 0028 FFF7FEFF 		bl	uart_send_line
 1488              	.LVL90:
1725:Core/Src/main_unique.c ****     uart_send_line(" h : MCO1 (PA8) = HSI 16 MHz");
 1489              		.loc 1 1725 5 view .LVU318
 1490 002c 1148     		ldr	r0, .L115+28
 1491 002e FFF7FEFF 		bl	uart_send_line
 1492              	.LVL91:
1726:Core/Src/main_unique.c ****     uart_send_line(" l : MCO1 (PA8) = LSE 32768 Hz");
 1493              		.loc 1 1726 5 view .LVU319
 1494 0032 1148     		ldr	r0, .L115+32
 1495 0034 FFF7FEFF 		bl	uart_send_line
 1496              	.LVL92:
1727:Core/Src/main_unique.c ****     uart_send_line(" p : MCO1 (PA8) = PLL / 5 = 20 MHz");
 1497              		.loc 1 1727 5 view .LVU320
 1498 0038 1048     		ldr	r0, .L115+36
 1499 003a FFF7FEFF 		bl	uart_send_line
 1500              	.LVL93:
1728:Core/Src/main_unique.c ****     uart_send_line(" d : informe de diagnostico del sistema");
 1501              		.loc 1 1728 5 view .LVU321
 1502 003e 1048     		ldr	r0, .L115+40
 1503 0040 FFF7FEFF 		bl	uart_send_line
 1504              	.LVL94:
1729:Core/Src/main_unique.c ****     uart_send_line(" s : sondeo completo del bus I2C");
 1505              		.loc 1 1729 5 view .LVU322
 1506 0044 0F48     		ldr	r0, .L115+44
 1507 0046 FFF7FEFF 		bl	uart_send_line
 1508              	.LVL95:
1730:Core/Src/main_unique.c ****     uart_send_line(" ? : esta ayuda");
 1509              		.loc 1 1730 5 view .LVU323
 1510 004a 0F48     		ldr	r0, .L115+48
 1511 004c FFF7FEFF 		bl	uart_send_line
 1512              	.LVL96:
1731:Core/Src/main_unique.c ****     uart_send_line("======================================================");
 1513              		.loc 1 1731 5 view .LVU324
 1514 0050 0E48     		ldr	r0, .L115+52
 1515 0052 FFF7FEFF 		bl	uart_send_line
 1516              	.LVL97:
1732:Core/Src/main_unique.c **** }
 1517              		.loc 1 1732 1 is_stmt 0 view .LVU325
 1518 0056 08BD     		pop	{r3, pc}
 1519              	.L116:
 1520              		.align	2
ARM GAS  /tmp/ccjBgtoi.s 			page 62


 1521              	.L115:
 1522 0058 00000000 		.word	.LC7
 1523 005c 04000000 		.word	.LC8
 1524 0060 3C000000 		.word	.LC9
 1525 0064 5C000000 		.word	.LC10
 1526 0068 70000000 		.word	.LC11
 1527 006c 84000000 		.word	.LC12
 1528 0070 B4000000 		.word	.LC13
 1529 0074 E4000000 		.word	.LC14
 1530 0078 04010000 		.word	.LC15
 1531 007c 24010000 		.word	.LC16
 1532 0080 48010000 		.word	.LC17
 1533 0084 70010000 		.word	.LC18
 1534 0088 94010000 		.word	.LC19
 1535 008c A4010000 		.word	.LC20
 1536              		.cfi_endproc
 1537              	.LFE332:
 1539              		.section	.text.HAL_UART_TxCpltCallback,"ax",%progbits
 1540              		.align	1
 1541              		.global	HAL_UART_TxCpltCallback
 1542              		.syntax unified
 1543              		.thumb
 1544              		.thumb_func
 1546              	HAL_UART_TxCpltCallback:
 1547              	.LVL98:
 1548              	.LFB281:
 602:Core/Src/main_unique.c ****     if (huart->Instance != USART2) {
 1549              		.loc 1 602 1 is_stmt 1 view -0
 1550              		.cfi_startproc
 1551              		@ args = 0, pretend = 0, frame = 0
 1552              		@ frame_needed = 0, uses_anonymous_args = 0
 602:Core/Src/main_unique.c ****     if (huart->Instance != USART2) {
 1553              		.loc 1 602 1 is_stmt 0 view .LVU327
 1554 0000 08B5     		push	{r3, lr}
 1555              	.LCFI22:
 1556              		.cfi_def_cfa_offset 8
 1557              		.cfi_offset 3, -8
 1558              		.cfi_offset 14, -4
 603:Core/Src/main_unique.c ****         return;
 1559              		.loc 1 603 5 is_stmt 1 view .LVU328
 603:Core/Src/main_unique.c ****         return;
 1560              		.loc 1 603 14 is_stmt 0 view .LVU329
 1561 0002 0268     		ldr	r2, [r0]
 603:Core/Src/main_unique.c ****         return;
 1562              		.loc 1 603 8 view .LVU330
 1563 0004 044B     		ldr	r3, .L121
 1564 0006 9A42     		cmp	r2, r3
 1565 0008 00D0     		beq	.L120
 1566              	.LVL99:
 1567              	.L117:
 608:Core/Src/main_unique.c **** 
 1568              		.loc 1 608 1 view .LVU331
 1569 000a 08BD     		pop	{r3, pc}
 1570              	.LVL100:
 1571              	.L120:
 606:Core/Src/main_unique.c ****     uart_start_tx();
 1572              		.loc 1 606 5 is_stmt 1 view .LVU332
ARM GAS  /tmp/ccjBgtoi.s 			page 63


 606:Core/Src/main_unique.c ****     uart_start_tx();
 1573              		.loc 1 606 15 is_stmt 0 view .LVU333
 1574 000c 034B     		ldr	r3, .L121+4
 1575 000e 0022     		movs	r2, #0
 1576 0010 1A70     		strb	r2, [r3]
 607:Core/Src/main_unique.c **** }
 1577              		.loc 1 607 5 is_stmt 1 view .LVU334
 1578 0012 FFF7FEFF 		bl	uart_start_tx
 1579              	.LVL101:
 607:Core/Src/main_unique.c **** }
 1580              		.loc 1 607 5 is_stmt 0 view .LVU335
 1581 0016 F8E7     		b	.L117
 1582              	.L122:
 1583              		.align	2
 1584              	.L121:
 1585 0018 00440040 		.word	1073759232
 1586 001c 00000000 		.word	s_tx_busy
 1587              		.cfi_endproc
 1588              	.LFE281:
 1590              		.section	.text.HAL_UART_ErrorCallback,"ax",%progbits
 1591              		.align	1
 1592              		.global	HAL_UART_ErrorCallback
 1593              		.syntax unified
 1594              		.thumb
 1595              		.thumb_func
 1597              	HAL_UART_ErrorCallback:
 1598              	.LVL102:
 1599              	.LFB283:
 654:Core/Src/main_unique.c ****     if (huart->Instance == USART2) {
 1600              		.loc 1 654 1 is_stmt 1 view -0
 1601              		.cfi_startproc
 1602              		@ args = 0, pretend = 0, frame = 8
 1603              		@ frame_needed = 0, uses_anonymous_args = 0
 655:Core/Src/main_unique.c ****         __HAL_UART_CLEAR_OREFLAG(huart);   /* limpia el error de desbordamiento */
 1604              		.loc 1 655 5 view .LVU337
 655:Core/Src/main_unique.c ****         __HAL_UART_CLEAR_OREFLAG(huart);   /* limpia el error de desbordamiento */
 1605              		.loc 1 655 14 is_stmt 0 view .LVU338
 1606 0000 0368     		ldr	r3, [r0]
 655:Core/Src/main_unique.c ****         __HAL_UART_CLEAR_OREFLAG(huart);   /* limpia el error de desbordamiento */
 1607              		.loc 1 655 8 view .LVU339
 1608 0002 0A4A     		ldr	r2, .L130
 1609 0004 9342     		cmp	r3, r2
 1610 0006 00D0     		beq	.L129
 1611 0008 7047     		bx	lr
 1612              	.L129:
 654:Core/Src/main_unique.c ****     if (huart->Instance == USART2) {
 1613              		.loc 1 654 1 view .LVU340
 1614 000a 00B5     		push	{lr}
 1615              	.LCFI23:
 1616              		.cfi_def_cfa_offset 4
 1617              		.cfi_offset 14, -4
 1618 000c 83B0     		sub	sp, sp, #12
 1619              	.LCFI24:
 1620              		.cfi_def_cfa_offset 16
 656:Core/Src/main_unique.c ****         HAL_UART_Receive_IT(&huart2, (uint8_t *)&s_rx_byte, 1U);
 1621              		.loc 1 656 9 is_stmt 1 view .LVU341
 1622              	.LBB7:
ARM GAS  /tmp/ccjBgtoi.s 			page 64


 656:Core/Src/main_unique.c ****         HAL_UART_Receive_IT(&huart2, (uint8_t *)&s_rx_byte, 1U);
 1623              		.loc 1 656 9 view .LVU342
 1624 000e 0022     		movs	r2, #0
 1625 0010 0192     		str	r2, [sp, #4]
 656:Core/Src/main_unique.c ****         HAL_UART_Receive_IT(&huart2, (uint8_t *)&s_rx_byte, 1U);
 1626              		.loc 1 656 9 view .LVU343
 1627 0012 1A68     		ldr	r2, [r3]
 1628 0014 0192     		str	r2, [sp, #4]
 656:Core/Src/main_unique.c ****         HAL_UART_Receive_IT(&huart2, (uint8_t *)&s_rx_byte, 1U);
 1629              		.loc 1 656 9 view .LVU344
 1630 0016 5B68     		ldr	r3, [r3, #4]
 1631 0018 0193     		str	r3, [sp, #4]
 656:Core/Src/main_unique.c ****         HAL_UART_Receive_IT(&huart2, (uint8_t *)&s_rx_byte, 1U);
 1632              		.loc 1 656 9 view .LVU345
 1633 001a 019B     		ldr	r3, [sp, #4]
 1634              	.LBE7:
 656:Core/Src/main_unique.c ****         HAL_UART_Receive_IT(&huart2, (uint8_t *)&s_rx_byte, 1U);
 1635              		.loc 1 656 9 view .LVU346
 657:Core/Src/main_unique.c ****     }
 1636              		.loc 1 657 9 view .LVU347
 1637 001c 0122     		movs	r2, #1
 1638 001e 0449     		ldr	r1, .L130+4
 1639 0020 0448     		ldr	r0, .L130+8
 1640              	.LVL103:
 657:Core/Src/main_unique.c ****     }
 1641              		.loc 1 657 9 is_stmt 0 view .LVU348
 1642 0022 FFF7FEFF 		bl	HAL_UART_Receive_IT
 1643              	.LVL104:
 659:Core/Src/main_unique.c **** 
 1644              		.loc 1 659 1 view .LVU349
 1645 0026 03B0     		add	sp, sp, #12
 1646              	.LCFI25:
 1647              		.cfi_def_cfa_offset 4
 1648              		@ sp needed
 1649 0028 00BD     		pop	{pc}
 1650              	.L131:
 1651 002a 00BF     		.align	2
 1652              	.L130:
 1653 002c 00440040 		.word	1073759232
 1654 0030 00000000 		.word	s_rx_byte
 1655 0034 00000000 		.word	huart2
 1656              		.cfi_endproc
 1657              	.LFE283:
 1659              		.section	.text.adc_joystick_raw_x,"ax",%progbits
 1660              		.align	1
 1661              		.global	adc_joystick_raw_x
 1662              		.syntax unified
 1663              		.thumb
 1664              		.thumb_func
 1666              	adc_joystick_raw_x:
 1667              	.LFB288:
 785:Core/Src/main_unique.c **** uint16_t adc_joystick_raw_y(void) { return s_raw_y; }
 1668              		.loc 1 785 35 is_stmt 1 view -0
 1669              		.cfi_startproc
 1670              		@ args = 0, pretend = 0, frame = 0
 1671              		@ frame_needed = 0, uses_anonymous_args = 0
 1672              		@ link register save eliminated.
ARM GAS  /tmp/ccjBgtoi.s 			page 65


 785:Core/Src/main_unique.c **** uint16_t adc_joystick_raw_y(void) { return s_raw_y; }
 1673              		.loc 1 785 37 view .LVU351
 785:Core/Src/main_unique.c **** uint16_t adc_joystick_raw_y(void) { return s_raw_y; }
 1674              		.loc 1 785 53 is_stmt 0 view .LVU352
 1675 0000 014B     		ldr	r3, .L133
 1676 0002 1888     		ldrh	r0, [r3]
 1677 0004 7047     		bx	lr
 1678              	.L134:
 1679 0006 00BF     		.align	2
 1680              	.L133:
 1681 0008 00000000 		.word	s_raw_x
 1682              		.cfi_endproc
 1683              	.LFE288:
 1685              		.section	.text.adc_joystick_raw_y,"ax",%progbits
 1686              		.align	1
 1687              		.global	adc_joystick_raw_y
 1688              		.syntax unified
 1689              		.thumb
 1690              		.thumb_func
 1692              	adc_joystick_raw_y:
 1693              	.LFB289:
 786:Core/Src/main_unique.c **** 
 1694              		.loc 1 786 35 is_stmt 1 view -0
 1695              		.cfi_startproc
 1696              		@ args = 0, pretend = 0, frame = 0
 1697              		@ frame_needed = 0, uses_anonymous_args = 0
 1698              		@ link register save eliminated.
 786:Core/Src/main_unique.c **** 
 1699              		.loc 1 786 37 view .LVU354
 786:Core/Src/main_unique.c **** 
 1700              		.loc 1 786 53 is_stmt 0 view .LVU355
 1701 0000 014B     		ldr	r3, .L136
 1702 0002 1888     		ldrh	r0, [r3]
 1703 0004 7047     		bx	lr
 1704              	.L137:
 1705 0006 00BF     		.align	2
 1706              	.L136:
 1707 0008 00000000 		.word	s_raw_y
 1708              		.cfi_endproc
 1709              	.LFE289:
 1711              		.section	.text.adc_joystick_dir_x,"ax",%progbits
 1712              		.align	1
 1713              		.global	adc_joystick_dir_x
 1714              		.syntax unified
 1715              		.thumb
 1716              		.thumb_func
 1718              	adc_joystick_dir_x:
 1719              	.LFB291:
 800:Core/Src/main_unique.c **** int8_t adc_joystick_dir_y(void) { return adc_dir(s_raw_y); }
 1720              		.loc 1 800 33 is_stmt 1 view -0
 1721              		.cfi_startproc
 1722              		@ args = 0, pretend = 0, frame = 0
 1723              		@ frame_needed = 0, uses_anonymous_args = 0
 1724 0000 08B5     		push	{r3, lr}
 1725              	.LCFI26:
 1726              		.cfi_def_cfa_offset 8
 1727              		.cfi_offset 3, -8
ARM GAS  /tmp/ccjBgtoi.s 			page 66


 1728              		.cfi_offset 14, -4
 800:Core/Src/main_unique.c **** int8_t adc_joystick_dir_y(void) { return adc_dir(s_raw_y); }
 1729              		.loc 1 800 35 view .LVU357
 800:Core/Src/main_unique.c **** int8_t adc_joystick_dir_y(void) { return adc_dir(s_raw_y); }
 1730              		.loc 1 800 42 is_stmt 0 view .LVU358
 1731 0002 024B     		ldr	r3, .L140
 1732 0004 1888     		ldrh	r0, [r3]
 1733 0006 FFF7FEFF 		bl	adc_dir
 1734              	.LVL105:
 800:Core/Src/main_unique.c **** int8_t adc_joystick_dir_y(void) { return adc_dir(s_raw_y); }
 1735              		.loc 1 800 60 view .LVU359
 1736 000a 08BD     		pop	{r3, pc}
 1737              	.L141:
 1738              		.align	2
 1739              	.L140:
 1740 000c 00000000 		.word	s_raw_x
 1741              		.cfi_endproc
 1742              	.LFE291:
 1744              		.section	.text.adc_joystick_dir_y,"ax",%progbits
 1745              		.align	1
 1746              		.global	adc_joystick_dir_y
 1747              		.syntax unified
 1748              		.thumb
 1749              		.thumb_func
 1751              	adc_joystick_dir_y:
 1752              	.LFB292:
 801:Core/Src/main_unique.c **** 
 1753              		.loc 1 801 33 is_stmt 1 view -0
 1754              		.cfi_startproc
 1755              		@ args = 0, pretend = 0, frame = 0
 1756              		@ frame_needed = 0, uses_anonymous_args = 0
 1757 0000 08B5     		push	{r3, lr}
 1758              	.LCFI27:
 1759              		.cfi_def_cfa_offset 8
 1760              		.cfi_offset 3, -8
 1761              		.cfi_offset 14, -4
 801:Core/Src/main_unique.c **** 
 1762              		.loc 1 801 35 view .LVU361
 801:Core/Src/main_unique.c **** 
 1763              		.loc 1 801 42 is_stmt 0 view .LVU362
 1764 0002 024B     		ldr	r3, .L144
 1765 0004 1888     		ldrh	r0, [r3]
 1766 0006 FFF7FEFF 		bl	adc_dir
 1767              	.LVL106:
 801:Core/Src/main_unique.c **** 
 1768              		.loc 1 801 60 view .LVU363
 1769 000a 08BD     		pop	{r3, pc}
 1770              	.L145:
 1771              		.align	2
 1772              	.L144:
 1773 000c 00000000 		.word	s_raw_y
 1774              		.cfi_endproc
 1775              	.LFE292:
 1777              		.section	.text.apply_joystick,"ax",%progbits
 1778              		.align	1
 1779              		.syntax unified
 1780              		.thumb
ARM GAS  /tmp/ccjBgtoi.s 			page 67


 1781              		.thumb_func
 1783              	apply_joystick:
 1784              	.LFB331:
1703:Core/Src/main_unique.c ****     int8_t dx = adc_joystick_dir_x();
 1785              		.loc 1 1703 1 is_stmt 1 view -0
 1786              		.cfi_startproc
 1787              		@ args = 0, pretend = 0, frame = 0
 1788              		@ frame_needed = 0, uses_anonymous_args = 0
 1789 0000 38B5     		push	{r3, r4, r5, lr}
 1790              	.LCFI28:
 1791              		.cfi_def_cfa_offset 16
 1792              		.cfi_offset 3, -16
 1793              		.cfi_offset 4, -12
 1794              		.cfi_offset 5, -8
 1795              		.cfi_offset 14, -4
1704:Core/Src/main_unique.c ****     int8_t dy = adc_joystick_dir_y();
 1796              		.loc 1 1704 5 view .LVU365
1704:Core/Src/main_unique.c ****     int8_t dy = adc_joystick_dir_y();
 1797              		.loc 1 1704 17 is_stmt 0 view .LVU366
 1798 0002 FFF7FEFF 		bl	adc_joystick_dir_x
 1799              	.LVL107:
 1800 0006 0446     		mov	r4, r0
 1801              	.LVL108:
1705:Core/Src/main_unique.c **** 
 1802              		.loc 1 1705 5 is_stmt 1 view .LVU367
1705:Core/Src/main_unique.c **** 
 1803              		.loc 1 1705 17 is_stmt 0 view .LVU368
 1804 0008 FFF7FEFF 		bl	adc_joystick_dir_y
 1805              	.LVL109:
 1806 000c 0546     		mov	r5, r0
 1807              	.LVL110:
1707:Core/Src/main_unique.c ****         s_coord_x = clamp_coord((int32_t)s_coord_x + dx);
 1808              		.loc 1 1707 5 is_stmt 1 view .LVU369
1707:Core/Src/main_unique.c ****         s_coord_x = clamp_coord((int32_t)s_coord_x + dx);
 1809              		.loc 1 1707 8 is_stmt 0 view .LVU370
 1810 000e 3CB1     		cbz	r4, .L147
 1811 0010 2346     		mov	r3, r4
1708:Core/Src/main_unique.c ****     }
 1812              		.loc 1 1708 9 is_stmt 1 view .LVU371
1708:Core/Src/main_unique.c ****     }
 1813              		.loc 1 1708 33 is_stmt 0 view .LVU372
 1814 0012 084C     		ldr	r4, .L150
 1815              	.LVL111:
1708:Core/Src/main_unique.c ****     }
 1816              		.loc 1 1708 33 view .LVU373
 1817 0014 B4F90000 		ldrsh	r0, [r4]
1708:Core/Src/main_unique.c ****     }
 1818              		.loc 1 1708 21 view .LVU374
 1819 0018 1844     		add	r0, r0, r3
 1820 001a FFF7FEFF 		bl	clamp_coord
 1821              	.LVL112:
1708:Core/Src/main_unique.c ****     }
 1822              		.loc 1 1708 19 discriminator 1 view .LVU375
 1823 001e 2080     		strh	r0, [r4]	@ movhi
 1824              	.L147:
1710:Core/Src/main_unique.c ****         s_coord_y = clamp_coord((int32_t)s_coord_y + dy);
 1825              		.loc 1 1710 5 is_stmt 1 view .LVU376
ARM GAS  /tmp/ccjBgtoi.s 			page 68


1710:Core/Src/main_unique.c ****         s_coord_y = clamp_coord((int32_t)s_coord_y + dy);
 1826              		.loc 1 1710 8 is_stmt 0 view .LVU377
 1827 0020 35B1     		cbz	r5, .L146
1711:Core/Src/main_unique.c ****     }
 1828              		.loc 1 1711 9 is_stmt 1 view .LVU378
1711:Core/Src/main_unique.c ****     }
 1829              		.loc 1 1711 33 is_stmt 0 view .LVU379
 1830 0022 054C     		ldr	r4, .L150+4
 1831 0024 B4F90000 		ldrsh	r0, [r4]
1711:Core/Src/main_unique.c ****     }
 1832              		.loc 1 1711 21 view .LVU380
 1833 0028 2844     		add	r0, r0, r5
 1834 002a FFF7FEFF 		bl	clamp_coord
 1835              	.LVL113:
1711:Core/Src/main_unique.c ****     }
 1836              		.loc 1 1711 19 discriminator 1 view .LVU381
 1837 002e 2080     		strh	r0, [r4]	@ movhi
 1838              	.L146:
1713:Core/Src/main_unique.c **** 
 1839              		.loc 1 1713 1 view .LVU382
 1840 0030 38BD     		pop	{r3, r4, r5, pc}
 1841              	.LVL114:
 1842              	.L151:
1713:Core/Src/main_unique.c **** 
 1843              		.loc 1 1713 1 view .LVU383
 1844 0032 00BF     		.align	2
 1845              	.L150:
 1846 0034 00000000 		.word	s_coord_x
 1847 0038 00000000 		.word	s_coord_y
 1848              		.cfi_endproc
 1849              	.LFE331:
 1851              		.section	.text.rtc_get_time,"ax",%progbits
 1852              		.align	1
 1853              		.global	rtc_get_time
 1854              		.syntax unified
 1855              		.thumb
 1856              		.thumb_func
 1858              	rtc_get_time:
 1859              	.LVL115:
 1860              	.LFB298:
 977:Core/Src/main_unique.c ****     HAL_RTC_GetTime(&hrtc, t, RTC_FORMAT_BIN);
 1861              		.loc 1 977 1 is_stmt 1 view -0
 1862              		.cfi_startproc
 1863              		@ args = 0, pretend = 0, frame = 0
 1864              		@ frame_needed = 0, uses_anonymous_args = 0
 977:Core/Src/main_unique.c ****     HAL_RTC_GetTime(&hrtc, t, RTC_FORMAT_BIN);
 1865              		.loc 1 977 1 is_stmt 0 view .LVU385
 1866 0000 38B5     		push	{r3, r4, r5, lr}
 1867              	.LCFI29:
 1868              		.cfi_def_cfa_offset 16
 1869              		.cfi_offset 3, -16
 1870              		.cfi_offset 4, -12
 1871              		.cfi_offset 5, -8
 1872              		.cfi_offset 14, -4
 1873 0002 0D46     		mov	r5, r1
 978:Core/Src/main_unique.c ****     HAL_RTC_GetDate(&hrtc, d, RTC_FORMAT_BIN);
 1874              		.loc 1 978 5 is_stmt 1 view .LVU386
ARM GAS  /tmp/ccjBgtoi.s 			page 69


 1875 0004 054C     		ldr	r4, .L154
 1876 0006 0022     		movs	r2, #0
 1877 0008 0146     		mov	r1, r0
 1878              	.LVL116:
 978:Core/Src/main_unique.c ****     HAL_RTC_GetDate(&hrtc, d, RTC_FORMAT_BIN);
 1879              		.loc 1 978 5 is_stmt 0 view .LVU387
 1880 000a 2046     		mov	r0, r4
 1881              	.LVL117:
 978:Core/Src/main_unique.c ****     HAL_RTC_GetDate(&hrtc, d, RTC_FORMAT_BIN);
 1882              		.loc 1 978 5 view .LVU388
 1883 000c FFF7FEFF 		bl	HAL_RTC_GetTime
 1884              	.LVL118:
 979:Core/Src/main_unique.c **** }
 1885              		.loc 1 979 5 is_stmt 1 view .LVU389
 1886 0010 0022     		movs	r2, #0
 1887 0012 2946     		mov	r1, r5
 1888 0014 2046     		mov	r0, r4
 1889 0016 FFF7FEFF 		bl	HAL_RTC_GetDate
 1890              	.LVL119:
 980:Core/Src/main_unique.c **** 
 1891              		.loc 1 980 1 is_stmt 0 view .LVU390
 1892 001a 38BD     		pop	{r3, r4, r5, pc}
 1893              	.LVL120:
 1894              	.L155:
 980:Core/Src/main_unique.c **** 
 1895              		.loc 1 980 1 view .LVU391
 1896              		.align	2
 1897              	.L154:
 1898 001c 00000000 		.word	hrtc
 1899              		.cfi_endproc
 1900              	.LFE298:
 1902              		.section	.rodata.rtc_format_line.str1.4,"aMS",%progbits,1
 1903              		.align	2
 1904              	.LC21:
 1905 0000 25303275 		.ascii	"%02u:%02u:%02u %02u-%02u\000"
 1905      3A253032 
 1905      753A2530 
 1905      32752025 
 1905      3032752D 
 1906              		.section	.text.rtc_format_line,"ax",%progbits
 1907              		.align	1
 1908              		.global	rtc_format_line
 1909              		.syntax unified
 1910              		.thumb
 1911              		.thumb_func
 1913              	rtc_format_line:
 1914              	.LVL121:
 1915              	.LFB299:
 987:Core/Src/main_unique.c ****     RTC_TimeTypeDef t;
 1916              		.loc 1 987 1 is_stmt 1 view -0
 1917              		.cfi_startproc
 1918              		@ args = 0, pretend = 0, frame = 24
 1919              		@ frame_needed = 0, uses_anonymous_args = 0
 987:Core/Src/main_unique.c ****     RTC_TimeTypeDef t;
 1920              		.loc 1 987 1 is_stmt 0 view .LVU393
 1921 0000 30B5     		push	{r4, r5, lr}
 1922              	.LCFI30:
ARM GAS  /tmp/ccjBgtoi.s 			page 70


 1923              		.cfi_def_cfa_offset 12
 1924              		.cfi_offset 4, -12
 1925              		.cfi_offset 5, -8
 1926              		.cfi_offset 14, -4
 1927 0002 8BB0     		sub	sp, sp, #44
 1928              	.LCFI31:
 1929              		.cfi_def_cfa_offset 56
 1930 0004 0546     		mov	r5, r0
 1931 0006 0C46     		mov	r4, r1
 988:Core/Src/main_unique.c ****     RTC_DateTypeDef d;
 1932              		.loc 1 988 5 is_stmt 1 view .LVU394
 989:Core/Src/main_unique.c **** 
 1933              		.loc 1 989 5 view .LVU395
 991:Core/Src/main_unique.c **** 
 1934              		.loc 1 991 5 view .LVU396
 1935 0008 04A9     		add	r1, sp, #16
 1936              	.LVL122:
 991:Core/Src/main_unique.c **** 
 1937              		.loc 1 991 5 is_stmt 0 view .LVU397
 1938 000a 05A8     		add	r0, sp, #20
 1939              	.LVL123:
 991:Core/Src/main_unique.c **** 
 1940              		.loc 1 991 5 view .LVU398
 1941 000c FFF7FEFF 		bl	rtc_get_time
 1942              	.LVL124:
 993:Core/Src/main_unique.c ****              (unsigned)t.Hours, (unsigned)t.Minutes, (unsigned)t.Seconds,
 1943              		.loc 1 993 5 is_stmt 1 view .LVU399
 994:Core/Src/main_unique.c ****              (unsigned)d.Date,  (unsigned)d.Month);
 1944              		.loc 1 994 44 is_stmt 0 view .LVU400
 1945 0010 9DF81530 		ldrb	r3, [sp, #21]	@ zero_extendqisi2
 994:Core/Src/main_unique.c ****              (unsigned)d.Date,  (unsigned)d.Month);
 1946              		.loc 1 994 65 view .LVU401
 1947 0014 9DF81620 		ldrb	r2, [sp, #22]	@ zero_extendqisi2
 995:Core/Src/main_unique.c **** }
 1948              		.loc 1 995 25 view .LVU402
 1949 0018 9DF81210 		ldrb	r1, [sp, #18]	@ zero_extendqisi2
 995:Core/Src/main_unique.c **** }
 1950              		.loc 1 995 44 view .LVU403
 1951 001c 9DF81100 		ldrb	r0, [sp, #17]	@ zero_extendqisi2
 993:Core/Src/main_unique.c ****              (unsigned)t.Hours, (unsigned)t.Minutes, (unsigned)t.Seconds,
 1952              		.loc 1 993 5 view .LVU404
 1953 0020 0390     		str	r0, [sp, #12]
 1954 0022 0291     		str	r1, [sp, #8]
 1955 0024 0192     		str	r2, [sp, #4]
 1956 0026 0093     		str	r3, [sp]
 1957 0028 9DF81430 		ldrb	r3, [sp, #20]	@ zero_extendqisi2
 1958 002c 034A     		ldr	r2, .L158
 1959 002e 2146     		mov	r1, r4
 1960 0030 2846     		mov	r0, r5
 1961 0032 FFF7FEFF 		bl	snprintf
 1962              	.LVL125:
 996:Core/Src/main_unique.c **** 
 1963              		.loc 1 996 1 view .LVU405
 1964 0036 0BB0     		add	sp, sp, #44
 1965              	.LCFI32:
 1966              		.cfi_def_cfa_offset 12
 1967              		@ sp needed
ARM GAS  /tmp/ccjBgtoi.s 			page 71


 1968 0038 30BD     		pop	{r4, r5, pc}
 1969              	.LVL126:
 1970              	.L159:
 996:Core/Src/main_unique.c **** 
 1971              		.loc 1 996 1 view .LVU406
 1972 003a 00BF     		.align	2
 1973              	.L158:
 1974 003c 00000000 		.word	.LC21
 1975              		.cfi_endproc
 1976              	.LFE299:
 1978              		.section	.text.HAL_RTCEx_WakeUpTimerEventCallback,"ax",%progbits
 1979              		.align	1
 1980              		.global	HAL_RTCEx_WakeUpTimerEventCallback
 1981              		.syntax unified
 1982              		.thumb
 1983              		.thumb_func
 1985              	HAL_RTCEx_WakeUpTimerEventCallback:
 1986              	.LVL127:
 1987              	.LFB300:
1005:Core/Src/main_unique.c ****     (void)h;                    /* parametro no usado: evita un aviso */
 1988              		.loc 1 1005 1 is_stmt 1 view -0
 1989              		.cfi_startproc
 1990              		@ args = 0, pretend = 0, frame = 0
 1991              		@ frame_needed = 0, uses_anonymous_args = 0
 1992              		@ link register save eliminated.
1006:Core/Src/main_unique.c ****     g_rtc_second_flag = 1U;
 1993              		.loc 1 1006 5 view .LVU408
1007:Core/Src/main_unique.c **** }
 1994              		.loc 1 1007 5 view .LVU409
1007:Core/Src/main_unique.c **** }
 1995              		.loc 1 1007 23 is_stmt 0 view .LVU410
 1996 0000 014B     		ldr	r3, .L161
 1997 0002 0122     		movs	r2, #1
 1998 0004 1A70     		strb	r2, [r3]
1008:Core/Src/main_unique.c **** 
 1999              		.loc 1 1008 1 view .LVU411
 2000 0006 7047     		bx	lr
 2001              	.L162:
 2002              		.align	2
 2003              	.L161:
 2004 0008 00000000 		.word	g_rtc_second_flag
 2005              		.cfi_endproc
 2006              	.LFE300:
 2008              		.section	.rodata.lcd_bus_scan_report.str1.4,"aMS",%progbits,1
 2009              		.align	2
 2010              	.LC22:
 2011 0000 2D2D2D20 		.ascii	"--- Sondeo del bus I2C1 ---\000"
 2011      536F6E64 
 2011      656F2064 
 2011      656C2062 
 2011      75732049 
 2012              		.align	2
 2013              	.LC23:
 2014 001c 20206469 		.ascii	"  dispositivo en 0x%02X\000"
 2014      73706F73 
 2014      69746976 
 2014      6F20656E 
ARM GAS  /tmp/ccjBgtoi.s 			page 72


 2014      20307825 
 2015              		.align	2
 2016              	.LC24:
 2017 0034 20204E49 		.ascii	"  NINGUN dispositivo responde.\000"
 2017      4E47554E 
 2017      20646973 
 2017      706F7369 
 2017      7469766F 
 2018 0053 00       		.align	2
 2019              	.LC25:
 2020 0054 20205265 		.ascii	"  Revisar: alimentacion del modulo, SDA/SCL sin cru"
 2020      76697361 
 2020      723A2061 
 2020      6C696D65 
 2020      6E746163 
 2021 0087 7A61722C 		.ascii	"zar,\000"
 2021      00
 2022              		.align	2
 2023              	.LC26:
 2024 008c 2020474E 		.ascii	"  GND comun y resistencias de pull-up.\000"
 2024      4420636F 
 2024      6D756E20 
 2024      79207265 
 2024      73697374 
 2025 00b3 00       		.align	2
 2026              	.LC27:
 2027 00b4 2020746F 		.ascii	"  total: %u dispositivo(s)\000"
 2027      74616C3A 
 2027      20257520 
 2027      64697370 
 2027      6F736974 
 2028 00cf 00       		.align	2
 2029              	.LC28:
 2030 00d0 2D2D2D2D 		.ascii	"---------------------------\000"
 2030      2D2D2D2D 
 2030      2D2D2D2D 
 2030      2D2D2D2D 
 2030      2D2D2D2D 
 2031              		.section	.text.lcd_bus_scan_report,"ax",%progbits
 2032              		.align	1
 2033              		.global	lcd_bus_scan_report
 2034              		.syntax unified
 2035              		.thumb
 2036              		.thumb_func
 2038              	lcd_bus_scan_report:
 2039              	.LFB309:
1165:Core/Src/main_unique.c ****     char    buf[48];
 2040              		.loc 1 1165 1 is_stmt 1 view -0
 2041              		.cfi_startproc
 2042              		@ args = 0, pretend = 0, frame = 48
 2043              		@ frame_needed = 0, uses_anonymous_args = 0
 2044 0000 70B5     		push	{r4, r5, r6, lr}
 2045              	.LCFI33:
 2046              		.cfi_def_cfa_offset 16
 2047              		.cfi_offset 4, -16
 2048              		.cfi_offset 5, -12
 2049              		.cfi_offset 6, -8
ARM GAS  /tmp/ccjBgtoi.s 			page 73


 2050              		.cfi_offset 14, -4
 2051 0002 8CB0     		sub	sp, sp, #48
 2052              	.LCFI34:
 2053              		.cfi_def_cfa_offset 64
1166:Core/Src/main_unique.c ****     uint8_t found = 0U;
 2054              		.loc 1 1166 5 view .LVU413
1167:Core/Src/main_unique.c ****     uint8_t a;
 2055              		.loc 1 1167 5 view .LVU414
 2056              	.LVL128:
1168:Core/Src/main_unique.c **** 
 2057              		.loc 1 1168 5 view .LVU415
1170:Core/Src/main_unique.c ****     uart_send_line("--- Sondeo del bus I2C1 ---");
 2058              		.loc 1 1170 5 view .LVU416
 2059 0004 1C48     		ldr	r0, .L171
 2060 0006 FFF7FEFF 		bl	uart_send_line
 2061              	.LVL129:
1171:Core/Src/main_unique.c **** 
 2062              		.loc 1 1171 5 view .LVU417
 2063 000a 1C48     		ldr	r0, .L171+4
 2064 000c FFF7FEFF 		bl	uart_send_line
 2065              	.LVL130:
1174:Core/Src/main_unique.c ****         if (HAL_I2C_IsDeviceReady(&hi2c1, (uint16_t)(a << 1), 2U, 5U) == HAL_OK) {
 2066              		.loc 1 1174 5 view .LVU418
1174:Core/Src/main_unique.c ****         if (HAL_I2C_IsDeviceReady(&hi2c1, (uint16_t)(a << 1), 2U, 5U) == HAL_OK) {
 2067              		.loc 1 1174 12 is_stmt 0 view .LVU419
 2068 0010 0824     		movs	r4, #8
1167:Core/Src/main_unique.c ****     uint8_t a;
 2069              		.loc 1 1167 13 view .LVU420
 2070 0012 0025     		movs	r5, #0
1174:Core/Src/main_unique.c ****         if (HAL_I2C_IsDeviceReady(&hi2c1, (uint16_t)(a << 1), 2U, 5U) == HAL_OK) {
 2071              		.loc 1 1174 5 view .LVU421
 2072 0014 01E0     		b	.L164
 2073              	.LVL131:
 2074              	.L165:
1174:Core/Src/main_unique.c ****         if (HAL_I2C_IsDeviceReady(&hi2c1, (uint16_t)(a << 1), 2U, 5U) == HAL_OK) {
 2075              		.loc 1 1174 34 is_stmt 1 discriminator 1 view .LVU422
 2076 0016 0134     		adds	r4, r4, #1
 2077              	.LVL132:
1174:Core/Src/main_unique.c ****         if (HAL_I2C_IsDeviceReady(&hi2c1, (uint16_t)(a << 1), 2U, 5U) == HAL_OK) {
 2078              		.loc 1 1174 34 is_stmt 0 discriminator 1 view .LVU423
 2079 0018 E4B2     		uxtb	r4, r4
 2080              	.LVL133:
 2081              	.L164:
1174:Core/Src/main_unique.c ****         if (HAL_I2C_IsDeviceReady(&hi2c1, (uint16_t)(a << 1), 2U, 5U) == HAL_OK) {
 2082              		.loc 1 1174 23 is_stmt 1 discriminator 2 view .LVU424
 2083 001a 772C     		cmp	r4, #119
 2084 001c 13D8     		bhi	.L170
1175:Core/Src/main_unique.c ****             snprintf(buf, sizeof(buf), "  dispositivo en 0x%02X", (unsigned)a);
 2085              		.loc 1 1175 9 view .LVU425
1175:Core/Src/main_unique.c ****             snprintf(buf, sizeof(buf), "  dispositivo en 0x%02X", (unsigned)a);
 2086              		.loc 1 1175 13 is_stmt 0 view .LVU426
 2087 001e 0523     		movs	r3, #5
 2088 0020 0222     		movs	r2, #2
 2089 0022 6100     		lsls	r1, r4, #1
 2090 0024 1648     		ldr	r0, .L171+8
 2091 0026 FFF7FEFF 		bl	HAL_I2C_IsDeviceReady
 2092              	.LVL134:
ARM GAS  /tmp/ccjBgtoi.s 			page 74


1175:Core/Src/main_unique.c ****             snprintf(buf, sizeof(buf), "  dispositivo en 0x%02X", (unsigned)a);
 2093              		.loc 1 1175 12 discriminator 1 view .LVU427
 2094 002a 0028     		cmp	r0, #0
 2095 002c F3D1     		bne	.L165
1176:Core/Src/main_unique.c ****             uart_send_line(buf);
 2096              		.loc 1 1176 13 is_stmt 1 view .LVU428
 2097 002e 2346     		mov	r3, r4
 2098 0030 144A     		ldr	r2, .L171+12
 2099 0032 3021     		movs	r1, #48
 2100 0034 6846     		mov	r0, sp
 2101 0036 FFF7FEFF 		bl	snprintf
 2102              	.LVL135:
1177:Core/Src/main_unique.c ****             found++;
 2103              		.loc 1 1177 13 view .LVU429
 2104 003a 6846     		mov	r0, sp
 2105 003c FFF7FEFF 		bl	uart_send_line
 2106              	.LVL136:
1178:Core/Src/main_unique.c ****         }
 2107              		.loc 1 1178 13 view .LVU430
1178:Core/Src/main_unique.c ****         }
 2108              		.loc 1 1178 18 is_stmt 0 view .LVU431
 2109 0040 0135     		adds	r5, r5, #1
 2110              	.LVL137:
1178:Core/Src/main_unique.c ****         }
 2111              		.loc 1 1178 18 view .LVU432
 2112 0042 EDB2     		uxtb	r5, r5
 2113              	.LVL138:
1178:Core/Src/main_unique.c ****         }
 2114              		.loc 1 1178 18 view .LVU433
 2115 0044 E7E7     		b	.L165
 2116              	.LVL139:
 2117              	.L170:
1182:Core/Src/main_unique.c ****         uart_send_line("  NINGUN dispositivo responde.");
 2118              		.loc 1 1182 5 is_stmt 1 view .LVU434
1182:Core/Src/main_unique.c ****         uart_send_line("  NINGUN dispositivo responde.");
 2119              		.loc 1 1182 8 is_stmt 0 view .LVU435
 2120 0046 6DB9     		cbnz	r5, .L167
1183:Core/Src/main_unique.c ****         uart_send_line("  Revisar: alimentacion del modulo, SDA/SCL sin cruzar,");
 2121              		.loc 1 1183 9 is_stmt 1 view .LVU436
 2122 0048 0F48     		ldr	r0, .L171+16
 2123 004a FFF7FEFF 		bl	uart_send_line
 2124              	.LVL140:
1184:Core/Src/main_unique.c ****         uart_send_line("  GND comun y resistencias de pull-up.");
 2125              		.loc 1 1184 9 view .LVU437
 2126 004e 0F48     		ldr	r0, .L171+20
 2127 0050 FFF7FEFF 		bl	uart_send_line
 2128              	.LVL141:
1185:Core/Src/main_unique.c ****     } else {
 2129              		.loc 1 1185 9 view .LVU438
 2130 0054 0E48     		ldr	r0, .L171+24
 2131 0056 FFF7FEFF 		bl	uart_send_line
 2132              	.LVL142:
 2133              	.L168:
1190:Core/Src/main_unique.c **** }
 2134              		.loc 1 1190 5 view .LVU439
 2135 005a 0E48     		ldr	r0, .L171+28
 2136 005c FFF7FEFF 		bl	uart_send_line
ARM GAS  /tmp/ccjBgtoi.s 			page 75


 2137              	.LVL143:
1191:Core/Src/main_unique.c **** 
 2138              		.loc 1 1191 1 is_stmt 0 view .LVU440
 2139 0060 0CB0     		add	sp, sp, #48
 2140              	.LCFI35:
 2141              		.cfi_remember_state
 2142              		.cfi_def_cfa_offset 16
 2143              		@ sp needed
 2144 0062 70BD     		pop	{r4, r5, r6, pc}
 2145              	.LVL144:
 2146              	.L167:
 2147              	.LCFI36:
 2148              		.cfi_restore_state
1187:Core/Src/main_unique.c ****         uart_send_line(buf);
 2149              		.loc 1 1187 9 is_stmt 1 view .LVU441
 2150 0064 2B46     		mov	r3, r5
 2151 0066 0C4A     		ldr	r2, .L171+32
 2152 0068 3021     		movs	r1, #48
 2153 006a 6846     		mov	r0, sp
 2154 006c FFF7FEFF 		bl	snprintf
 2155              	.LVL145:
1188:Core/Src/main_unique.c ****     }
 2156              		.loc 1 1188 9 view .LVU442
 2157 0070 6846     		mov	r0, sp
 2158 0072 FFF7FEFF 		bl	uart_send_line
 2159              	.LVL146:
 2160 0076 F0E7     		b	.L168
 2161              	.L172:
 2162              		.align	2
 2163              	.L171:
 2164 0078 00000000 		.word	.LC7
 2165 007c 00000000 		.word	.LC22
 2166 0080 00000000 		.word	hi2c1
 2167 0084 1C000000 		.word	.LC23
 2168 0088 34000000 		.word	.LC24
 2169 008c 54000000 		.word	.LC25
 2170 0090 8C000000 		.word	.LC26
 2171 0094 D0000000 		.word	.LC28
 2172 0098 B4000000 		.word	.LC27
 2173              		.cfi_endproc
 2174              	.LFE309:
 2176              		.section	.text.lcd_clear,"ax",%progbits
 2177              		.align	1
 2178              		.global	lcd_clear
 2179              		.syntax unified
 2180              		.thumb
 2181              		.thumb_func
 2183              	lcd_clear:
 2184              	.LFB311:
1259:Core/Src/main_unique.c ****     if (!s_present) return;
 2185              		.loc 1 1259 1 view -0
 2186              		.cfi_startproc
 2187              		@ args = 0, pretend = 0, frame = 0
 2188              		@ frame_needed = 0, uses_anonymous_args = 0
 2189 0000 08B5     		push	{r3, lr}
 2190              	.LCFI37:
 2191              		.cfi_def_cfa_offset 8
ARM GAS  /tmp/ccjBgtoi.s 			page 76


 2192              		.cfi_offset 3, -8
 2193              		.cfi_offset 14, -4
1260:Core/Src/main_unique.c ****     lcd_command(0x01U);
 2194              		.loc 1 1260 5 view .LVU444
1260:Core/Src/main_unique.c ****     lcd_command(0x01U);
 2195              		.loc 1 1260 9 is_stmt 0 view .LVU445
 2196 0002 054B     		ldr	r3, .L177
 2197 0004 1B78     		ldrb	r3, [r3]	@ zero_extendqisi2
1260:Core/Src/main_unique.c ****     lcd_command(0x01U);
 2198              		.loc 1 1260 8 view .LVU446
 2199 0006 03B9     		cbnz	r3, .L176
 2200              	.L173:
1263:Core/Src/main_unique.c **** 
 2201              		.loc 1 1263 1 view .LVU447
 2202 0008 08BD     		pop	{r3, pc}
 2203              	.L176:
1261:Core/Src/main_unique.c ****     HAL_Delay(2);
 2204              		.loc 1 1261 5 is_stmt 1 view .LVU448
 2205 000a 0120     		movs	r0, #1
 2206 000c FFF7FEFF 		bl	lcd_command
 2207              	.LVL147:
1262:Core/Src/main_unique.c **** }
 2208              		.loc 1 1262 5 view .LVU449
 2209 0010 0220     		movs	r0, #2
 2210 0012 FFF7FEFF 		bl	HAL_Delay
 2211              	.LVL148:
 2212 0016 F7E7     		b	.L173
 2213              	.L178:
 2214              		.align	2
 2215              	.L177:
 2216 0018 00000000 		.word	s_present
 2217              		.cfi_endproc
 2218              	.LFE311:
 2220              		.section	.text.lcd_set_cursor,"ax",%progbits
 2221              		.align	1
 2222              		.global	lcd_set_cursor
 2223              		.syntax unified
 2224              		.thumb
 2225              		.thumb_func
 2227              	lcd_set_cursor:
 2228              	.LVL149:
 2229              	.LFB312:
1266:Core/Src/main_unique.c ****     if (!s_present) return;
 2230              		.loc 1 1266 1 view -0
 2231              		.cfi_startproc
 2232              		@ args = 0, pretend = 0, frame = 0
 2233              		@ frame_needed = 0, uses_anonymous_args = 0
1266:Core/Src/main_unique.c ****     if (!s_present) return;
 2234              		.loc 1 1266 1 is_stmt 0 view .LVU451
 2235 0000 08B5     		push	{r3, lr}
 2236              	.LCFI38:
 2237              		.cfi_def_cfa_offset 8
 2238              		.cfi_offset 3, -8
 2239              		.cfi_offset 14, -4
1267:Core/Src/main_unique.c ****     if (row >= LCD_ROWS) row = LCD_ROWS - 1U;
 2240              		.loc 1 1267 5 is_stmt 1 view .LVU452
1267:Core/Src/main_unique.c ****     if (row >= LCD_ROWS) row = LCD_ROWS - 1U;
ARM GAS  /tmp/ccjBgtoi.s 			page 77


 2241              		.loc 1 1267 9 is_stmt 0 view .LVU453
 2242 0002 094B     		ldr	r3, .L186
 2243 0004 1B78     		ldrb	r3, [r3]	@ zero_extendqisi2
1267:Core/Src/main_unique.c ****     if (row >= LCD_ROWS) row = LCD_ROWS - 1U;
 2244              		.loc 1 1267 8 view .LVU454
 2245 0006 6BB1     		cbz	r3, .L179
1268:Core/Src/main_unique.c ****     if (col >= LCD_COLS) col = LCD_COLS - 1U;
 2246              		.loc 1 1268 5 is_stmt 1 view .LVU455
1268:Core/Src/main_unique.c ****     if (col >= LCD_COLS) col = LCD_COLS - 1U;
 2247              		.loc 1 1268 8 is_stmt 0 view .LVU456
 2248 0008 0328     		cmp	r0, #3
 2249 000a 00D9     		bls	.L181
1268:Core/Src/main_unique.c ****     if (col >= LCD_COLS) col = LCD_COLS - 1U;
 2250              		.loc 1 1268 30 discriminator 1 view .LVU457
 2251 000c 0320     		movs	r0, #3
 2252              	.LVL150:
 2253              	.L181:
1269:Core/Src/main_unique.c **** 
 2254              		.loc 1 1269 5 is_stmt 1 view .LVU458
1269:Core/Src/main_unique.c **** 
 2255              		.loc 1 1269 8 is_stmt 0 view .LVU459
 2256 000e 1329     		cmp	r1, #19
 2257 0010 00D9     		bls	.L182
1269:Core/Src/main_unique.c **** 
 2258              		.loc 1 1269 30 discriminator 1 view .LVU460
 2259 0012 1321     		movs	r1, #19
 2260              	.LVL151:
 2261              	.L182:
1272:Core/Src/main_unique.c **** }
 2262              		.loc 1 1272 5 is_stmt 1 view .LVU461
1272:Core/Src/main_unique.c **** }
 2263              		.loc 1 1272 48 is_stmt 0 view .LVU462
 2264 0014 054B     		ldr	r3, .L186+4
 2265 0016 185C     		ldrb	r0, [r3, r0]	@ zero_extendqisi2
 2266              	.LVL152:
1272:Core/Src/main_unique.c **** }
 2267              		.loc 1 1272 54 view .LVU463
 2268 0018 0844     		add	r0, r0, r1
1272:Core/Src/main_unique.c **** }
 2269              		.loc 1 1272 17 view .LVU464
 2270 001a 60F07F00 		orn	r0, r0, #127
1272:Core/Src/main_unique.c **** }
 2271              		.loc 1 1272 5 view .LVU465
 2272 001e C0B2     		uxtb	r0, r0
 2273 0020 FFF7FEFF 		bl	lcd_command
 2274              	.LVL153:
 2275              	.L179:
1273:Core/Src/main_unique.c **** 
 2276              		.loc 1 1273 1 view .LVU466
 2277 0024 08BD     		pop	{r3, pc}
 2278              	.L187:
 2279 0026 00BF     		.align	2
 2280              	.L186:
 2281 0028 00000000 		.word	s_present
 2282 002c 00000000 		.word	s_row_offset
 2283              		.cfi_endproc
 2284              	.LFE312:
ARM GAS  /tmp/ccjBgtoi.s 			page 78


 2286              		.section	.text.lcd_print,"ax",%progbits
 2287              		.align	1
 2288              		.global	lcd_print
 2289              		.syntax unified
 2290              		.thumb
 2291              		.thumb_func
 2293              	lcd_print:
 2294              	.LVL154:
 2295              	.LFB313:
1276:Core/Src/main_unique.c ****     if (!s_present) return;
 2296              		.loc 1 1276 1 is_stmt 1 view -0
 2297              		.cfi_startproc
 2298              		@ args = 0, pretend = 0, frame = 0
 2299              		@ frame_needed = 0, uses_anonymous_args = 0
1276:Core/Src/main_unique.c ****     if (!s_present) return;
 2300              		.loc 1 1276 1 is_stmt 0 view .LVU468
 2301 0000 10B5     		push	{r4, lr}
 2302              	.LCFI39:
 2303              		.cfi_def_cfa_offset 8
 2304              		.cfi_offset 4, -8
 2305              		.cfi_offset 14, -4
 2306 0002 0446     		mov	r4, r0
1277:Core/Src/main_unique.c ****     while (*s != '\0') {
 2307              		.loc 1 1277 5 is_stmt 1 view .LVU469
1277:Core/Src/main_unique.c ****     while (*s != '\0') {
 2308              		.loc 1 1277 9 is_stmt 0 view .LVU470
 2309 0004 054B     		ldr	r3, .L193
 2310 0006 1B78     		ldrb	r3, [r3]	@ zero_extendqisi2
1277:Core/Src/main_unique.c ****     while (*s != '\0') {
 2311              		.loc 1 1277 8 view .LVU471
 2312 0008 1BB9     		cbnz	r3, .L190
 2313 000a 05E0     		b	.L188
 2314              	.LVL155:
 2315              	.L191:
1279:Core/Src/main_unique.c ****     }
 2316              		.loc 1 1279 9 is_stmt 1 view .LVU472
1279:Core/Src/main_unique.c ****     }
 2317              		.loc 1 1279 29 is_stmt 0 view .LVU473
 2318 000c 0134     		adds	r4, r4, #1
 2319              	.LVL156:
1279:Core/Src/main_unique.c ****     }
 2320              		.loc 1 1279 9 view .LVU474
 2321 000e FFF7FEFF 		bl	lcd_data
 2322              	.LVL157:
 2323              	.L190:
1278:Core/Src/main_unique.c ****         lcd_data((uint8_t)*s++);
 2324              		.loc 1 1278 15 is_stmt 1 discriminator 1 view .LVU475
1278:Core/Src/main_unique.c ****         lcd_data((uint8_t)*s++);
 2325              		.loc 1 1278 12 is_stmt 0 discriminator 1 view .LVU476
 2326 0012 2078     		ldrb	r0, [r4]	@ zero_extendqisi2
1278:Core/Src/main_unique.c ****         lcd_data((uint8_t)*s++);
 2327              		.loc 1 1278 15 discriminator 1 view .LVU477
 2328 0014 0028     		cmp	r0, #0
 2329 0016 F9D1     		bne	.L191
 2330              	.L188:
1281:Core/Src/main_unique.c **** 
 2331              		.loc 1 1281 1 view .LVU478
ARM GAS  /tmp/ccjBgtoi.s 			page 79


 2332 0018 10BD     		pop	{r4, pc}
 2333              	.LVL158:
 2334              	.L194:
1281:Core/Src/main_unique.c **** 
 2335              		.loc 1 1281 1 view .LVU479
 2336 001a 00BF     		.align	2
 2337              	.L193:
 2338 001c 00000000 		.word	s_present
 2339              		.cfi_endproc
 2340              	.LFE313:
 2342              		.section	.text.lcd_print_line,"ax",%progbits
 2343              		.align	1
 2344              		.global	lcd_print_line
 2345              		.syntax unified
 2346              		.thumb
 2347              		.thumb_func
 2349              	lcd_print_line:
 2350              	.LVL159:
 2351              	.LFB314:
1290:Core/Src/main_unique.c ****     uint8_t i;
 2352              		.loc 1 1290 1 is_stmt 1 view -0
 2353              		.cfi_startproc
 2354              		@ args = 0, pretend = 0, frame = 0
 2355              		@ frame_needed = 0, uses_anonymous_args = 0
1291:Core/Src/main_unique.c ****     uint8_t end = 0U;   /* 1 cuando ya se alcanzo el fin de la cadena */
 2356              		.loc 1 1291 5 view .LVU481
1292:Core/Src/main_unique.c **** 
 2357              		.loc 1 1292 5 view .LVU482
1294:Core/Src/main_unique.c **** 
 2358              		.loc 1 1294 5 view .LVU483
1294:Core/Src/main_unique.c **** 
 2359              		.loc 1 1294 9 is_stmt 0 view .LVU484
 2360 0000 0D4B     		ldr	r3, .L207
 2361 0002 1B78     		ldrb	r3, [r3]	@ zero_extendqisi2
1294:Core/Src/main_unique.c **** 
 2362              		.loc 1 1294 8 view .LVU485
 2363 0004 03B9     		cbnz	r3, .L205
 2364 0006 7047     		bx	lr
 2365              	.L205:
1290:Core/Src/main_unique.c ****     uint8_t i;
 2366              		.loc 1 1290 1 view .LVU486
 2367 0008 70B5     		push	{r4, r5, r6, lr}
 2368              	.LCFI40:
 2369              		.cfi_def_cfa_offset 16
 2370              		.cfi_offset 4, -16
 2371              		.cfi_offset 5, -12
 2372              		.cfi_offset 6, -8
 2373              		.cfi_offset 14, -4
 2374 000a 0E46     		mov	r6, r1
1296:Core/Src/main_unique.c **** 
 2375              		.loc 1 1296 5 is_stmt 1 view .LVU487
 2376 000c 0021     		movs	r1, #0
 2377              	.LVL160:
1296:Core/Src/main_unique.c **** 
 2378              		.loc 1 1296 5 is_stmt 0 view .LVU488
 2379 000e FFF7FEFF 		bl	lcd_set_cursor
 2380              	.LVL161:
ARM GAS  /tmp/ccjBgtoi.s 			page 80


1298:Core/Src/main_unique.c ****         if (!end && (s[i] == '\0')) {
 2381              		.loc 1 1298 5 is_stmt 1 view .LVU489
1292:Core/Src/main_unique.c **** 
 2382              		.loc 1 1292 13 is_stmt 0 view .LVU490
 2383 0012 0025     		movs	r5, #0
1298:Core/Src/main_unique.c ****         if (!end && (s[i] == '\0')) {
 2384              		.loc 1 1298 12 view .LVU491
 2385 0014 2C46     		mov	r4, r5
1298:Core/Src/main_unique.c ****         if (!end && (s[i] == '\0')) {
 2386              		.loc 1 1298 5 view .LVU492
 2387 0016 04E0     		b	.L197
 2388              	.LVL162:
 2389              	.L200:
1302:Core/Src/main_unique.c ****     }
 2390              		.loc 1 1302 9 discriminator 2 view .LVU493
 2391 0018 2020     		movs	r0, #32
 2392              	.LVL163:
 2393              	.L198:
1302:Core/Src/main_unique.c ****     }
 2394              		.loc 1 1302 9 discriminator 3 view .LVU494
 2395 001a FFF7FEFF 		bl	lcd_data
 2396              	.LVL164:
1298:Core/Src/main_unique.c ****         if (!end && (s[i] == '\0')) {
 2397              		.loc 1 1298 33 is_stmt 1 discriminator 1 view .LVU495
 2398 001e 0134     		adds	r4, r4, #1
 2399              	.LVL165:
1298:Core/Src/main_unique.c ****         if (!end && (s[i] == '\0')) {
 2400              		.loc 1 1298 33 is_stmt 0 discriminator 1 view .LVU496
 2401 0020 E4B2     		uxtb	r4, r4
 2402              	.LVL166:
 2403              	.L197:
1298:Core/Src/main_unique.c ****         if (!end && (s[i] == '\0')) {
 2404              		.loc 1 1298 20 is_stmt 1 discriminator 2 view .LVU497
 2405 0022 132C     		cmp	r4, #19
 2406 0024 07D8     		bhi	.L206
1299:Core/Src/main_unique.c ****             end = 1U;
 2407              		.loc 1 1299 9 view .LVU498
1299:Core/Src/main_unique.c ****             end = 1U;
 2408              		.loc 1 1299 12 is_stmt 0 view .LVU499
 2409 0026 002D     		cmp	r5, #0
 2410 0028 F6D1     		bne	.L200
1299:Core/Src/main_unique.c ****             end = 1U;
 2411              		.loc 1 1299 23 discriminator 1 view .LVU500
 2412 002a 305D     		ldrb	r0, [r6, r4]	@ zero_extendqisi2
1299:Core/Src/main_unique.c ****             end = 1U;
 2413              		.loc 1 1299 18 discriminator 1 view .LVU501
 2414 002c 0028     		cmp	r0, #0
 2415 002e F4D1     		bne	.L198
1300:Core/Src/main_unique.c ****         }
 2416              		.loc 1 1300 17 view .LVU502
 2417 0030 0125     		movs	r5, #1
 2418              	.LVL167:
1302:Core/Src/main_unique.c ****     }
 2419              		.loc 1 1302 9 discriminator 2 view .LVU503
 2420 0032 2020     		movs	r0, #32
 2421 0034 F1E7     		b	.L198
 2422              	.LVL168:
ARM GAS  /tmp/ccjBgtoi.s 			page 81


 2423              	.L206:
1304:Core/Src/main_unique.c **** 
 2424              		.loc 1 1304 1 view .LVU504
 2425 0036 70BD     		pop	{r4, r5, r6, pc}
 2426              	.LVL169:
 2427              	.L208:
1304:Core/Src/main_unique.c **** 
 2428              		.loc 1 1304 1 view .LVU505
 2429              		.align	2
 2430              	.L207:
 2431 0038 00000000 		.word	s_present
 2432              		.cfi_endproc
 2433              	.LFE314:
 2435              		.section	.text.lcd_update,"ax",%progbits
 2436              		.align	1
 2437              		.syntax unified
 2438              		.thumb
 2439              		.thumb_func
 2441              	lcd_update:
 2442              	.LVL170:
 2443              	.LFB323:
1530:Core/Src/main_unique.c ****     char norm[LCD_COLS + 1U];
 2444              		.loc 1 1530 1 is_stmt 1 view -0
 2445              		.cfi_startproc
 2446              		@ args = 0, pretend = 0, frame = 24
 2447              		@ frame_needed = 0, uses_anonymous_args = 0
1530:Core/Src/main_unique.c ****     char norm[LCD_COLS + 1U];
 2448              		.loc 1 1530 1 is_stmt 0 view .LVU507
 2449 0000 70B5     		push	{r4, r5, r6, lr}
 2450              	.LCFI41:
 2451              		.cfi_def_cfa_offset 16
 2452              		.cfi_offset 4, -16
 2453              		.cfi_offset 5, -12
 2454              		.cfi_offset 6, -8
 2455              		.cfi_offset 14, -4
 2456 0002 86B0     		sub	sp, sp, #24
 2457              	.LCFI42:
 2458              		.cfi_def_cfa_offset 40
 2459 0004 0446     		mov	r4, r0
