ARM GAS  /tmp/ccXERp1L.s 			page 1


   1              		.cpu cortex-m4
   2              		.arch armv7e-m
   3              		.fpu fpv4-sp-d16
   4              		.eabi_attribute 27, 1
   5              		.eabi_attribute 28, 1
   6              		.eabi_attribute 20, 1
   7              		.eabi_attribute 21, 1
   8              		.eabi_attribute 23, 3
   9              		.eabi_attribute 24, 1
  10              		.eabi_attribute 25, 1
  11              		.eabi_attribute 26, 1
  12              		.eabi_attribute 30, 1
  13              		.eabi_attribute 34, 1
  14              		.eabi_attribute 18, 4
  15              		.file	"stm32f4xx_it.c"
  16              		.text
  17              	.Ltext0:
  18              		.cfi_sections	.debug_frame
  19              		.file 1 "Core/Src/stm32f4xx_it.c"
  20              		.section	.text.SysTick_Handler,"ax",%progbits
  21              		.align	1
  22              		.global	SysTick_Handler
  23              		.syntax unified
  24              		.thumb
  25              		.thumb_func
  27              	SysTick_Handler:
  28              	.LFB268:
   1:Core/Src/stm32f4xx_it.c **** /*
   2:Core/Src/stm32f4xx_it.c ****  * stm32f4xx_it.c
   3:Core/Src/stm32f4xx_it.c ****  * Rutinas de servicio de interrupcion del proyecto.
   4:Core/Src/stm32f4xx_it.c ****  *
   5:Core/Src/stm32f4xx_it.c ****  * Todos los perifericos salvo el I2C trabajan por interrupcion, tal como
   6:Core/Src/stm32f4xx_it.c ****  * exige el enunciado. Cada ISR se limita a delegar en el manejador generico
   7:Core/Src/stm32f4xx_it.c ****  * de la HAL, que a su vez invoca el callback correspondiente en el modulo
   8:Core/Src/stm32f4xx_it.c ****  * del periferico. Ninguna ISR contiene logica de aplicacion.
   9:Core/Src/stm32f4xx_it.c ****  *
  10:Core/Src/stm32f4xx_it.c ****  * Mapa de interrupciones y prioridades (0 = mas urgente):
  11:Core/Src/stm32f4xx_it.c ****  *   USART2_IRQn    prioridad 5   recepcion y transmision serie
  12:Core/Src/stm32f4xx_it.c ****  *   ADC_IRQn       prioridad 6   fin de conversion de cada eje
  13:Core/Src/stm32f4xx_it.c ****  *   TIM3_IRQn      prioridad 7   base de 250 ms para el LED
  14:Core/Src/stm32f4xx_it.c ****  *   TIM4_IRQn      prioridad 7   base de 100 ms del sistema
  15:Core/Src/stm32f4xx_it.c ****  *   EXTI9_5_IRQn   prioridad 8   pulsador SW del joystick (PB5)
  16:Core/Src/stm32f4xx_it.c ****  *   RTC_WKUP_IRQn  prioridad 9   despertador de 1 s del RTC
  17:Core/Src/stm32f4xx_it.c ****  *   SysTick        prioridad 15  contador de milisegundos de la HAL
  18:Core/Src/stm32f4xx_it.c ****  */
  19:Core/Src/stm32f4xx_it.c **** #include "main.h"
  20:Core/Src/stm32f4xx_it.c **** #include "stm32f4xx_it.h"
  21:Core/Src/stm32f4xx_it.c **** #include "timer.h"
  22:Core/Src/stm32f4xx_it.c **** #include "uart.h"
  23:Core/Src/stm32f4xx_it.c **** #include "adc_joystick.h"
  24:Core/Src/stm32f4xx_it.c **** #include "rtc.h"
  25:Core/Src/stm32f4xx_it.c **** #include "gpio.h"
  26:Core/Src/stm32f4xx_it.c **** #include "fsm.h"
  27:Core/Src/stm32f4xx_it.c **** 
  28:Core/Src/stm32f4xx_it.c **** /* ================= Excepciones del nucleo Cortex-M4 ==================== */
  29:Core/Src/stm32f4xx_it.c **** 
  30:Core/Src/stm32f4xx_it.c **** 
ARM GAS  /tmp/ccXERp1L.s 			page 2


  31:Core/Src/stm32f4xx_it.c **** /*
  32:Core/Src/stm32f4xx_it.c **** void NMI_Handler(void)        { while (1) { } }  /* no enmascarable        */
  33:Core/Src/stm32f4xx_it.c **** /*void HardFault_Handler(void)  { while (1) { } }  /* fallo grave            */
  34:Core/Src/stm32f4xx_it.c **** /*void MemManage_Handler(void)  { while (1) { } }  /* violacion de la MPU    */
  35:Core/Src/stm32f4xx_it.c **** /*void BusFault_Handler(void)   { while (1) { } }  /* fallo de bus           */
  36:Core/Src/stm32f4xx_it.c **** /*void UsageFault_Handler(void) { while (1) { } }  /* instruccion invalida   */
  37:Core/Src/stm32f4xx_it.c **** /*void SVC_Handler(void)        { }                /* llamada al supervisor  */
  38:Core/Src/stm32f4xx_it.c **** /*void DebugMon_Handler(void)   { }                /* monitor de depuracion  */
  39:Core/Src/stm32f4xx_it.c **** /*void PendSV_Handler(void)     { }                /* cambio de contexto     */
  40:Core/Src/stm32f4xx_it.c **** 
  41:Core/Src/stm32f4xx_it.c **** /*
  42:Core/Src/stm32f4xx_it.c ****  * SysTick_Handler
  43:Core/Src/stm32f4xx_it.c ****  * Se dispara cada milisegundo. Incrementa el contador que sostiene
  44:Core/Src/stm32f4xx_it.c ****  * HAL_GetTick() y HAL_Delay(); sin el, cualquier funcion de la HAL con
  45:Core/Src/stm32f4xx_it.c ****  * tiempo maximo de espera se bloquearia para siempre.
  46:Core/Src/stm32f4xx_it.c ****  */
  47:Core/Src/stm32f4xx_it.c **** void SysTick_Handler(void)
  48:Core/Src/stm32f4xx_it.c **** {
  29              		.loc 1 48 1 view -0
  30              		.cfi_startproc
  31              		@ args = 0, pretend = 0, frame = 0
  32              		@ frame_needed = 0, uses_anonymous_args = 0
  33 0000 08B5     		push	{r3, lr}
  34              	.LCFI0:
  35              		.cfi_def_cfa_offset 8
  36              		.cfi_offset 3, -8
  37              		.cfi_offset 14, -4
  49:Core/Src/stm32f4xx_it.c ****     HAL_IncTick();
  38              		.loc 1 49 5 view .LVU1
  39 0002 FFF7FEFF 		bl	HAL_IncTick
  40              	.LVL0:
  50:Core/Src/stm32f4xx_it.c **** }
  41              		.loc 1 50 1 is_stmt 0 view .LVU2
  42 0006 08BD     		pop	{r3, pc}
  43              		.cfi_endproc
  44              	.LFE268:
  46              		.section	.text.USART2_IRQHandler,"ax",%progbits
  47              		.align	1
  48              		.global	USART2_IRQHandler
  49              		.syntax unified
  50              		.thumb
  51              		.thumb_func
  53              	USART2_IRQHandler:
  54              	.LFB269:
  51:Core/Src/stm32f4xx_it.c **** 
  52:Core/Src/stm32f4xx_it.c **** /* ================= Interrupciones de periferico ======================== */
  53:Core/Src/stm32f4xx_it.c **** 
  54:Core/Src/stm32f4xx_it.c **** /*
  55:Core/Src/stm32f4xx_it.c ****  * USART2_IRQHandler
  56:Core/Src/stm32f4xx_it.c ****  * Atiende recepcion, transmision y errores. HAL_UART_IRQHandler decide cual
  57:Core/Src/stm32f4xx_it.c ****  * de los tres casos aplica e invoca HAL_UART_RxCpltCallback,
  58:Core/Src/stm32f4xx_it.c ****  * HAL_UART_TxCpltCallback o HAL_UART_ErrorCallback, definidos en uart.c.
  59:Core/Src/stm32f4xx_it.c ****  */
  60:Core/Src/stm32f4xx_it.c **** void USART2_IRQHandler(void)
  61:Core/Src/stm32f4xx_it.c **** {
  55              		.loc 1 61 1 is_stmt 1 view -0
  56              		.cfi_startproc
ARM GAS  /tmp/ccXERp1L.s 			page 3


  57              		@ args = 0, pretend = 0, frame = 0
  58              		@ frame_needed = 0, uses_anonymous_args = 0
  59 0000 08B5     		push	{r3, lr}
  60              	.LCFI1:
  61              		.cfi_def_cfa_offset 8
  62              		.cfi_offset 3, -8
  63              		.cfi_offset 14, -4
  62:Core/Src/stm32f4xx_it.c ****     HAL_UART_IRQHandler(&huart2);
  64              		.loc 1 62 5 view .LVU4
  65 0002 0248     		ldr	r0, .L5
  66 0004 FFF7FEFF 		bl	HAL_UART_IRQHandler
  67              	.LVL1:
  63:Core/Src/stm32f4xx_it.c **** }
  68              		.loc 1 63 1 is_stmt 0 view .LVU5
  69 0008 08BD     		pop	{r3, pc}
  70              	.L6:
  71 000a 00BF     		.align	2
  72              	.L5:
  73 000c 00000000 		.word	huart2
  74              		.cfi_endproc
  75              	.LFE269:
  77              		.section	.text.ADC_IRQHandler,"ax",%progbits
  78              		.align	1
  79              		.global	ADC_IRQHandler
  80              		.syntax unified
  81              		.thumb
  82              		.thumb_func
  84              	ADC_IRQHandler:
  85              	.LFB270:
  64:Core/Src/stm32f4xx_it.c **** 
  65:Core/Src/stm32f4xx_it.c **** /*
  66:Core/Src/stm32f4xx_it.c ****  * ADC_IRQHandler
  67:Core/Src/stm32f4xx_it.c ****  * El STM32F411 comparte un unico vector para todos sus ADC.
  68:Core/Src/stm32f4xx_it.c ****  * Deriva en HAL_ADC_ConvCpltCallback, definido en adc_joystick.c.
  69:Core/Src/stm32f4xx_it.c ****  */
  70:Core/Src/stm32f4xx_it.c **** void ADC_IRQHandler(void)
  71:Core/Src/stm32f4xx_it.c **** {
  86              		.loc 1 71 1 is_stmt 1 view -0
  87              		.cfi_startproc
  88              		@ args = 0, pretend = 0, frame = 0
  89              		@ frame_needed = 0, uses_anonymous_args = 0
  90 0000 08B5     		push	{r3, lr}
  91              	.LCFI2:
  92              		.cfi_def_cfa_offset 8
  93              		.cfi_offset 3, -8
  94              		.cfi_offset 14, -4
  72:Core/Src/stm32f4xx_it.c ****     HAL_ADC_IRQHandler(&hadc1);
  95              		.loc 1 72 5 view .LVU7
  96 0002 0248     		ldr	r0, .L9
  97 0004 FFF7FEFF 		bl	HAL_ADC_IRQHandler
  98              	.LVL2:
  73:Core/Src/stm32f4xx_it.c **** }
  99              		.loc 1 73 1 is_stmt 0 view .LVU8
 100 0008 08BD     		pop	{r3, pc}
 101              	.L10:
 102 000a 00BF     		.align	2
 103              	.L9:
ARM GAS  /tmp/ccXERp1L.s 			page 4


 104 000c 00000000 		.word	hadc1
 105              		.cfi_endproc
 106              	.LFE270:
 108              		.section	.text.TIM3_IRQHandler,"ax",%progbits
 109              		.align	1
 110              		.global	TIM3_IRQHandler
 111              		.syntax unified
 112              		.thumb
 113              		.thumb_func
 115              	TIM3_IRQHandler:
 116              	.LFB271:
  74:Core/Src/stm32f4xx_it.c **** 
  75:Core/Src/stm32f4xx_it.c **** /*
  76:Core/Src/stm32f4xx_it.c ****  * TIM3_IRQHandler
  77:Core/Src/stm32f4xx_it.c ****  * Desbordamiento cada 250 ms. Deriva en HAL_TIM_PeriodElapsedCallback,
  78:Core/Src/stm32f4xx_it.c ****  * que conmuta el LED de PH1.
  79:Core/Src/stm32f4xx_it.c ****  */
  80:Core/Src/stm32f4xx_it.c **** void TIM3_IRQHandler(void)
  81:Core/Src/stm32f4xx_it.c **** {
 117              		.loc 1 81 1 is_stmt 1 view -0
 118              		.cfi_startproc
 119              		@ args = 0, pretend = 0, frame = 0
 120              		@ frame_needed = 0, uses_anonymous_args = 0
 121 0000 08B5     		push	{r3, lr}
 122              	.LCFI3:
 123              		.cfi_def_cfa_offset 8
 124              		.cfi_offset 3, -8
 125              		.cfi_offset 14, -4
  82:Core/Src/stm32f4xx_it.c ****     HAL_TIM_IRQHandler(&htim3);
 126              		.loc 1 82 5 view .LVU10
 127 0002 0248     		ldr	r0, .L13
 128 0004 FFF7FEFF 		bl	HAL_TIM_IRQHandler
 129              	.LVL3:
  83:Core/Src/stm32f4xx_it.c **** }
 130              		.loc 1 83 1 is_stmt 0 view .LVU11
 131 0008 08BD     		pop	{r3, pc}
 132              	.L14:
 133 000a 00BF     		.align	2
 134              	.L13:
 135 000c 00000000 		.word	htim3
 136              		.cfi_endproc
 137              	.LFE271:
 139              		.section	.text.TIM4_IRQHandler,"ax",%progbits
 140              		.align	1
 141              		.global	TIM4_IRQHandler
 142              		.syntax unified
 143              		.thumb
 144              		.thumb_func
 146              	TIM4_IRQHandler:
 147              	.LFB272:
  84:Core/Src/stm32f4xx_it.c **** 
  85:Core/Src/stm32f4xx_it.c **** /*
  86:Core/Src/stm32f4xx_it.c ****  * TIM4_IRQHandler
  87:Core/Src/stm32f4xx_it.c ****  * Desbordamiento cada 100 ms. Lanza la conversion del ADC y encola el
  88:Core/Src/stm32f4xx_it.c ****  * evento periodico de la maquina de estados.
  89:Core/Src/stm32f4xx_it.c ****  */
  90:Core/Src/stm32f4xx_it.c **** void TIM4_IRQHandler(void)
ARM GAS  /tmp/ccXERp1L.s 			page 5


  91:Core/Src/stm32f4xx_it.c **** {
 148              		.loc 1 91 1 is_stmt 1 view -0
 149              		.cfi_startproc
 150              		@ args = 0, pretend = 0, frame = 0
 151              		@ frame_needed = 0, uses_anonymous_args = 0
 152 0000 08B5     		push	{r3, lr}
 153              	.LCFI4:
 154              		.cfi_def_cfa_offset 8
 155              		.cfi_offset 3, -8
 156              		.cfi_offset 14, -4
  92:Core/Src/stm32f4xx_it.c ****     HAL_TIM_IRQHandler(&htim4);
 157              		.loc 1 92 5 view .LVU13
 158 0002 0248     		ldr	r0, .L17
 159 0004 FFF7FEFF 		bl	HAL_TIM_IRQHandler
 160              	.LVL4:
  93:Core/Src/stm32f4xx_it.c **** }
 161              		.loc 1 93 1 is_stmt 0 view .LVU14
 162 0008 08BD     		pop	{r3, pc}
 163              	.L18:
 164 000a 00BF     		.align	2
 165              	.L17:
 166 000c 00000000 		.word	htim4
 167              		.cfi_endproc
 168              	.LFE272:
 170              		.section	.text.EXTI9_5_IRQHandler,"ax",%progbits
 171              		.align	1
 172              		.global	EXTI9_5_IRQHandler
 173              		.syntax unified
 174              		.thumb
 175              		.thumb_func
 177              	EXTI9_5_IRQHandler:
 178              	.LFB273:
  94:Core/Src/stm32f4xx_it.c **** 
  95:Core/Src/stm32f4xx_it.c **** /*
  96:Core/Src/stm32f4xx_it.c ****  * EXTI9_5_IRQHandler
  97:Core/Src/stm32f4xx_it.c ****  * Vector compartido por las lineas EXTI 5 a 9. HAL_GPIO_EXTI_IRQHandler
  98:Core/Src/stm32f4xx_it.c ****  * comprueba cual de ellas esta pendiente, limpia la bandera e invoca
  99:Core/Src/stm32f4xx_it.c ****  * HAL_GPIO_EXTI_Callback.
 100:Core/Src/stm32f4xx_it.c ****  */
 101:Core/Src/stm32f4xx_it.c **** void EXTI9_5_IRQHandler(void)
 102:Core/Src/stm32f4xx_it.c **** {
 179              		.loc 1 102 1 is_stmt 1 view -0
 180              		.cfi_startproc
 181              		@ args = 0, pretend = 0, frame = 0
 182              		@ frame_needed = 0, uses_anonymous_args = 0
 183 0000 08B5     		push	{r3, lr}
 184              	.LCFI5:
 185              		.cfi_def_cfa_offset 8
 186              		.cfi_offset 3, -8
 187              		.cfi_offset 14, -4
 103:Core/Src/stm32f4xx_it.c ****     HAL_GPIO_EXTI_IRQHandler(JOY_SW_PIN);
 188              		.loc 1 103 5 view .LVU16
 189 0002 2020     		movs	r0, #32
 190 0004 FFF7FEFF 		bl	HAL_GPIO_EXTI_IRQHandler
 191              	.LVL5:
 104:Core/Src/stm32f4xx_it.c **** }
 192              		.loc 1 104 1 is_stmt 0 view .LVU17
ARM GAS  /tmp/ccXERp1L.s 			page 6


 193 0008 08BD     		pop	{r3, pc}
 194              		.cfi_endproc
 195              	.LFE273:
 197              		.section	.text.RTC_WKUP_IRQHandler,"ax",%progbits
 198              		.align	1
 199              		.global	RTC_WKUP_IRQHandler
 200              		.syntax unified
 201              		.thumb
 202              		.thumb_func
 204              	RTC_WKUP_IRQHandler:
 205              	.LFB274:
 105:Core/Src/stm32f4xx_it.c **** 
 106:Core/Src/stm32f4xx_it.c **** /*
 107:Core/Src/stm32f4xx_it.c ****  * RTC_WKUP_IRQHandler
 108:Core/Src/stm32f4xx_it.c ****  * Despertador periodico de 1 s. Deriva en
 109:Core/Src/stm32f4xx_it.c ****  * HAL_RTCEx_WakeUpTimerEventCallback, definido en rtc.c.
 110:Core/Src/stm32f4xx_it.c ****  */
 111:Core/Src/stm32f4xx_it.c **** void RTC_WKUP_IRQHandler(void)
 112:Core/Src/stm32f4xx_it.c **** {
 206              		.loc 1 112 1 is_stmt 1 view -0
 207              		.cfi_startproc
 208              		@ args = 0, pretend = 0, frame = 0
 209              		@ frame_needed = 0, uses_anonymous_args = 0
 210 0000 08B5     		push	{r3, lr}
 211              	.LCFI6:
 212              		.cfi_def_cfa_offset 8
 213              		.cfi_offset 3, -8
 214              		.cfi_offset 14, -4
 113:Core/Src/stm32f4xx_it.c ****     HAL_RTCEx_WakeUpTimerIRQHandler(&hrtc);
 215              		.loc 1 113 5 view .LVU19
 216 0002 0248     		ldr	r0, .L23
 217 0004 FFF7FEFF 		bl	HAL_RTCEx_WakeUpTimerIRQHandler
 218              	.LVL6:
 114:Core/Src/stm32f4xx_it.c **** }
 219              		.loc 1 114 1 is_stmt 0 view .LVU20
 220 0008 08BD     		pop	{r3, pc}
 221              	.L24:
 222 000a 00BF     		.align	2
 223              	.L23:
 224 000c 00000000 		.word	hrtc
 225              		.cfi_endproc
 226              	.LFE274:
 228              		.section	.text.HAL_GPIO_EXTI_Callback,"ax",%progbits
 229              		.align	1
 230              		.global	HAL_GPIO_EXTI_Callback
 231              		.syntax unified
 232              		.thumb
 233              		.thumb_func
 235              	HAL_GPIO_EXTI_Callback:
 236              	.LVL7:
 237              	.LFB275:
 115:Core/Src/stm32f4xx_it.c **** 
 116:Core/Src/stm32f4xx_it.c **** /*
 117:Core/Src/stm32f4xx_it.c ****  * HAL_GPIO_EXTI_Callback
 118:Core/Src/stm32f4xx_it.c ****  * Callback comun a todas las lineas EXTI. Incorpora el antirrebote por
 119:Core/Src/stm32f4xx_it.c ****  * software: los contactos mecanicos del pulsador generan decenas de flancos
 120:Core/Src/stm32f4xx_it.c ****  * espurios durante algunos milisegundos, por lo que se ignora todo flanco
ARM GAS  /tmp/ccXERp1L.s 			page 7


 121:Core/Src/stm32f4xx_it.c ****  * que llegue antes de 200 ms desde el anterior.
 122:Core/Src/stm32f4xx_it.c ****  */
 123:Core/Src/stm32f4xx_it.c **** void HAL_GPIO_EXTI_Callback(uint16_t pin)
 124:Core/Src/stm32f4xx_it.c **** {
 238              		.loc 1 124 1 is_stmt 1 view -0
 239              		.cfi_startproc
 240              		@ args = 0, pretend = 0, frame = 0
 241              		@ frame_needed = 0, uses_anonymous_args = 0
 242              		.loc 1 124 1 is_stmt 0 view .LVU22
 243 0000 10B5     		push	{r4, lr}
 244              	.LCFI7:
 245              		.cfi_def_cfa_offset 8
 246              		.cfi_offset 4, -8
 247              		.cfi_offset 14, -4
 248 0002 0446     		mov	r4, r0
 125:Core/Src/stm32f4xx_it.c ****     static uint32_t last = 0;    /* marca temporal del ultimo flanco valido */
 249              		.loc 1 125 5 is_stmt 1 view .LVU23
 126:Core/Src/stm32f4xx_it.c ****     uint32_t now = HAL_GetTick();
 250              		.loc 1 126 5 view .LVU24
 251              		.loc 1 126 20 is_stmt 0 view .LVU25
 252 0004 FFF7FEFF 		bl	HAL_GetTick
 253              	.LVL8:
 127:Core/Src/stm32f4xx_it.c **** 
 128:Core/Src/stm32f4xx_it.c ****     if (pin != JOY_SW_PIN) {
 254              		.loc 1 128 5 is_stmt 1 view .LVU26
 255              		.loc 1 128 8 is_stmt 0 view .LVU27
 256 0008 202C     		cmp	r4, #32
 257 000a 04D1     		bne	.L25
 129:Core/Src/stm32f4xx_it.c ****         return;
 130:Core/Src/stm32f4xx_it.c ****     }
 131:Core/Src/stm32f4xx_it.c ****     if ((now - last) < 200U) {
 258              		.loc 1 131 5 is_stmt 1 view .LVU28
 259              		.loc 1 131 14 is_stmt 0 view .LVU29
 260 000c 054B     		ldr	r3, .L29
 261 000e 1B68     		ldr	r3, [r3]
 262 0010 C31A     		subs	r3, r0, r3
 263              		.loc 1 131 8 view .LVU30
 264 0012 C72B     		cmp	r3, #199
 265 0014 00D8     		bhi	.L28
 266              	.LVL9:
 267              	.L25:
 132:Core/Src/stm32f4xx_it.c ****         return;                  /* rebote: se descarta */
 133:Core/Src/stm32f4xx_it.c ****     }
 134:Core/Src/stm32f4xx_it.c ****     last = now;
 135:Core/Src/stm32f4xx_it.c **** 
 136:Core/Src/stm32f4xx_it.c ****     fsm_post_event(EV_BUTTON);
 137:Core/Src/stm32f4xx_it.c **** }
 268              		.loc 1 137 1 view .LVU31
 269 0016 10BD     		pop	{r4, pc}
 270              	.LVL10:
 271              	.L28:
 134:Core/Src/stm32f4xx_it.c **** 
 272              		.loc 1 134 5 is_stmt 1 view .LVU32
 134:Core/Src/stm32f4xx_it.c **** 
 273              		.loc 1 134 10 is_stmt 0 view .LVU33
 274 0018 024B     		ldr	r3, .L29
 275 001a 1860     		str	r0, [r3]
ARM GAS  /tmp/ccXERp1L.s 			page 8


 136:Core/Src/stm32f4xx_it.c **** }
 276              		.loc 1 136 5 is_stmt 1 view .LVU34
 277 001c 0C20     		movs	r0, #12
 278              	.LVL11:
 136:Core/Src/stm32f4xx_it.c **** }
 279              		.loc 1 136 5 is_stmt 0 view .LVU35
 280 001e FFF7FEFF 		bl	fsm_post_event
 281              	.LVL12:
 136:Core/Src/stm32f4xx_it.c **** }
 282              		.loc 1 136 5 view .LVU36
 283 0022 F8E7     		b	.L25
 284              	.L30:
 285              		.align	2
 286              	.L29:
 287 0024 00000000 		.word	last.0
 288              		.cfi_endproc
 289              	.LFE275:
 291              		.section	.bss.last.0,"aw",%nobits
 292              		.align	2
 295              	last.0:
 296 0000 00000000 		.space	4
 297              		.text
 298              	.Letext0:
 299              		.file 2 "/usr/arm-none-eabi/include/machine/_default_types.h"
 300              		.file 3 "/usr/arm-none-eabi/include/sys/_stdint.h"
 301              		.file 4 "Drivers/CMSIS/Device/ST/STM32F4xx/Include/stm32f411xe.h"
 302              		.file 5 "Drivers/CMSIS/Device/ST/STM32F4xx/Include/stm32f4xx.h"
 303              		.file 6 "Drivers/STM32F4xx_HAL_Driver/Inc/stm32f4xx_hal_def.h"
 304              		.file 7 "Drivers/STM32F4xx_HAL_Driver/Inc/stm32f4xx_hal_dma.h"
 305              		.file 8 "Drivers/STM32F4xx_HAL_Driver/Inc/stm32f4xx_hal_adc.h"
 306              		.file 9 "Drivers/STM32F4xx_HAL_Driver/Inc/stm32f4xx_hal_rtc.h"
 307              		.file 10 "Drivers/STM32F4xx_HAL_Driver/Inc/stm32f4xx_hal_tim.h"
 308              		.file 11 "Drivers/STM32F4xx_HAL_Driver/Inc/stm32f4xx_hal_uart.h"
 309              		.file 12 "Core/Inc/timer.h"
 310              		.file 13 "Core/Inc/uart.h"
 311              		.file 14 "Core/Inc/adc_joystick.h"
 312              		.file 15 "Core/Inc/rtc.h"
 313              		.file 16 "Core/Inc/fsm.h"
 314              		.file 17 "Drivers/STM32F4xx_HAL_Driver/Inc/stm32f4xx_hal_rtc_ex.h"
 315              		.file 18 "Drivers/STM32F4xx_HAL_Driver/Inc/stm32f4xx_hal_gpio.h"
 316              		.file 19 "Drivers/STM32F4xx_HAL_Driver/Inc/stm32f4xx_hal.h"
ARM GAS  /tmp/ccXERp1L.s 			page 9

